---
triple:          'arm64-apple-darwin'
binary-path:     '/Users/rafa32gr/Desarrollos/OSS/avap-isa/target/debug/deps/libavap_isa.dylib'
relocations:
  - { offset: 0x1E, size: 0x8, addend: 0x0, symName: __ZN4core3str8converts19from_utf8_unchecked17h51f4f763b97710d4E, symObjAddr: 0x0, symBinAddr: 0x880, symSize: 0x18 }
  - { offset: 0x3A, size: 0x8, addend: 0x0, symName: __ZN4core3str8converts19from_utf8_unchecked17h51f4f763b97710d4E, symObjAddr: 0x0, symBinAddr: 0x880, symSize: 0x18 }
  - { offset: 0xDA, size: 0x8, addend: 0x0, symName: '__ZN4core5slice29_$LT$impl$u20$$u5b$T$u5d$$GT$12split_at_mut17h063e032249c91aa9E', symObjAddr: 0x0, symBinAddr: 0x898, symSize: 0xAC }
  - { offset: 0x129, size: 0x8, addend: 0x0, symName: '__ZN4core5slice29_$LT$impl$u20$$u5b$T$u5d$$GT$12split_at_mut17h063e032249c91aa9E', symObjAddr: 0x0, symBinAddr: 0x898, symSize: 0xAC }
  - { offset: 0x1B4, size: 0x8, addend: 0x0, symName: '__ZN4core5slice29_$LT$impl$u20$$u5b$T$u5d$$GT$22split_at_mut_unchecked17he69b707e1f0e87fcE', symObjAddr: 0xAC, symBinAddr: 0x944, symSize: 0xF0 }
  - { offset: 0x2C6, size: 0x8, addend: 0x0, symName: '__ZN4core5slice29_$LT$impl$u20$$u5b$T$u5d$$GT$5first17h48cb598cb60ee58eE', symObjAddr: 0x19C, symBinAddr: 0xA34, symSize: 0x44 }
  - { offset: 0x35E, size: 0x8, addend: 0x0, symName: '__ZN4core5slice29_$LT$impl$u20$$u5b$T$u5d$$GT$7reverse17hcd01f5efcb32e1eaE', symObjAddr: 0x1E0, symBinAddr: 0xA78, symSize: 0xF8 }
  - { offset: 0xD09, size: 0x8, addend: 0x0, symName: '__ZN5alloc5slice29_$LT$impl$u20$$u5b$T$u5d$$GT$6to_vec17hbd1a3ab051730f8cE', symObjAddr: 0x2D8, symBinAddr: 0xB70, symSize: 0x28 }
  - { offset: 0xD66, size: 0x8, addend: 0x0, symName: '__ZN5alloc5slice29_$LT$impl$u20$$u5b$T$u5d$$GT$8into_vec17h798673ab83485f0aE', symObjAddr: 0x300, symBinAddr: 0xB98, symSize: 0xB8 }
  - { offset: 0x125E, size: 0x8, addend: 0x0, symName: __ZN4core3ptr9alignment9Alignment13new_unchecked18precondition_check17ha0a9f39f01588a99E, symObjAddr: 0x0, symBinAddr: 0xC50, symSize: 0x70 }
  - { offset: 0x12CA, size: 0x8, addend: 0x0, symName: __ZN4core3ptr9alignment9Alignment13new_unchecked18precondition_check17ha0a9f39f01588a99E, symObjAddr: 0x0, symBinAddr: 0xC50, symSize: 0x70 }
  - { offset: 0x13B0, size: 0x8, addend: 0x0, symName: __ZN4core3ptr19copy_nonoverlapping18precondition_check17h7520982954e13c71E, symObjAddr: 0x0, symBinAddr: 0xCC0, symSize: 0x168 }
  - { offset: 0x159E, size: 0x8, addend: 0x0, symName: __ZN4core3ptr19copy_nonoverlapping18precondition_check17h7520982954e13c71E, symObjAddr: 0x0, symBinAddr: 0xCC0, symSize: 0x168 }
  - { offset: 0x1758, size: 0x8, addend: 0x0, symName: __ZN4core3ptr4copy18precondition_check17h3c54605747f45d92E, symObjAddr: 0x4C8, symBinAddr: 0xE28, symSize: 0x130 }
  - { offset: 0x18A4, size: 0x8, addend: 0x0, symName: __ZN4core3ptr7replace18precondition_check17h472df7f6676990d8E, symObjAddr: 0x5F8, symBinAddr: 0xF58, symSize: 0x9C }
  - { offset: 0x19FB, size: 0x8, addend: 0x0, symName: '__ZN4core5slice29_$LT$impl$u20$$u5b$T$u5d$$GT$7reverse7revswap17h6849e73162b0e699E', symObjAddr: 0x0, symBinAddr: 0xFF4, symSize: 0x1B4 }
  - { offset: 0x1B37, size: 0x8, addend: 0x0, symName: '__ZN4core5slice29_$LT$impl$u20$$u5b$T$u5d$$GT$7reverse7revswap17h6849e73162b0e699E', symObjAddr: 0x0, symBinAddr: 0xFF4, symSize: 0x1B4 }
  - { offset: 0x1BF8, size: 0x8, addend: 0x0, symName: '__ZN4core5slice29_$LT$impl$u20$$u5b$T$u5d$$GT$7reverse7revswap17h89854bea34ab637cE', symObjAddr: 0x1B4, symBinAddr: 0x11A8, symSize: 0x19C }
  - { offset: 0x209C, size: 0x8, addend: 0x0, symName: __ZN3std3sys12thread_local20abort_on_dtor_unwind17h0efd3afc0fba49c4E, symObjAddr: 0x0, symBinAddr: 0x1344, symSize: 0x50 }
  - { offset: 0x20B8, size: 0x8, addend: 0x0, symName: __ZN3std3sys12thread_local20abort_on_dtor_unwind17h0efd3afc0fba49c4E, symObjAddr: 0x0, symBinAddr: 0x1344, symSize: 0x50 }
  - { offset: 0x217B, size: 0x8, addend: 0x0, symName: __ZN8pyo3_ffi6object10Py_XDECREF17ha3ffc6615502b8d0E, symObjAddr: 0x0, symBinAddr: 0x1394, symSize: 0x154 }
  - { offset: 0x220C, size: 0x8, addend: 0x0, symName: __ZN8pyo3_ffi6object10Py_XDECREF17ha3ffc6615502b8d0E, symObjAddr: 0x0, symBinAddr: 0x1394, symSize: 0x154 }
  - { offset: 0x226E, size: 0x8, addend: 0x0, symName: __ZN8pyo3_ffi6object10_Py_NewRef17haf45fdb967075e52E, symObjAddr: 0x154, symBinAddr: 0x14E8, symSize: 0xE4 }
  - { offset: 0x22BA, size: 0x8, addend: 0x0, symName: __ZN8pyo3_ffi6object17PyType_HasFeature17hd7309e6e904adb61E, symObjAddr: 0x238, symBinAddr: 0x15CC, symSize: 0x88 }
  - { offset: 0x22F7, size: 0x8, addend: 0x0, symName: __ZN8pyo3_ffi6object18PyObject_TypeCheck17haa26e04d93d8478cE, symObjAddr: 0x2C0, symBinAddr: 0x1654, symSize: 0x74 }
  - { offset: 0x2334, size: 0x8, addend: 0x0, symName: __ZN8pyo3_ffi6object19PyType_FastSubclass17hd078ebefe62c5788E, symObjAddr: 0x334, symBinAddr: 0x16C8, symSize: 0x28 }
  - { offset: 0x2371, size: 0x8, addend: 0x0, symName: __ZN8pyo3_ffi6object7Py_None17h8e320d39c45c6bdcE, symObjAddr: 0x35C, symBinAddr: 0x16F0, symSize: 0xC }
  - { offset: 0x238F, size: 0x8, addend: 0x0, symName: __ZN8pyo3_ffi6object7Py_TYPE17h1c797281c6030df2E, symObjAddr: 0x368, symBinAddr: 0x16FC, symSize: 0x74 }
  - { offset: 0x37F5, size: 0x8, addend: 0x0, symName: '__ZN62_$LT$avap_isa..AvapISA$u20$as$u20$platon_core..ISAProvider$GT$15instruction_set17h1aa8ab7b368395eeE', symObjAddr: 0x0, symBinAddr: 0x1770, symSize: 0x14 }
  - { offset: 0x3824, size: 0x8, addend: 0x0, symName: '__ZN8avap_isa10ACTIVE_ISA29_$u7b$$u7b$constant$u7d$$u7d$28_$u7b$$u7b$closure$u7d$$u7d$23__RUST_STD_INTERNAL_VAL17h2ad824409788f8a8E', symObjAddr: 0xDBFC, symBinAddr: 0x108ED8, symSize: 0x0 }
  - { offset: 0x3834, size: 0x8, addend: 0x0, symName: __ZN8avap_isa10ACTIVE_ISA27__rust_std_internal_init_fn17h6c7de3dc6c8b5595E, symObjAddr: 0x60, symBinAddr: 0x17D0, symSize: 0x18 }
  - { offset: 0x3894, size: 0x8, addend: 0x0, symName: '__ZN8avap_isa1_158_$LT$impl$u20$pyo3..impl_..pyclass..PyMethods$LT$avap_isa..PyAvapISA$GT$$u20$for$u20$pyo3..impl_..pyclass..PyClassImplCollector$LT$avap_isa..PyAvapISA$GT$$GT$10py_methods5ITEMS17hbadc7016adf9aa2fE', symObjAddr: 0xE948, symBinAddr: 0x1008C0, symSize: 0x0 }
  - { offset: 0x38A6, size: 0x8, addend: 0x0, symName: '__ZN8avap_isa1_158_$LT$impl$u20$pyo3..impl_..pyclass..PyMethods$LT$avap_isa..PyAvapISA$GT$$u20$for$u20$pyo3..impl_..pyclass..PyClassImplCollector$LT$avap_isa..PyAvapISA$GT$$GT$10py_methods5ITEMS10trampoline17h1e9909ace1f6d821E', symObjAddr: 0x771C, symBinAddr: 0x8E8C, symSize: 0x44 }
  - { offset: 0x38E3, size: 0x8, addend: 0x0, symName: '__ZN8avap_isa1_158_$LT$impl$u20$pyo3..impl_..pyclass..PyMethods$LT$avap_isa..PyAvapISA$GT$$u20$for$u20$pyo3..impl_..pyclass..PyClassImplCollector$LT$avap_isa..PyAvapISA$GT$$GT$10py_methods5ITEMS10trampoline17h6ac562f656d9f767E', symObjAddr: 0x7760, symBinAddr: 0x8ED0, symSize: 0x3C }
  - { offset: 0x3911, size: 0x8, addend: 0x0, symName: '__ZN8avap_isa1_158_$LT$impl$u20$pyo3..impl_..pyclass..PyMethods$LT$avap_isa..PyAvapISA$GT$$u20$for$u20$pyo3..impl_..pyclass..PyClassImplCollector$LT$avap_isa..PyAvapISA$GT$$GT$10py_methods5ITEMS10trampoline17h9793361f95b7f8c4E', symObjAddr: 0x779C, symBinAddr: 0x8F0C, symSize: 0x44 }
  - { offset: 0x394E, size: 0x8, addend: 0x0, symName: '__ZN8avap_isa1_158_$LT$impl$u20$pyo3..impl_..pyclass..PyMethods$LT$avap_isa..PyAvapISA$GT$$u20$for$u20$pyo3..impl_..pyclass..PyClassImplCollector$LT$avap_isa..PyAvapISA$GT$$GT$10py_methods5ITEMS10trampoline17hea27e6a247a117a6E', symObjAddr: 0x77E0, symBinAddr: 0x8F50, symSize: 0x44 }
  - { offset: 0x398B, size: 0x8, addend: 0x0, symName: '__ZN8avap_isa1_158_$LT$impl$u20$pyo3..impl_..pyclass..PyMethods$LT$avap_isa..PyAvapISA$GT$$u20$for$u20$pyo3..impl_..pyclass..PyClassImplCollector$LT$avap_isa..PyAvapISA$GT$$GT$10py_methods5ITEMS10trampoline17hee82eafead1c3eecE', symObjAddr: 0x7824, symBinAddr: 0x8F94, symSize: 0x4C }
  - { offset: 0x39D9, size: 0x8, addend: 0x0, symName: '__ZN8avap_isa1_79_$LT$impl$u20$pyo3..type_object..PyTypeInfo$u20$for$u20$avap_isa..PyAvapISA$GT$15type_object_raw17hefc03d6b21629960E', symObjAddr: 0x7F24, symBinAddr: 0x9694, symSize: 0x24 }
  - { offset: 0x3A2C, size: 0x8, addend: 0x0, symName: '__ZN8avap_isa1_83_$LT$impl$u20$pyo3..impl_..pyclass..PyClassImpl$u20$for$u20$avap_isa..PyAvapISA$GT$10items_iter15INTRINSIC_ITEMS17h4b9cb2fec0634d14E', symObjAddr: 0xDE78, symBinAddr: 0xAC430, symSize: 0x0 }
  - { offset: 0x3A4D, size: 0x8, addend: 0x0, symName: '__ZN8avap_isa1_83_$LT$impl$u20$pyo3..impl_..pyclass..PyClassImpl$u20$for$u20$avap_isa..PyAvapISA$GT$16lazy_type_object11TYPE_OBJECT17h7d5bb40b7fb09a39E', symObjAddr: 0xEF48, symBinAddr: 0x1083D8, symSize: 0x0 }
  - { offset: 0x3A6E, size: 0x8, addend: 0x0, symName: '__ZN8avap_isa1_83_$LT$impl$u20$pyo3..impl_..pyclass..PyClassImpl$u20$for$u20$avap_isa..PyAvapISA$GT$3doc3DOC17h7c656def83f4d02aE', symObjAddr: 0xEF90, symBinAddr: 0x108420, symSize: 0x0 }
  - { offset: 0x3A7C, size: 0x8, addend: 0x0, symName: '__ZN8avap_isa1_83_$LT$impl$u20$pyo3..impl_..pyclass..PyClassImpl$u20$for$u20$avap_isa..PyAvapISA$GT$10items_iter17hfaf72e671b9dc12bE', symObjAddr: 0x7F48, symBinAddr: 0x96B8, symSize: 0x38 }
  - { offset: 0x3AB9, size: 0x8, addend: 0x0, symName: '__ZN8avap_isa1_83_$LT$impl$u20$pyo3..impl_..pyclass..PyClassImpl$u20$for$u20$avap_isa..PyAvapISA$GT$16lazy_type_object17hf303287b91973a82E', symObjAddr: 0x7F80, symBinAddr: 0x96F0, symSize: 0xC }
  - { offset: 0x3AD7, size: 0x8, addend: 0x0, symName: '__ZN8avap_isa1_83_$LT$impl$u20$pyo3..impl_..pyclass..PyClassImpl$u20$for$u20$avap_isa..PyAvapISA$GT$3doc17h00e199d7447e0559E', symObjAddr: 0x7F8C, symBinAddr: 0x96FC, symSize: 0x3C }
  - { offset: 0x3C26, size: 0x8, addend: 0x0, symName: '__ZN62_$LT$avap_isa..AvapISA$u20$as$u20$platon_core..ISAProvider$GT$15instruction_set17h1aa8ab7b368395eeE', symObjAddr: 0x0, symBinAddr: 0x1770, symSize: 0x14 }
  - { offset: 0x3C54, size: 0x8, addend: 0x0, symName: '__ZN62_$LT$avap_isa..AvapISA$u20$as$u20$platon_core..ISAProvider$GT$4name17h8b56fe8f4da903d3E', symObjAddr: 0x14, symBinAddr: 0x1784, symSize: 0x20 }
  - { offset: 0x3C82, size: 0x8, addend: 0x0, symName: '__ZN62_$LT$avap_isa..AvapISA$u20$as$u20$platon_core..ISAProvider$GT$7version17h92ae3d254e90448cE', symObjAddr: 0x34, symBinAddr: 0x17A4, symSize: 0x2C }
  - { offset: 0x3CB1, size: 0x8, addend: 0x0, symName: __ZN8avap_isa10h_bool_and17h2fdd021f6d0e177fE, symObjAddr: 0x78, symBinAddr: 0x17E8, symSize: 0x2A8 }
  - { offset: 0x3DB3, size: 0x8, addend: 0x0, symName: __ZN8avap_isa10h_call_ext17h6566b6217370c58bE, symObjAddr: 0x320, symBinAddr: 0x1A90, symSize: 0x580 }
  - { offset: 0x3FBB, size: 0x8, addend: 0x0, symName: __ZN8avap_isa10h_for_iter17h81415ed0919648bfE, symObjAddr: 0x8A0, symBinAddr: 0x2010, symSize: 0x2D0 }
  - { offset: 0x40C0, size: 0x8, addend: 0x0, symName: __ZN8avap_isa10h_get_attr17h3ed58a18e5d33cfaE, symObjAddr: 0xB70, symBinAddr: 0x22E0, symSize: 0x3AC }
  - { offset: 0x4241, size: 0x8, addend: 0x0, symName: __ZN8avap_isa10h_get_item17hf35e93a64c0ccb9fE, symObjAddr: 0xF1C, symBinAddr: 0x268C, symSize: 0x22C }
  - { offset: 0x4343, size: 0x8, addend: 0x0, symName: __ZN8avap_isa10h_get_iter17h98161b45193d4dadE, symObjAddr: 0x1148, symBinAddr: 0x28B8, symSize: 0x3AC }
  - { offset: 0x44CA, size: 0x8, addend: 0x0, symName: __ZN8avap_isa10h_push_try17haac82cb8f7821f9aE, symObjAddr: 0x14F4, symBinAddr: 0x2C64, symSize: 0xE4 }
  - { offset: 0x4560, size: 0x8, addend: 0x0, symName: __ZN8avap_isa10h_set_attr17hfe76a8d651eb2797E, symObjAddr: 0x15D8, symBinAddr: 0x2D48, symSize: 0x4E8 }
  - { offset: 0x46F6, size: 0x8, addend: 0x0, symName: __ZN8avap_isa10h_set_item17hcd47e934ff845391E, symObjAddr: 0x1AC0, symBinAddr: 0x3230, symSize: 0x2E4 }
  - { offset: 0x482D, size: 0x8, addend: 0x0, symName: __ZN8avap_isa11call_method17h409b06b2b3829374E, symObjAddr: 0x1DA4, symBinAddr: 0x3514, symSize: 0x1240 }
  - { offset: 0x4B62, size: 0x8, addend: 0x0, symName: __ZN8avap_isa11h_call_func17hd3535b9c6070408aE, symObjAddr: 0x2FE4, symBinAddr: 0x4754, symSize: 0x4B8 }
  - { offset: 0x4CB2, size: 0x8, addend: 0x0, symName: __ZN8avap_isa11h_load_none17h5a806c5de27bc4a2E, symObjAddr: 0x349C, symBinAddr: 0x4C0C, symSize: 0x54 }
  - { offset: 0x4D08, size: 0x8, addend: 0x0, symName: __ZN8avap_isa11h_load_task17h7379c889bd8cea09E, symObjAddr: 0x34F0, symBinAddr: 0x4C60, symSize: 0x6C }
  - { offset: 0x4D5F, size: 0x8, addend: 0x0, symName: __ZN8avap_isa11value_to_py17hacfbb9fcbeee489eE, symObjAddr: 0x355C, symBinAddr: 0x4CCC, symSize: 0x2F8 }
  - { offset: 0x4F15, size: 0x8, addend: 0x0, symName: __ZN8avap_isa12call_builtin17h1b552c35e407e5b5E, symObjAddr: 0x3854, symBinAddr: 0x4FC4, symSize: 0x17CC }
  - { offset: 0x534B, size: 0x8, addend: 0x0, symName: __ZN8avap_isa12h_build_dict17h599a7f29b0a2c017E, symObjAddr: 0x5020, symBinAddr: 0x6790, symSize: 0x510 }
  - { offset: 0x54C2, size: 0x8, addend: 0x0, symName: __ZN8avap_isa12h_build_list17hc29f69506fd23835E, symObjAddr: 0x5530, symBinAddr: 0x6CA0, symSize: 0x2C8 }
  - { offset: 0x559F, size: 0x8, addend: 0x0, symName: __ZN8avap_isa12h_import_mod17h0fc9429e230459baE, symObjAddr: 0x57F8, symBinAddr: 0x6F68, symSize: 0x23C }
  - { offset: 0x56E1, size: 0x8, addend: 0x0, symName: __ZN8avap_isa12h_jmp_if_not17h5fd372a1e8f19808E, symObjAddr: 0x5A34, symBinAddr: 0x71A4, symSize: 0x10C }
  - { offset: 0x5777, size: 0x8, addend: 0x0, symName: __ZN8avap_isa12h_jmp_if_pop17h695637b7bd5afa11E, symObjAddr: 0x5B40, symBinAddr: 0x72B0, symSize: 0x1DC }
  - { offset: 0x5864, size: 0x8, addend: 0x0, symName: __ZN8avap_isa13h_build_tuple17h70a31237d91d7108E, symObjAddr: 0x5D1C, symBinAddr: 0x748C, symSize: 0x40 }
  - { offset: 0x58BF, size: 0x8, addend: 0x0, symName: __ZN8avap_isa13h_call_method17h2e13789ddbc38677E, symObjAddr: 0x5D5C, symBinAddr: 0x74CC, symSize: 0x624 }
  - { offset: 0x5A84, size: 0x8, addend: 0x0, symName: __ZN8avap_isa13h_delete_item17h879743d20b0c0379E, symObjAddr: 0x6380, symBinAddr: 0x7AF0, symSize: 0x228 }
  - { offset: 0x5B8D, size: 0x8, addend: 0x0, symName: __ZN8avap_isa13h_is_instance17h538061c6cf66e199E, symObjAddr: 0x65A8, symBinAddr: 0x7D18, symSize: 0x550 }
  - { offset: 0x5CBE, size: 0x8, addend: 0x0, symName: __ZN8avap_isa13value_from_py17h709d1b39b327bb0aE, symObjAddr: 0x6AF8, symBinAddr: 0x8268, symSize: 0x7D8 }
  - { offset: 0x5E73, size: 0x8, addend: 0x0, symName: __ZN8avap_isa14h_load_builtin17h3d5d5be2ffff6b9fE, symObjAddr: 0x72D0, symBinAddr: 0x8A40, symSize: 0x204 }
  - { offset: 0x5F58, size: 0x8, addend: 0x0, symName: __ZN8avap_isa15h_load_conector17h24d8e7861e9f54f2E, symObjAddr: 0x74D4, symBinAddr: 0x8C44, symSize: 0x6C }
  - { offset: 0x5FAF, size: 0x8, addend: 0x0, symName: __ZN8avap_isa16h_jmp_if_not_pop17hc0cd3dd895c201f4E, symObjAddr: 0x7540, symBinAddr: 0x8CB0, symSize: 0x1DC }
  - { offset: 0x609C, size: 0x8, addend: 0x0, symName: __ZN8avap_isa4h_eq17h38b02ad052c3511eE, symObjAddr: 0x7FC8, symBinAddr: 0x9738, symSize: 0x220 }
  - { offset: 0x619E, size: 0x8, addend: 0x0, symName: __ZN8avap_isa4h_gt17h48b826a4a8b92006E, symObjAddr: 0x81E8, symBinAddr: 0x9958, symSize: 0x2A0 }
  - { offset: 0x62B7, size: 0x8, addend: 0x0, symName: __ZN8avap_isa4h_in17hb4dcea2f063d8d94E, symObjAddr: 0x8488, symBinAddr: 0x9BF8, symSize: 0x220 }
  - { offset: 0x63B9, size: 0x8, addend: 0x0, symName: __ZN8avap_isa4h_is17hb9fbf40ed6d3091bE, symObjAddr: 0x86A8, symBinAddr: 0x9E18, symSize: 0x268 }
  - { offset: 0x64BB, size: 0x8, addend: 0x0, symName: __ZN8avap_isa4h_lt17hc8fdd7f039034bbcE, symObjAddr: 0x8910, symBinAddr: 0xA080, symSize: 0x2A0 }
  - { offset: 0x65D4, size: 0x8, addend: 0x0, symName: __ZN8avap_isa5h_add17h51a192edd49682aeE, symObjAddr: 0x8BB0, symBinAddr: 0xA320, symSize: 0x304 }
  - { offset: 0x66E9, size: 0x8, addend: 0x0, symName: __ZN8avap_isa5h_div17hf351fc2b60860ee8E, symObjAddr: 0x8EB4, symBinAddr: 0xA624, symSize: 0x304 }
  - { offset: 0x67FE, size: 0x8, addend: 0x0, symName: __ZN8avap_isa5h_dup17h1cd1a7681fd125c6E, symObjAddr: 0x91B8, symBinAddr: 0xA928, symSize: 0x158 }
  - { offset: 0x68A6, size: 0x8, addend: 0x0, symName: __ZN8avap_isa5h_gte17h9a6ebafc0df4fdc9E, symObjAddr: 0x9310, symBinAddr: 0xAA80, symSize: 0x2A4 }
  - { offset: 0x69BF, size: 0x8, addend: 0x0, symName: __ZN8avap_isa5h_jmp17h25248ee20467ffd9E, symObjAddr: 0x95B4, symBinAddr: 0xAD24, symSize: 0xDC }
  - { offset: 0x6A51, size: 0x8, addend: 0x0, symName: __ZN8avap_isa5h_lte17h1d2ef5dfce313703E, symObjAddr: 0x9690, symBinAddr: 0xAE00, symSize: 0x2A4 }
  - { offset: 0x6B6A, size: 0x8, addend: 0x0, symName: __ZN8avap_isa5h_mod17hd243b1d4bc1a6a5bE, symObjAddr: 0x9934, symBinAddr: 0xB0A4, symSize: 0x304 }
  - { offset: 0x6C7F, size: 0x8, addend: 0x0, symName: __ZN8avap_isa5h_mul17hf75a8908ca05f5feE, symObjAddr: 0x9C38, symBinAddr: 0xB3A8, symSize: 0x304 }
  - { offset: 0x6D94, size: 0x8, addend: 0x0, symName: __ZN8avap_isa5h_neg17h6c6bb6d9105443bbE, symObjAddr: 0x9F3C, symBinAddr: 0xB6AC, symSize: 0x21C }
  - { offset: 0x6E6E, size: 0x8, addend: 0x0, symName: __ZN8avap_isa5h_neq17h7410ad4e04084c7aE, symObjAddr: 0xA158, symBinAddr: 0xB8C8, symSize: 0x22C }
  - { offset: 0x6F70, size: 0x8, addend: 0x0, symName: __ZN8avap_isa5h_nop17hb65a025a928dd3c8E, symObjAddr: 0xA384, symBinAddr: 0xBAF4, symSize: 0x2C }
  - { offset: 0x6FC6, size: 0x8, addend: 0x0, symName: __ZN8avap_isa5h_not17h1efe0e5336445eecE, symObjAddr: 0xA3B0, symBinAddr: 0xBB20, symSize: 0x154 }
  - { offset: 0x7072, size: 0x8, addend: 0x0, symName: __ZN8avap_isa5h_pop17hc07dca651028b707E, symObjAddr: 0xA504, symBinAddr: 0xBC74, symSize: 0x54 }
  - { offset: 0x70C8, size: 0x8, addend: 0x0, symName: __ZN8avap_isa5h_sub17hd74fb14b1958b49aE, symObjAddr: 0xA558, symBinAddr: 0xBCC8, symSize: 0x304 }
  - { offset: 0x71DD, size: 0x8, addend: 0x0, symName: __ZN8avap_isa6h_load17hfaec21311eeef7bfE, symObjAddr: 0xA85C, symBinAddr: 0xBFCC, symSize: 0x204 }
  - { offset: 0x72E8, size: 0x8, addend: 0x0, symName: __ZN8avap_isa6h_push17hcf4abb4802354ad0E, symObjAddr: 0xAA60, symBinAddr: 0xC1D0, symSize: 0x214 }
  - { offset: 0x73C7, size: 0x8, addend: 0x0, symName: __ZN8avap_isa7h_raise17h914b075db3ca0cbdE, symObjAddr: 0xB950, symBinAddr: 0xD0C0, symSize: 0x12C }
  - { offset: 0x7473, size: 0x8, addend: 0x0, symName: __ZN8avap_isa7h_store17h4fa1a89990c8197dE, symObjAddr: 0xBA7C, symBinAddr: 0xD1EC, symSize: 0x2EC }
  - { offset: 0x75B1, size: 0x8, addend: 0x0, symName: __ZN8avap_isa8avap_isa17h04dfaba842180f7dE, symObjAddr: 0xBD68, symBinAddr: 0xD4D8, symSize: 0x120 }
  - { offset: 0x763B, size: 0x8, addend: 0x0, symName: __ZN8avap_isa8h_is_not17hbde4cb8c461d1d57E, symObjAddr: 0xBE88, symBinAddr: 0xD5F8, symSize: 0x270 }
  - { offset: 0x773D, size: 0x8, addend: 0x0, symName: __ZN8avap_isa8h_jmp_if17hb68b58418dad0842E, symObjAddr: 0xC0F8, symBinAddr: 0xD868, symSize: 0x10C }
  - { offset: 0x77CB, size: 0x8, addend: 0x0, symName: __ZN8avap_isa8h_not_in17h8b5f34f17a5d3b05E, symObjAddr: 0xC204, symBinAddr: 0xD974, symSize: 0x22C }
  - { offset: 0x78CD, size: 0x8, addend: 0x0, symName: __ZN8avap_isa8h_return17haa15e69a511505daE, symObjAddr: 0xC430, symBinAddr: 0xDBA0, symSize: 0x2C }
  - { offset: 0x7924, size: 0x8, addend: 0x0, symName: __ZN8avap_isa9h_bool_or17h775c1cf1115e5002E, symObjAddr: 0xC6F4, symBinAddr: 0xDE64, symSize: 0x2A8 }
  - { offset: 0x7A26, size: 0x8, addend: 0x0, symName: __ZN8avap_isa9h_is_none17h2c6eff392569182fE, symObjAddr: 0xC99C, symBinAddr: 0xE10C, symSize: 0x158 }
  - { offset: 0x7AD2, size: 0x8, addend: 0x0, symName: __ZN8avap_isa9h_pop_try17hc3096cc5cd0d056eE, symObjAddr: 0xCAF4, symBinAddr: 0xE264, symSize: 0x44 }
  - { offset: 0x7B29, size: 0x8, addend: 0x0, symName: __ZN8avap_isa9h_type_of17h18d249192b6bc656E, symObjAddr: 0xCB38, symBinAddr: 0xE2A8, symSize: 0x16C }
  - { offset: 0xB9A2, size: 0x8, addend: 0x0, symName: '__ZN8avap_isa1_37_$LT$impl$u20$avap_isa..PyAvapISA$GT$17__pymethod_name__17h3f1713765d0e946dE', symObjAddr: 0x7870, symBinAddr: 0x8FE0, symSize: 0x134 }
  - { offset: 0xBA19, size: 0x8, addend: 0x0, symName: '__ZN8avap_isa1_37_$LT$impl$u20$avap_isa..PyAvapISA$GT$20__pymethod___new____17hfae661f6ae3ecda1E', symObjAddr: 0x79A4, symBinAddr: 0x9114, symSize: 0x220 }
  - { offset: 0xBB91, size: 0x8, addend: 0x0, symName: '__ZN8avap_isa1_37_$LT$impl$u20$avap_isa..PyAvapISA$GT$21__pymethod___repr____17h1d948acc5770e29cE', symObjAddr: 0x7BC4, symBinAddr: 0x9334, symSize: 0x100 }
  - { offset: 0xBC1F, size: 0x8, addend: 0x0, symName: '__ZN8avap_isa1_37_$LT$impl$u20$avap_isa..PyAvapISA$GT$25__pymethod__get_arc_ptr__17hb9158f8e9efeeffeE', symObjAddr: 0x7CC4, symBinAddr: 0x9434, symSize: 0x134 }
  - { offset: 0xBC96, size: 0x8, addend: 0x0, symName: '__ZN8avap_isa1_37_$LT$impl$u20$avap_isa..PyAvapISA$GT$25__pymethod_opcode_count__17h1e423e01cb0e0281E', symObjAddr: 0x7DF8, symBinAddr: 0x9568, symSize: 0x12C }
  - { offset: 0xBD0D, size: 0x8, addend: 0x0, symName: __ZN8avap_isa7AvapISA3new17hd4fbae0d1f63deb6E, symObjAddr: 0xAC74, symBinAddr: 0xC3E4, symSize: 0xCDC }
  - { offset: 0xBD62, size: 0x8, addend: 0x0, symName: __ZN8avap_isa9PyAvapISA12_get_arc_ptr17h492e2981e51d1989E, symObjAddr: 0xC45C, symBinAddr: 0xDBCC, symSize: 0x48 }
  - { offset: 0xBDA3, size: 0x8, addend: 0x0, symName: __ZN8avap_isa9PyAvapISA12opcode_count17h60432b697e0175ddE, symObjAddr: 0xC4A4, symBinAddr: 0xDC14, symSize: 0x2C }
  - { offset: 0xBDC6, size: 0x8, addend: 0x0, symName: __ZN8avap_isa9PyAvapISA3new17h8ddfe3d666787a21E, symObjAddr: 0xC4D0, symBinAddr: 0xDC40, symSize: 0x70 }
  - { offset: 0xBDF0, size: 0x8, addend: 0x0, symName: __ZN8avap_isa9PyAvapISA4name17h3ec44307bfd68d58E, symObjAddr: 0xC540, symBinAddr: 0xDCB0, symSize: 0x28 }
  - { offset: 0xBE13, size: 0x8, addend: 0x0, symName: __ZN8avap_isa9PyAvapISA8__repr__17hb534f9a5c353e106E, symObjAddr: 0xC568, symBinAddr: 0xDCD8, symSize: 0x18C }
  - { offset: 0xC210, size: 0x8, addend: 0x0, symName: '__ZN4pyo310conversion13FromPyPointer26from_borrowed_ptr_or_panic28_$u7b$$u7b$closure$u7d$$u7d$17he51ec184a2d54955E', symObjAddr: 0x0, symBinAddr: 0xE414, symSize: 0x14 }
  - { offset: 0xD3DE, size: 0x8, addend: 0x0, symName: '__ZN4pyo310conversion13FromPyPointer26from_borrowed_ptr_or_panic28_$u7b$$u7b$closure$u7d$$u7d$17he51ec184a2d54955E', symObjAddr: 0x0, symBinAddr: 0xE414, symSize: 0x14 }
  - { offset: 0xD440, size: 0x8, addend: 0x0, symName: '__ZN53_$LT$T$u20$as$u20$pyo3..conversion..FromPyPointer$GT$24from_borrowed_ptr_or_opt28_$u7b$$u7b$closure$u7d$$u7d$17h00f70e31048a7aa2E', symObjAddr: 0x14, symBinAddr: 0xE428, symSize: 0x6C }
  - { offset: 0xD482, size: 0x8, addend: 0x0, symName: '__ZN53_$LT$T$u20$as$u20$pyo3..conversion..FromPyPointer$GT$24from_borrowed_ptr_or_opt28_$u7b$$u7b$closure$u7d$$u7d$17h70e956be0dbf2bafE', symObjAddr: 0x80, symBinAddr: 0xE494, symSize: 0x6C }
  - { offset: 0xDA85, size: 0x8, addend: 0x0, symName: __ZN9hashbrown3raw11TableLayout20calculate_layout_for17hfaff487bf5c66fdeE, symObjAddr: 0x0, symBinAddr: 0xE500, symSize: 0x220 }
  - { offset: 0xE10E, size: 0x8, addend: 0x0, symName: __ZN9hashbrown3raw11TableLayout20calculate_layout_for17hfaff487bf5c66fdeE, symObjAddr: 0x0, symBinAddr: 0xE500, symSize: 0x220 }
  - { offset: 0xE3F4, size: 0x8, addend: 0x0, symName: '__ZN56_$LT$T$u20$as$u20$pyo3..impl_..wrap..OkWrap$LT$T$GT$$GT$4wrap17h10d240bf410cf2f9E', symObjAddr: 0x0, symBinAddr: 0xE720, symSize: 0x38 }
  - { offset: 0xF7B3, size: 0x8, addend: 0x0, symName: '__ZN56_$LT$T$u20$as$u20$pyo3..impl_..wrap..OkWrap$LT$T$GT$$GT$4wrap17h10d240bf410cf2f9E', symObjAddr: 0x0, symBinAddr: 0xE720, symSize: 0x38 }
  - { offset: 0xF801, size: 0x8, addend: 0x0, symName: '__ZN56_$LT$T$u20$as$u20$pyo3..impl_..wrap..OkWrap$LT$T$GT$$GT$4wrap17h9253b808ccef19daE', symObjAddr: 0x38, symBinAddr: 0xE758, symSize: 0x34 }
  - { offset: 0xF84F, size: 0x8, addend: 0x0, symName: '__ZN56_$LT$T$u20$as$u20$pyo3..impl_..wrap..OkWrap$LT$T$GT$$GT$4wrap17hf79d6fd64c741f02E', symObjAddr: 0x6C, symBinAddr: 0xE78C, symSize: 0x30 }
  - { offset: 0x10058, size: 0x8, addend: 0x0, symName: __ZN4core5alloc6layout6Layout25from_size_align_unchecked18precondition_check17ha39cb4d3c99a9cb1E, symObjAddr: 0x0, symBinAddr: 0xE7BC, symSize: 0xBC }
  - { offset: 0x10480, size: 0x8, addend: 0x0, symName: __ZN4core5alloc6layout6Layout25from_size_align_unchecked18precondition_check17ha39cb4d3c99a9cb1E, symObjAddr: 0x0, symBinAddr: 0xE7BC, symSize: 0xBC }
  - { offset: 0x106E3, size: 0x8, addend: 0x0, symName: '__ZN4core3num21_$LT$impl$u20$i64$GT$16from_ascii_radix17h525e5a2e9fde5c77E', symObjAddr: 0x0, symBinAddr: 0xE878, symSize: 0x7BC }
  - { offset: 0x108F6, size: 0x8, addend: 0x0, symName: '__ZN4core3num21_$LT$impl$u20$i64$GT$16from_ascii_radix17h525e5a2e9fde5c77E', symObjAddr: 0x0, symBinAddr: 0xE878, symSize: 0x7BC }
  - { offset: 0x10DC2, size: 0x8, addend: 0x0, symName: '__ZN4core3num23_$LT$impl$u20$usize$GT$13unchecked_add18precondition_check17h580ab768c57addc1E', symObjAddr: 0x7BC, symBinAddr: 0xF034, symSize: 0x64 }
  - { offset: 0x10E42, size: 0x8, addend: 0x0, symName: '__ZN4core3num60_$LT$impl$u20$core..str..traits..FromStr$u20$for$u20$i64$GT$8from_str17hd769ceb885f86cebE', symObjAddr: 0x820, symBinAddr: 0xF098, symSize: 0x30 }
  - { offset: 0x110BF, size: 0x8, addend: 0x0, symName: '__ZN8avap_isa8avap_isa4init28_$u7b$$u7b$closure$u7d$$u7d$17h3407b610b39bcb2eE', symObjAddr: 0x0, symBinAddr: 0xF0C8, symSize: 0x28 }
  - { offset: 0x1248B, size: 0x8, addend: 0x0, symName: '__ZN8avap_isa8avap_isa4init28_$u7b$$u7b$closure$u7d$$u7d$17h3407b610b39bcb2eE', symObjAddr: 0x0, symBinAddr: 0xF0C8, symSize: 0x28 }
  - { offset: 0x12CAA, size: 0x8, addend: 0x0, symName: '__ZN4core3ptr9const_ptr33_$LT$impl$u20$$BP$const$u20$T$GT$20offset_from_unsigned18precondition_check17hfdfe797895148460E', symObjAddr: 0x0, symBinAddr: 0xF0F0, symSize: 0x60 }
  - { offset: 0x12CD0, size: 0x8, addend: 0x0, symName: '__ZN4core3ptr9const_ptr33_$LT$impl$u20$$BP$const$u20$T$GT$20offset_from_unsigned18precondition_check17hfdfe797895148460E', symObjAddr: 0x0, symBinAddr: 0xF0F0, symSize: 0x60 }
  - { offset: 0x12D8F, size: 0x8, addend: 0x0, symName: '__ZN4pyo311conversions3std3num115_$LT$impl$u20$pyo3..conversion..IntoPy$LT$pyo3..instance..Py$LT$pyo3..types..any..PyAny$GT$$GT$$u20$for$u20$u64$GT$7into_py17h9511f71d02a25f83E', symObjAddr: 0x0, symBinAddr: 0xF150, symSize: 0x24 }
  - { offset: 0x13F56, size: 0x8, addend: 0x0, symName: '__ZN4pyo311conversions3std3num115_$LT$impl$u20$pyo3..conversion..IntoPy$LT$pyo3..instance..Py$LT$pyo3..types..any..PyAny$GT$$GT$$u20$for$u20$u64$GT$7into_py17h9511f71d02a25f83E', symObjAddr: 0x0, symBinAddr: 0xF150, symSize: 0x24 }
  - { offset: 0x14515, size: 0x8, addend: 0x0, symName: __ZN4core9ub_checks23maybe_is_nonoverlapping7runtime17h0c87d705c10c303cE, symObjAddr: 0x0, symBinAddr: 0xF174, symSize: 0xD8 }
  - { offset: 0x1469A, size: 0x8, addend: 0x0, symName: __ZN4core9ub_checks23maybe_is_nonoverlapping7runtime17h0c87d705c10c303cE, symObjAddr: 0x0, symBinAddr: 0xF174, symSize: 0xD8 }
  - { offset: 0x148AD, size: 0x8, addend: 0x0, symName: '__ZN5alloc7raw_vec19RawVec$LT$T$C$A$GT$8grow_one17h008ce47cd827dafcE', symObjAddr: 0x0, symBinAddr: 0xF24C, symSize: 0x84 }
  - { offset: 0x16387, size: 0x8, addend: 0x0, symName: '__ZN5alloc7raw_vec19RawVec$LT$T$C$A$GT$8grow_one17h008ce47cd827dafcE', symObjAddr: 0x0, symBinAddr: 0xF24C, symSize: 0x84 }
  - { offset: 0x1645E, size: 0x8, addend: 0x0, symName: '__ZN5alloc7raw_vec19RawVec$LT$T$C$A$GT$8grow_one17h304aece5fe66dccaE', symObjAddr: 0x84, symBinAddr: 0xF2D0, symSize: 0x88 }
  - { offset: 0x1650E, size: 0x8, addend: 0x0, symName: '__ZN5alloc7raw_vec19RawVec$LT$T$C$A$GT$8grow_one17h86603d078e61a5b1E', symObjAddr: 0x10C, symBinAddr: 0xF358, symSize: 0x84 }
  - { offset: 0x16597, size: 0x8, addend: 0x0, symName: __ZN11platon_core5Value3Int17hb474eb5ebd5141e1E, symObjAddr: 0x0, symBinAddr: 0xF3DC, symSize: 0x24 }
  - { offset: 0x165B3, size: 0x8, addend: 0x0, symName: __ZN11platon_core5Value3Int17hb474eb5ebd5141e1E, symObjAddr: 0x0, symBinAddr: 0xF3DC, symSize: 0x24 }
  - { offset: 0x165E1, size: 0x8, addend: 0x0, symName: __ZN11platon_core5Value5Float17hcf9c0235c393fa19E, symObjAddr: 0x24, symBinAddr: 0xF400, symSize: 0x20 }
  - { offset: 0x16610, size: 0x8, addend: 0x0, symName: '__ZN57_$LT$platon_core..Value$u20$as$u20$core..clone..Clone$GT$5clone17hc3440989cc4c9fb5E', symObjAddr: 0x44, symBinAddr: 0xF420, symSize: 0x22C }
  - { offset: 0x16DD4, size: 0x8, addend: 0x0, symName: '__ZN58_$LT$platon_core..Value$u20$as$u20$avap_isa..AVAPArith$GT$7avap_gt17hca8ff5d6fa622dfbE', symObjAddr: 0x270, symBinAddr: 0xF64C, symSize: 0x2B0 }
  - { offset: 0x16F4B, size: 0x8, addend: 0x0, symName: '__ZN58_$LT$platon_core..Value$u20$as$u20$avap_isa..AVAPArith$GT$7avap_lt17h67beb85be205b3bcE', symObjAddr: 0x520, symBinAddr: 0xF8FC, symSize: 0x2B0 }
  - { offset: 0x170C2, size: 0x8, addend: 0x0, symName: '__ZN58_$LT$platon_core..Value$u20$as$u20$avap_isa..AVAPArith$GT$8avap_add17h70d71d0604d6eb59E', symObjAddr: 0x7D0, symBinAddr: 0xFBAC, symSize: 0x63C }
  - { offset: 0x1724F, size: 0x8, addend: 0x0, symName: '__ZN58_$LT$platon_core..Value$u20$as$u20$avap_isa..AVAPArith$GT$8avap_div17hcfa9f9485e9db683E', symObjAddr: 0xE0C, symBinAddr: 0x101E8, symSize: 0x2F0 }
  - { offset: 0x173BF, size: 0x8, addend: 0x0, symName: '__ZN58_$LT$platon_core..Value$u20$as$u20$avap_isa..AVAPArith$GT$8avap_mod17he58c3e2cd1acd32cE', symObjAddr: 0x10FC, symBinAddr: 0x104D8, symSize: 0x25C }
  - { offset: 0x1748B, size: 0x8, addend: 0x0, symName: '__ZN58_$LT$platon_core..Value$u20$as$u20$avap_isa..AVAPArith$GT$8avap_mul17h44abea82de8910f1E', symObjAddr: 0x1358, symBinAddr: 0x10734, symSize: 0x44C }
  - { offset: 0x175F2, size: 0x8, addend: 0x0, symName: '__ZN58_$LT$platon_core..Value$u20$as$u20$avap_isa..AVAPArith$GT$8avap_sub17h58f9b8a71867d8f6E', symObjAddr: 0x17A4, symBinAddr: 0x10B80, symSize: 0x448 }
  - { offset: 0x17922, size: 0x8, addend: 0x0, symName: __ZN4pyo35impl_16extract_argument19FunctionDescription13handle_kwargs17h218e36b68781dd36E, symObjAddr: 0x0, symBinAddr: 0x10FC8, symSize: 0x72C }
  - { offset: 0x1947A, size: 0x8, addend: 0x0, symName: '__ZN4pyo35impl_16extract_argument19FunctionDescription36find_keyword_parameter_in_positional28_$u7b$$u7b$closure$u7d$$u7d$17h22cbae30cf1807deE', symObjAddr: 0xBB4, symBinAddr: 0x11B7C, symSize: 0x48 }
  - { offset: 0x194DA, size: 0x8, addend: 0x0, symName: '__ZN4pyo35impl_16extract_argument19FunctionDescription38find_keyword_parameter_in_keyword_only28_$u7b$$u7b$closure$u7d$$u7d$17hd852ee20b9452961E', symObjAddr: 0xBFC, symBinAddr: 0x11BC4, symSize: 0x38 }
  - { offset: 0x1951C, size: 0x8, addend: 0x0, symName: __ZN4pyo35impl_16extract_argument19extract_pyclass_ref17h33b854c6b5f5a4d4E, symObjAddr: 0xC34, symBinAddr: 0x11BFC, symSize: 0xB0 }
  - { offset: 0x19F4D, size: 0x8, addend: 0x0, symName: __ZN4pyo35impl_16extract_argument19FunctionDescription13handle_kwargs17h218e36b68781dd36E, symObjAddr: 0x0, symBinAddr: 0x10FC8, symSize: 0x72C }
  - { offset: 0x1A180, size: 0x8, addend: 0x0, symName: __ZN4pyo35impl_16extract_argument19FunctionDescription28extract_arguments_tuple_dict17hfdcbc3b0e85da903E, symObjAddr: 0x72C, symBinAddr: 0x116F4, symSize: 0x488 }
  - { offset: 0x1AC9C, size: 0x8, addend: 0x0, symName: __ZN4pyo36marker6Python17from_borrowed_ptr17haa9063f0fb5c5420E, symObjAddr: 0x0, symBinAddr: 0x11CAC, symSize: 0x24 }
  - { offset: 0x1C755, size: 0x8, addend: 0x0, symName: __ZN4pyo36marker6Python17from_borrowed_ptr17haa9063f0fb5c5420E, symObjAddr: 0x0, symBinAddr: 0x11CAC, symSize: 0x24 }
  - { offset: 0x1C7A9, size: 0x8, addend: 0x0, symName: __ZN4pyo36marker6Python24from_borrowed_ptr_or_opt17h37716cf5b6e4703fE, symObjAddr: 0x24, symBinAddr: 0x11CD0, symSize: 0x24 }
  - { offset: 0x1C7FD, size: 0x8, addend: 0x0, symName: __ZN4pyo36marker6Python24from_borrowed_ptr_or_opt17hf73fb93e101a8f1aE, symObjAddr: 0x48, symBinAddr: 0x11CF4, symSize: 0x24 }
  - { offset: 0x1C8B1, size: 0x8, addend: 0x0, symName: __ZN4pyo36marker6Python8with_gil17h325a8d6388d92affE, symObjAddr: 0x6C, symBinAddr: 0x11D18, symSize: 0xD0 }
  - { offset: 0x1CC87, size: 0x8, addend: 0x0, symName: __ZN4pyo36marker6Python8with_gil17hd1b58cc599c726e5E, symObjAddr: 0x13C, symBinAddr: 0x11DE8, symSize: 0xE0 }
  - { offset: 0x1CCF1, size: 0x8, addend: 0x0, symName: __ZN4pyo33err5PyErr16write_unraisable17h7f9a0b0fe6bc1490E, symObjAddr: 0x0, symBinAddr: 0x11EC8, symSize: 0x4C }
  - { offset: 0x1E84C, size: 0x8, addend: 0x0, symName: __ZN4pyo33err5PyErr16write_unraisable17h7f9a0b0fe6bc1490E, symObjAddr: 0x0, symBinAddr: 0x11EC8, symSize: 0x4C }
  - { offset: 0x1E89A, size: 0x8, addend: 0x0, symName: __ZN4pyo33err5PyErr5fetch17h7e14566807a70216E, symObjAddr: 0x4C, symBinAddr: 0x11F14, symSize: 0x5C }
  - { offset: 0x1E8E5, size: 0x8, addend: 0x0, symName: __ZN4pyo33err5PyErr7restore17ha8fe436e211772b1E, symObjAddr: 0xA8, symBinAddr: 0x11F70, symSize: 0x68 }
  - { offset: 0x1E960, size: 0x8, addend: 0x0, symName: '__ZN4core5slice29_$LT$impl$u20$$u5b$T$u5d$$GT$22split_at_mut_unchecked18precondition_check17h7f4eb5e227cbda7eE', symObjAddr: 0x0, symBinAddr: 0x11FD8, symSize: 0x60 }
  - { offset: 0x1E981, size: 0x8, addend: 0x0, symName: '__ZN4core5slice29_$LT$impl$u20$$u5b$T$u5d$$GT$22split_at_mut_unchecked18precondition_check17h7f4eb5e227cbda7eE', symObjAddr: 0x0, symBinAddr: 0x11FD8, symSize: 0x60 }
  - { offset: 0x1EA2B, size: 0x8, addend: 0x0, symName: __ZN8pyo3_ffi7cpython10listobject15PyList_SET_ITEM17h11c9350cbe225a46E, symObjAddr: 0x0, symBinAddr: 0x12038, symSize: 0x110 }
  - { offset: 0x1EFE2, size: 0x8, addend: 0x0, symName: __ZN8pyo3_ffi7cpython10listobject15PyList_SET_ITEM17h11c9350cbe225a46E, symObjAddr: 0x0, symBinAddr: 0x12038, symSize: 0x110 }
  - { offset: 0x1FF90, size: 0x8, addend: 0x0, symName: __ZN4pyo35types10typeobject6PyType11as_type_ptr17hc47bd458471da77eE, symObjAddr: 0x0, symBinAddr: 0x12148, symSize: 0x28 }
  - { offset: 0x21041, size: 0x8, addend: 0x0, symName: '__ZN75_$LT$pyo3..types..typeobject..PyType$u20$as$u20$core..ops..deref..Deref$GT$5deref17h809ca10102f4c8abE', symObjAddr: 0x28, symBinAddr: 0x12170, symSize: 0x14 }
  - { offset: 0x214DD, size: 0x8, addend: 0x0, symName: __ZN4pyo35types10typeobject6PyType11as_type_ptr17hc47bd458471da77eE, symObjAddr: 0x0, symBinAddr: 0x12148, symSize: 0x28 }
  - { offset: 0x2152A, size: 0x8, addend: 0x0, symName: '__ZN4pyo311conversions3std6string119_$LT$impl$u20$pyo3..conversion..IntoPy$LT$pyo3..instance..Py$LT$pyo3..types..any..PyAny$GT$$GT$$u20$for$u20$$RF$str$GT$7into_py17ha17982014e34ebb2E', symObjAddr: 0x0, symBinAddr: 0x12184, symSize: 0x34 }
  - { offset: 0x226F1, size: 0x8, addend: 0x0, symName: '__ZN4pyo311conversions3std6string119_$LT$impl$u20$pyo3..conversion..IntoPy$LT$pyo3..instance..Py$LT$pyo3..types..any..PyAny$GT$$GT$$u20$for$u20$$RF$str$GT$7into_py17ha17982014e34ebb2E', symObjAddr: 0x0, symBinAddr: 0x12184, symSize: 0x34 }
  - { offset: 0x22CD7, size: 0x8, addend: 0x0, symName: '__ZN136_$LT$core..result..Result$LT$V$C$E$GT$$u20$as$u20$core..iter..traits..collect..FromIterator$LT$core..result..Result$LT$A$C$E$GT$$GT$$GT$9from_iter17hd43005ff8cef15adE', symObjAddr: 0x0, symBinAddr: 0x121B8, symSize: 0x38 }
  - { offset: 0x2353D, size: 0x8, addend: 0x0, symName: '__ZN136_$LT$core..result..Result$LT$V$C$E$GT$$u20$as$u20$core..iter..traits..collect..FromIterator$LT$core..result..Result$LT$A$C$E$GT$$GT$$GT$9from_iter17hd43005ff8cef15adE', symObjAddr: 0x0, symBinAddr: 0x121B8, symSize: 0x38 }
  - { offset: 0x23594, size: 0x8, addend: 0x0, symName: '__ZN136_$LT$core..result..Result$LT$V$C$E$GT$$u20$as$u20$core..iter..traits..collect..FromIterator$LT$core..result..Result$LT$A$C$E$GT$$GT$$GT$9from_iter28_$u7b$$u7b$closure$u7d$$u7d$17h105e2433a12a7e29E', symObjAddr: 0x38, symBinAddr: 0x121F0, symSize: 0x28 }
  - { offset: 0x23711, size: 0x8, addend: 0x0, symName: '__ZN153_$LT$core..result..Result$LT$T$C$F$GT$$u20$as$u20$core..ops..try_trait..FromResidual$LT$core..result..Result$LT$core..convert..Infallible$C$E$GT$$GT$$GT$13from_residual17h0b62bb1b90470f3dE', symObjAddr: 0x60, symBinAddr: 0x12218, symSize: 0x48 }
  - { offset: 0x23796, size: 0x8, addend: 0x0, symName: '__ZN153_$LT$core..result..Result$LT$T$C$F$GT$$u20$as$u20$core..ops..try_trait..FromResidual$LT$core..result..Result$LT$core..convert..Infallible$C$E$GT$$GT$$GT$13from_residual17h2f56b7010f7b5333E', symObjAddr: 0xA8, symBinAddr: 0x12260, symSize: 0x50 }
  - { offset: 0x237FD, size: 0x8, addend: 0x0, symName: '__ZN153_$LT$core..result..Result$LT$T$C$F$GT$$u20$as$u20$core..ops..try_trait..FromResidual$LT$core..result..Result$LT$core..convert..Infallible$C$E$GT$$GT$$GT$13from_residual17h6d7e2db1350c9a08E', symObjAddr: 0xF8, symBinAddr: 0x122B0, symSize: 0x48 }
  - { offset: 0x23882, size: 0x8, addend: 0x0, symName: '__ZN153_$LT$core..result..Result$LT$T$C$F$GT$$u20$as$u20$core..ops..try_trait..FromResidual$LT$core..result..Result$LT$core..convert..Infallible$C$E$GT$$GT$$GT$13from_residual17h87571693099a72b7E', symObjAddr: 0x140, symBinAddr: 0x122F8, symSize: 0x40 }
  - { offset: 0x23907, size: 0x8, addend: 0x0, symName: '__ZN153_$LT$core..result..Result$LT$T$C$F$GT$$u20$as$u20$core..ops..try_trait..FromResidual$LT$core..result..Result$LT$core..convert..Infallible$C$E$GT$$GT$$GT$13from_residual17h966b56fff17e5848E', symObjAddr: 0x180, symBinAddr: 0x12338, symSize: 0x48 }
  - { offset: 0x2398C, size: 0x8, addend: 0x0, symName: '__ZN153_$LT$core..result..Result$LT$T$C$F$GT$$u20$as$u20$core..ops..try_trait..FromResidual$LT$core..result..Result$LT$core..convert..Infallible$C$E$GT$$GT$$GT$13from_residual17ha02e6550c0f92238E', symObjAddr: 0x1C8, symBinAddr: 0x12380, symSize: 0x48 }
  - { offset: 0x23A11, size: 0x8, addend: 0x0, symName: '__ZN153_$LT$core..result..Result$LT$T$C$F$GT$$u20$as$u20$core..ops..try_trait..FromResidual$LT$core..result..Result$LT$core..convert..Infallible$C$E$GT$$GT$$GT$13from_residual17hb63dc9296ebee59bE', symObjAddr: 0x210, symBinAddr: 0x123C8, symSize: 0x58 }
  - { offset: 0x23A79, size: 0x8, addend: 0x0, symName: '__ZN153_$LT$core..result..Result$LT$T$C$F$GT$$u20$as$u20$core..ops..try_trait..FromResidual$LT$core..result..Result$LT$core..convert..Infallible$C$E$GT$$GT$$GT$13from_residual17hb65be077292afe11E', symObjAddr: 0x268, symBinAddr: 0x12420, symSize: 0x48 }
  - { offset: 0x23AFE, size: 0x8, addend: 0x0, symName: '__ZN153_$LT$core..result..Result$LT$T$C$F$GT$$u20$as$u20$core..ops..try_trait..FromResidual$LT$core..result..Result$LT$core..convert..Infallible$C$E$GT$$GT$$GT$13from_residual17hc4fdedcb8979f387E', symObjAddr: 0x2B0, symBinAddr: 0x12468, symSize: 0x58 }
  - { offset: 0x23B66, size: 0x8, addend: 0x0, symName: '__ZN153_$LT$core..result..Result$LT$T$C$F$GT$$u20$as$u20$core..ops..try_trait..FromResidual$LT$core..result..Result$LT$core..convert..Infallible$C$E$GT$$GT$$GT$13from_residual17hcab6300df498b9baE', symObjAddr: 0x308, symBinAddr: 0x124C0, symSize: 0x48 }
  - { offset: 0x23BEB, size: 0x8, addend: 0x0, symName: '__ZN153_$LT$core..result..Result$LT$T$C$F$GT$$u20$as$u20$core..ops..try_trait..FromResidual$LT$core..result..Result$LT$core..convert..Infallible$C$E$GT$$GT$$GT$13from_residual17hea0d72680d4b1634E', symObjAddr: 0x350, symBinAddr: 0x12508, symSize: 0x48 }
  - { offset: 0x23C70, size: 0x8, addend: 0x0, symName: '__ZN153_$LT$core..result..Result$LT$T$C$F$GT$$u20$as$u20$core..ops..try_trait..FromResidual$LT$core..result..Result$LT$core..convert..Infallible$C$E$GT$$GT$$GT$13from_residual17hf652cc8a73a1ba08E', symObjAddr: 0x398, symBinAddr: 0x12550, symSize: 0x48 }
  - { offset: 0x24E28, size: 0x8, addend: 0x0, symName: '__ZN79_$LT$core..result..Result$LT$T$C$E$GT$$u20$as$u20$core..ops..try_trait..Try$GT$11from_output17h1533f1fd3c514c92E', symObjAddr: 0xE84, symBinAddr: 0x1303C, symSize: 0x18 }
  - { offset: 0x24E68, size: 0x8, addend: 0x0, symName: '__ZN79_$LT$core..result..Result$LT$T$C$E$GT$$u20$as$u20$core..ops..try_trait..Try$GT$6branch17h038a7e6e59d057c2E', symObjAddr: 0xE9C, symBinAddr: 0x13054, symSize: 0x8C }
  - { offset: 0x24EE6, size: 0x8, addend: 0x0, symName: '__ZN79_$LT$core..result..Result$LT$T$C$E$GT$$u20$as$u20$core..ops..try_trait..Try$GT$6branch17h14969b5c84de4f65E', symObjAddr: 0xF28, symBinAddr: 0x130E0, symSize: 0xB0 }
  - { offset: 0x24F63, size: 0x8, addend: 0x0, symName: '__ZN79_$LT$core..result..Result$LT$T$C$E$GT$$u20$as$u20$core..ops..try_trait..Try$GT$6branch17h1c8530a3fc993bdeE', symObjAddr: 0xFD8, symBinAddr: 0x13190, symSize: 0x88 }
  - { offset: 0x24FE1, size: 0x8, addend: 0x0, symName: '__ZN79_$LT$core..result..Result$LT$T$C$E$GT$$u20$as$u20$core..ops..try_trait..Try$GT$6branch17h26d984a67063998aE', symObjAddr: 0x1060, symBinAddr: 0x13218, symSize: 0x80 }
  - { offset: 0x2505F, size: 0x8, addend: 0x0, symName: '__ZN79_$LT$core..result..Result$LT$T$C$E$GT$$u20$as$u20$core..ops..try_trait..Try$GT$6branch17h33de157d86f6fb54E', symObjAddr: 0x10E0, symBinAddr: 0x13298, symSize: 0x94 }
  - { offset: 0x250DC, size: 0x8, addend: 0x0, symName: '__ZN79_$LT$core..result..Result$LT$T$C$E$GT$$u20$as$u20$core..ops..try_trait..Try$GT$6branch17h38e5d46aeaf751e2E', symObjAddr: 0x1174, symBinAddr: 0x1332C, symSize: 0x80 }
  - { offset: 0x2515A, size: 0x8, addend: 0x0, symName: '__ZN79_$LT$core..result..Result$LT$T$C$E$GT$$u20$as$u20$core..ops..try_trait..Try$GT$6branch17h4043893262270da4E', symObjAddr: 0x11F4, symBinAddr: 0x133AC, symSize: 0xA0 }
  - { offset: 0x251D7, size: 0x8, addend: 0x0, symName: '__ZN79_$LT$core..result..Result$LT$T$C$E$GT$$u20$as$u20$core..ops..try_trait..Try$GT$6branch17h48c9411ef1f70feaE', symObjAddr: 0x1294, symBinAddr: 0x1344C, symSize: 0x94 }
  - { offset: 0x25255, size: 0x8, addend: 0x0, symName: '__ZN79_$LT$core..result..Result$LT$T$C$E$GT$$u20$as$u20$core..ops..try_trait..Try$GT$6branch17h63da1661c9b4b684E', symObjAddr: 0x1328, symBinAddr: 0x134E0, symSize: 0x80 }
  - { offset: 0x252D3, size: 0x8, addend: 0x0, symName: '__ZN79_$LT$core..result..Result$LT$T$C$E$GT$$u20$as$u20$core..ops..try_trait..Try$GT$6branch17h73007b30cc3a691eE', symObjAddr: 0x13A8, symBinAddr: 0x13560, symSize: 0x68 }
  - { offset: 0x25350, size: 0x8, addend: 0x0, symName: '__ZN79_$LT$core..result..Result$LT$T$C$E$GT$$u20$as$u20$core..ops..try_trait..Try$GT$6branch17h881daa6c8bc78ec2E', symObjAddr: 0x1410, symBinAddr: 0x135C8, symSize: 0x88 }
  - { offset: 0x253CD, size: 0x8, addend: 0x0, symName: '__ZN79_$LT$core..result..Result$LT$T$C$E$GT$$u20$as$u20$core..ops..try_trait..Try$GT$6branch17h8b46f02587647a1cE', symObjAddr: 0x1498, symBinAddr: 0x13650, symSize: 0x94 }
  - { offset: 0x2544A, size: 0x8, addend: 0x0, symName: '__ZN79_$LT$core..result..Result$LT$T$C$E$GT$$u20$as$u20$core..ops..try_trait..Try$GT$6branch17haa4fa161404114f4E', symObjAddr: 0x152C, symBinAddr: 0x136E4, symSize: 0x80 }
  - { offset: 0x254C8, size: 0x8, addend: 0x0, symName: '__ZN79_$LT$core..result..Result$LT$T$C$E$GT$$u20$as$u20$core..ops..try_trait..Try$GT$6branch17hac5f62432f2d523dE', symObjAddr: 0x15AC, symBinAddr: 0x13764, symSize: 0x70 }
  - { offset: 0x25546, size: 0x8, addend: 0x0, symName: '__ZN79_$LT$core..result..Result$LT$T$C$E$GT$$u20$as$u20$core..ops..try_trait..Try$GT$6branch17had961b491f128181E', symObjAddr: 0x161C, symBinAddr: 0x137D4, symSize: 0x80 }
  - { offset: 0x255C4, size: 0x8, addend: 0x0, symName: '__ZN79_$LT$core..result..Result$LT$T$C$E$GT$$u20$as$u20$core..ops..try_trait..Try$GT$6branch17haf0bde8c499f19c1E', symObjAddr: 0x169C, symBinAddr: 0x13854, symSize: 0x88 }
  - { offset: 0x25641, size: 0x8, addend: 0x0, symName: '__ZN79_$LT$core..result..Result$LT$T$C$E$GT$$u20$as$u20$core..ops..try_trait..Try$GT$6branch17hbcd3a503260239a2E', symObjAddr: 0x1724, symBinAddr: 0x138DC, symSize: 0x80 }
  - { offset: 0x256BF, size: 0x8, addend: 0x0, symName: '__ZN79_$LT$core..result..Result$LT$T$C$E$GT$$u20$as$u20$core..ops..try_trait..Try$GT$6branch17hbf305f07b1ddc042E', symObjAddr: 0x17A4, symBinAddr: 0x1395C, symSize: 0x88 }
  - { offset: 0x2573D, size: 0x8, addend: 0x0, symName: '__ZN79_$LT$core..result..Result$LT$T$C$E$GT$$u20$as$u20$core..ops..try_trait..Try$GT$6branch17hc59647d6856ed507E', symObjAddr: 0x182C, symBinAddr: 0x139E4, symSize: 0x88 }
  - { offset: 0x257BB, size: 0x8, addend: 0x0, symName: '__ZN79_$LT$core..result..Result$LT$T$C$E$GT$$u20$as$u20$core..ops..try_trait..Try$GT$6branch17hd46b40995c3e02c2E', symObjAddr: 0x18B4, symBinAddr: 0x13A6C, symSize: 0x78 }
  - { offset: 0x25839, size: 0x8, addend: 0x0, symName: '__ZN79_$LT$core..result..Result$LT$T$C$E$GT$$u20$as$u20$core..ops..try_trait..Try$GT$6branch17hd59899d7c582c25aE', symObjAddr: 0x192C, symBinAddr: 0x13AE4, symSize: 0x88 }
  - { offset: 0x258B7, size: 0x8, addend: 0x0, symName: '__ZN79_$LT$core..result..Result$LT$T$C$E$GT$$u20$as$u20$core..ops..try_trait..Try$GT$6branch17hf637731dfbc26fdeE', symObjAddr: 0x19B4, symBinAddr: 0x13B6C, symSize: 0x88 }
  - { offset: 0x29195, size: 0x8, addend: 0x0, symName: '__ZN4core6result19Result$LT$T$C$E$GT$14unwrap_or_else17h342be1d9c1fcfdabE', symObjAddr: 0x3E0, symBinAddr: 0x12598, symSize: 0x70 }
  - { offset: 0x29253, size: 0x8, addend: 0x0, symName: '__ZN4core6result19Result$LT$T$C$E$GT$14unwrap_or_else17h42b102cb6f09e9b2E', symObjAddr: 0x450, symBinAddr: 0x12608, symSize: 0x7C }
  - { offset: 0x292BF, size: 0x8, addend: 0x0, symName: '__ZN4core6result19Result$LT$T$C$E$GT$2ok17h0b3e4715c97dcc96E', symObjAddr: 0x4CC, symBinAddr: 0x12684, symSize: 0xA4 }
  - { offset: 0x295C1, size: 0x8, addend: 0x0, symName: '__ZN4core6result19Result$LT$T$C$E$GT$3map17h1e3a89775168bf2bE', symObjAddr: 0x570, symBinAddr: 0x12728, symSize: 0x80 }
  - { offset: 0x296BE, size: 0x8, addend: 0x0, symName: '__ZN4core6result19Result$LT$T$C$E$GT$3map17h2d0897961dd66416E', symObjAddr: 0x5F0, symBinAddr: 0x127A8, symSize: 0x84 }
  - { offset: 0x2975E, size: 0x8, addend: 0x0, symName: '__ZN4core6result19Result$LT$T$C$E$GT$3map17h4c29ce18d54a8a25E', symObjAddr: 0x674, symBinAddr: 0x1282C, symSize: 0x4C }
  - { offset: 0x29808, size: 0x8, addend: 0x0, symName: '__ZN4core6result19Result$LT$T$C$E$GT$3map17h8c4a2672b6796bb7E', symObjAddr: 0x6C0, symBinAddr: 0x12878, symSize: 0x80 }
  - { offset: 0x298B3, size: 0x8, addend: 0x0, symName: '__ZN4core6result19Result$LT$T$C$E$GT$3map17h95d5ae0bdd54d325E', symObjAddr: 0x740, symBinAddr: 0x128F8, symSize: 0x78 }
  - { offset: 0x2995E, size: 0x8, addend: 0x0, symName: '__ZN4core6result19Result$LT$T$C$E$GT$3map17hb315ba9f19a73d78E', symObjAddr: 0x7B8, symBinAddr: 0x12970, symSize: 0x84 }
  - { offset: 0x299F1, size: 0x8, addend: 0x0, symName: '__ZN4core6result19Result$LT$T$C$E$GT$3map17hec9b0d149387d095E', symObjAddr: 0x83C, symBinAddr: 0x129F4, symSize: 0x80 }
  - { offset: 0x29AB6, size: 0x8, addend: 0x0, symName: '__ZN4core6result19Result$LT$T$C$E$GT$6is_err17hec6f38fc7cfd7922E', symObjAddr: 0x8BC, symBinAddr: 0x12A74, symSize: 0x20 }
  - { offset: 0x29B09, size: 0x8, addend: 0x0, symName: '__ZN4core6result19Result$LT$T$C$E$GT$7map_err17h00d6eaf4404038fdE', symObjAddr: 0x8DC, symBinAddr: 0x12A94, symSize: 0x94 }
  - { offset: 0x29BA9, size: 0x8, addend: 0x0, symName: '__ZN4core6result19Result$LT$T$C$E$GT$7map_err17h08a8c2130d621513E', symObjAddr: 0x970, symBinAddr: 0x12B28, symSize: 0xA0 }
  - { offset: 0x29C3C, size: 0x8, addend: 0x0, symName: '__ZN4core6result19Result$LT$T$C$E$GT$7map_err17h1cf09f925a1a2ba1E', symObjAddr: 0xA10, symBinAddr: 0x12BC8, symSize: 0x9C }
  - { offset: 0x29CCF, size: 0x8, addend: 0x0, symName: '__ZN4core6result19Result$LT$T$C$E$GT$7map_err17h2f6abdde82afc619E', symObjAddr: 0xAAC, symBinAddr: 0x12C64, symSize: 0xA8 }
  - { offset: 0x29D7A, size: 0x8, addend: 0x0, symName: '__ZN4core6result19Result$LT$T$C$E$GT$7map_err17h47c00b1cfe580c50E', symObjAddr: 0xB54, symBinAddr: 0x12D0C, symSize: 0x98 }
  - { offset: 0x29E0D, size: 0x8, addend: 0x0, symName: '__ZN4core6result19Result$LT$T$C$E$GT$7map_err17h7d2d6675da8ee34bE', symObjAddr: 0xBEC, symBinAddr: 0x12DA4, symSize: 0xAC }
  - { offset: 0x29EA0, size: 0x8, addend: 0x0, symName: '__ZN4core6result19Result$LT$T$C$E$GT$7map_err17h9c4ad0e2954a0fdfE', symObjAddr: 0xC98, symBinAddr: 0x12E50, symSize: 0x84 }
  - { offset: 0x29F33, size: 0x8, addend: 0x0, symName: '__ZN4core6result19Result$LT$T$C$E$GT$7map_err17hc30b95b5ed3ea04bE', symObjAddr: 0xD1C, symBinAddr: 0x12ED4, symSize: 0x84 }
  - { offset: 0x29FDE, size: 0x8, addend: 0x0, symName: '__ZN4core6result19Result$LT$T$C$E$GT$7map_err17hff84199b9b356be1E', symObjAddr: 0xDA0, symBinAddr: 0x12F58, symSize: 0x78 }
  - { offset: 0x2A070, size: 0x8, addend: 0x0, symName: '__ZN4core6result19Result$LT$T$C$E$GT$9unwrap_or17h3cf64fe5c8de1819E', symObjAddr: 0xE18, symBinAddr: 0x12FD0, symSize: 0x6C }
  - { offset: 0x2A143, size: 0x8, addend: 0x0, symName: '__ZN4core3cmp5impls59_$LT$impl$u20$core..cmp..PartialEq$u20$for$u20$$LP$$RP$$GT$2eq17h9cbf45c6fdca6ac9E', symObjAddr: 0x0, symBinAddr: 0x13BF4, symSize: 0x1C }
  - { offset: 0x2A164, size: 0x8, addend: 0x0, symName: '__ZN4core3cmp5impls59_$LT$impl$u20$core..cmp..PartialEq$u20$for$u20$$LP$$RP$$GT$2eq17h9cbf45c6fdca6ac9E', symObjAddr: 0x0, symBinAddr: 0x13BF4, symSize: 0x1C }
  - { offset: 0x2A1DE, size: 0x8, addend: 0x0, symName: __ZN8pyo3_ffi13unicodeobject15PyUnicode_Check17h5b6b6d5679690c1dE, symObjAddr: 0x0, symBinAddr: 0x13C10, symSize: 0x30 }
  - { offset: 0x2A25B, size: 0x8, addend: 0x0, symName: __ZN8pyo3_ffi13unicodeobject15PyUnicode_Check17h5b6b6d5679690c1dE, symObjAddr: 0x0, symBinAddr: 0x13C10, symSize: 0x30 }
  - { offset: 0x2B6C1, size: 0x8, addend: 0x0, symName: '__ZN5alloc4sync12Arc$LT$T$GT$3new17h4a3b3cbc7e63cdddE', symObjAddr: 0x0, symBinAddr: 0x13C40, symSize: 0xC8 }
  - { offset: 0x2BCAB, size: 0x8, addend: 0x0, symName: '__ZN68_$LT$alloc..sync..Arc$LT$T$C$A$GT$$u20$as$u20$core..clone..Clone$GT$5clone17h5ce270216bb5608fE', symObjAddr: 0x16C, symBinAddr: 0x13DAC, symSize: 0x84 }
  - { offset: 0x2BDA4, size: 0x8, addend: 0x0, symName: '__ZN73_$LT$alloc..sync..Arc$LT$T$C$A$GT$$u20$as$u20$core..ops..deref..Deref$GT$5deref17h8a496c86b2e9f6e2E', symObjAddr: 0x1F0, symBinAddr: 0x13E30, symSize: 0x1C }
  - { offset: 0x2C605, size: 0x8, addend: 0x0, symName: '__ZN5alloc4sync12Arc$LT$T$GT$3new17h4a3b3cbc7e63cdddE', symObjAddr: 0x0, symBinAddr: 0x13C40, symSize: 0xC8 }
  - { offset: 0x2C7CB, size: 0x8, addend: 0x0, symName: '__ZN5alloc4sync12Arc$LT$T$GT$8into_raw17ha2c7b81cfc2b0adcE', symObjAddr: 0xC8, symBinAddr: 0x13D08, symSize: 0x30 }
  - { offset: 0x2C819, size: 0x8, addend: 0x0, symName: '__ZN5alloc4sync16Arc$LT$T$C$A$GT$9drop_slow17hb2289188059abea5E', symObjAddr: 0xF8, symBinAddr: 0x13D38, symSize: 0x74 }
  - { offset: 0x2C9A5, size: 0x8, addend: 0x0, symName: '__ZN4core3mem13manually_drop21ManuallyDrop$LT$T$GT$4drop17hbb01b78ce73ae8eeE', symObjAddr: 0x0, symBinAddr: 0x13E4C, symSize: 0x20 }
  - { offset: 0x2D423, size: 0x8, addend: 0x0, symName: '__ZN4core3mem13manually_drop21ManuallyDrop$LT$T$GT$4drop17hbb01b78ce73ae8eeE', symObjAddr: 0x0, symBinAddr: 0x13E4C, symSize: 0x20 }
  - { offset: 0x2D46D, size: 0x8, addend: 0x0, symName: __ZN4pyo35impl_5panic9PanicTrap3new17h803c89398f8dbb2aE, symObjAddr: 0x0, symBinAddr: 0x13E6C, symSize: 0x18 }
  - { offset: 0x2D4FC, size: 0x8, addend: 0x0, symName: __ZN4pyo35impl_5panic9PanicTrap3new17h803c89398f8dbb2aE, symObjAddr: 0x0, symBinAddr: 0x13E6C, symSize: 0x18 }
  - { offset: 0x2D51E, size: 0x8, addend: 0x0, symName: __ZN4pyo35impl_5panic9PanicTrap6disarm17h198a120146193acdE, symObjAddr: 0x18, symBinAddr: 0x13E84, symSize: 0x28 }
  - { offset: 0x2D55E, size: 0x8, addend: 0x0, symName: '__ZN106_$LT$core..iter..adapters..GenericShunt$LT$I$C$R$GT$$u20$as$u20$core..iter..traits..iterator..Iterator$GT$4next17h232bad608938da53E', symObjAddr: 0x0, symBinAddr: 0x13EAC, symSize: 0xA0 }
  - { offset: 0x2DD6D, size: 0x8, addend: 0x0, symName: '__ZN63_$LT$I$u20$as$u20$core..iter..traits..collect..IntoIterator$GT$9into_iter17h8267dbcf2a0eb386E', symObjAddr: 0x548, symBinAddr: 0x143F4, symSize: 0x18 }
  - { offset: 0x2DE1D, size: 0x8, addend: 0x0, symName: '__ZN106_$LT$core..iter..adapters..GenericShunt$LT$I$C$R$GT$$u20$as$u20$core..iter..traits..iterator..Iterator$GT$4next17h232bad608938da53E', symObjAddr: 0x0, symBinAddr: 0x13EAC, symSize: 0xA0 }
  - { offset: 0x2DEAF, size: 0x8, addend: 0x0, symName: '__ZN106_$LT$core..iter..adapters..GenericShunt$LT$I$C$R$GT$$u20$as$u20$core..iter..traits..iterator..Iterator$GT$8try_fold17h1973a2d30d40fbb5E', symObjAddr: 0xA0, symBinAddr: 0x13F4C, symSize: 0x94 }
  - { offset: 0x2DF60, size: 0x8, addend: 0x0, symName: '__ZN106_$LT$core..iter..adapters..GenericShunt$LT$I$C$R$GT$$u20$as$u20$core..iter..traits..iterator..Iterator$GT$8try_fold28_$u7b$$u7b$closure$u7d$$u7d$17h76c307401e69e1fcE', symObjAddr: 0x134, symBinAddr: 0x13FE0, symSize: 0x1EC }
  - { offset: 0x2E05C, size: 0x8, addend: 0x0, symName: '__ZN106_$LT$core..iter..adapters..GenericShunt$LT$I$C$R$GT$$u20$as$u20$core..iter..traits..iterator..Iterator$GT$9size_hint17h610f0eff8fab83caE', symObjAddr: 0x320, symBinAddr: 0x141CC, symSize: 0xA8 }
  - { offset: 0x2E0D5, size: 0x8, addend: 0x0, symName: __ZN4core4iter8adapters11try_process17h5c5492738ae5c90cE, symObjAddr: 0x3C8, symBinAddr: 0x14274, symSize: 0x180 }
  - { offset: 0x2F9CD, size: 0x8, addend: 0x0, symName: '__ZN4core3str21_$LT$impl$u20$str$GT$4trim17h31efd67021123469E', symObjAddr: 0x0, symBinAddr: 0x1440C, symSize: 0x28 }
  - { offset: 0x2F9E9, size: 0x8, addend: 0x0, symName: '__ZN4core3str21_$LT$impl$u20$str$GT$4trim17h31efd67021123469E', symObjAddr: 0x0, symBinAddr: 0x1440C, symSize: 0x28 }
  - { offset: 0x2FA17, size: 0x8, addend: 0x0, symName: '__ZN4core3str21_$LT$impl$u20$str$GT$5chars17h7967b88c65e7c653E', symObjAddr: 0x28, symBinAddr: 0x14434, symSize: 0x20 }
  - { offset: 0x2FC35, size: 0x8, addend: 0x0, symName: __ZN4pyo38callback7convert17h7002fe5c79bec41aE, symObjAddr: 0x0, symBinAddr: 0x14454, symSize: 0x34 }
  - { offset: 0x3106B, size: 0x8, addend: 0x0, symName: __ZN4pyo38callback7convert17h7002fe5c79bec41aE, symObjAddr: 0x0, symBinAddr: 0x14454, symSize: 0x34 }
  - { offset: 0x31921, size: 0x8, addend: 0x0, symName: '__ZN4pyo34sync20GILOnceCell$LT$T$GT$15get_or_try_init17h29931cb7520272edE', symObjAddr: 0x0, symBinAddr: 0x14488, symSize: 0xB4 }
  - { offset: 0x338E6, size: 0x8, addend: 0x0, symName: '__ZN4pyo34sync20GILOnceCell$LT$T$GT$15get_or_try_init17h29931cb7520272edE', symObjAddr: 0x0, symBinAddr: 0x14488, symSize: 0xB4 }
  - { offset: 0x3395F, size: 0x8, addend: 0x0, symName: '__ZN4pyo34sync20GILOnceCell$LT$T$GT$3get17h672263e95c5f801fE', symObjAddr: 0xB4, symBinAddr: 0x1453C, symSize: 0x70 }
  - { offset: 0x339E0, size: 0x8, addend: 0x0, symName: '__ZN4pyo34sync20GILOnceCell$LT$T$GT$3set17h7957a803e46dd329E', symObjAddr: 0x124, symBinAddr: 0x145AC, symSize: 0x194 }
  - { offset: 0x33AD9, size: 0x8, addend: 0x0, symName: '__ZN4pyo34sync20GILOnceCell$LT$T$GT$4init17he85f359df36356faE', symObjAddr: 0x2B8, symBinAddr: 0xA21C4, symSize: 0x190 }
  - { offset: 0x33BDA, size: 0x8, addend: 0x0, symName: __ZN4pyo35types4list13new_from_iter17h8beb931c980bea2cE, symObjAddr: 0x0, symBinAddr: 0x14740, symSize: 0x2A0 }
  - { offset: 0x34E09, size: 0x8, addend: 0x0, symName: __ZN4pyo35types4list13new_from_iter17h8beb931c980bea2cE, symObjAddr: 0x0, symBinAddr: 0x14740, symSize: 0x2A0 }
  - { offset: 0x34F12, size: 0x8, addend: 0x0, symName: '__ZN69_$LT$pyo3..types..list..PyList$u20$as$u20$core..ops..deref..Deref$GT$5deref17h2dd10997a43cad5aE', symObjAddr: 0x2A0, symBinAddr: 0x149E0, symSize: 0x14 }
  - { offset: 0x34F44, size: 0x8, addend: 0x0, symName: '__ZN74_$LT$pyo3..types..list..PyList$u20$as$u20$pyo3..conversion..ToPyObject$GT$9to_object17h5a4d91339e1207fdE', symObjAddr: 0x2B4, symBinAddr: 0x149F4, symSize: 0x2C }
  - { offset: 0x355B1, size: 0x8, addend: 0x0, symName: '__ZN103_$LT$alloc..vec..into_iter..IntoIter$LT$T$C$A$GT$$u20$as$u20$core..iter..traits..iterator..Iterator$GT$4next17h4b6e8d30f4dd63aaE', symObjAddr: 0x0, symBinAddr: 0x14A20, symSize: 0xBC }
  - { offset: 0x374F0, size: 0x8, addend: 0x0, symName: __ZN4core4iter6traits10exact_size17ExactSizeIterator3len17h18837be2d0bfe6f9E, symObjAddr: 0x5BC, symBinAddr: 0x14FDC, symSize: 0xB8 }
  - { offset: 0x37772, size: 0x8, addend: 0x0, symName: __ZN4core4iter6traits8iterator8Iterator3map17h38a244323efcb4c0E, symObjAddr: 0x674, symBinAddr: 0x15094, symSize: 0x28 }
  - { offset: 0x37990, size: 0x8, addend: 0x0, symName: '__ZN103_$LT$alloc..vec..into_iter..IntoIter$LT$T$C$A$GT$$u20$as$u20$core..iter..traits..iterator..Iterator$GT$4next17h4b6e8d30f4dd63aaE', symObjAddr: 0x0, symBinAddr: 0x14A20, symSize: 0xBC }
  - { offset: 0x37AE8, size: 0x8, addend: 0x0, symName: '__ZN103_$LT$alloc..vec..into_iter..IntoIter$LT$T$C$A$GT$$u20$as$u20$core..iter..traits..iterator..Iterator$GT$4next17h5d4efccd27e63bb0E', symObjAddr: 0xBC, symBinAddr: 0x14ADC, symSize: 0xAC }
  - { offset: 0x37C46, size: 0x8, addend: 0x0, symName: '__ZN103_$LT$alloc..vec..into_iter..IntoIter$LT$T$C$A$GT$$u20$as$u20$core..iter..traits..iterator..Iterator$GT$4next17h8246bcea9b453e9aE', symObjAddr: 0x168, symBinAddr: 0x14B88, symSize: 0x88 }
  - { offset: 0x37DA0, size: 0x8, addend: 0x0, symName: '__ZN103_$LT$alloc..vec..into_iter..IntoIter$LT$T$C$A$GT$$u20$as$u20$core..iter..traits..iterator..Iterator$GT$8try_fold17h57ff31750d438efbE', symObjAddr: 0x1F0, symBinAddr: 0x14C10, symSize: 0x174 }
  - { offset: 0x37F77, size: 0x8, addend: 0x0, symName: '__ZN103_$LT$alloc..vec..into_iter..IntoIter$LT$T$C$A$GT$$u20$as$u20$core..iter..traits..iterator..Iterator$GT$9size_hint17h1ac22dc677d11e76E', symObjAddr: 0x364, symBinAddr: 0x14D84, symSize: 0xB4 }
  - { offset: 0x38090, size: 0x8, addend: 0x0, symName: '__ZN103_$LT$alloc..vec..into_iter..IntoIter$LT$T$C$A$GT$$u20$as$u20$core..iter..traits..iterator..Iterator$GT$9size_hint17ha340d898e936c255E', symObjAddr: 0x418, symBinAddr: 0x14E38, symSize: 0xB4 }
  - { offset: 0x381A9, size: 0x8, addend: 0x0, symName: '__ZN103_$LT$alloc..vec..into_iter..IntoIter$LT$T$C$A$GT$$u20$as$u20$core..iter..traits..iterator..Iterator$GT$9size_hint17hb4c16639ed918c8aE', symObjAddr: 0x4CC, symBinAddr: 0x14EEC, symSize: 0xB4 }
  - { offset: 0x382C8, size: 0x8, addend: 0x0, symName: '__ZN114_$LT$alloc..vec..into_iter..IntoIter$LT$T$C$A$GT$$u20$as$u20$core..iter..traits..exact_size..ExactSizeIterator$GT$8is_empty17h348ce94365d70a52E', symObjAddr: 0x580, symBinAddr: 0x14FA0, symSize: 0x3C }
  - { offset: 0x38FA9, size: 0x8, addend: 0x0, symName: '__ZN5alloc3vec9into_iter21IntoIter$LT$T$C$A$GT$16as_raw_mut_slice17h4e110d3b35f5c6a1E', symObjAddr: 0x69C, symBinAddr: 0x150BC, symSize: 0xCC }
  - { offset: 0x390F9, size: 0x8, addend: 0x0, symName: '__ZN5alloc3vec9into_iter21IntoIter$LT$T$C$A$GT$16as_raw_mut_slice17h84575b5a280a5ceaE', symObjAddr: 0x768, symBinAddr: 0x15188, symSize: 0xCC }
  - { offset: 0x39249, size: 0x8, addend: 0x0, symName: '__ZN5alloc3vec9into_iter21IntoIter$LT$T$C$A$GT$16as_raw_mut_slice17hf93b8cbdcc8608b4E', symObjAddr: 0x834, symBinAddr: 0x15254, symSize: 0xCC }
  - { offset: 0x393B9, size: 0x8, addend: 0x0, symName: '__ZN5alloc3vec16Vec$LT$T$C$A$GT$17from_raw_parts_in18precondition_check17h89a5d25319f7adf1E', symObjAddr: 0x0, symBinAddr: 0x15320, symSize: 0x60 }
  - { offset: 0x393DA, size: 0x8, addend: 0x0, symName: '__ZN5alloc3vec16Vec$LT$T$C$A$GT$17from_raw_parts_in18precondition_check17h89a5d25319f7adf1E', symObjAddr: 0x0, symBinAddr: 0x15320, symSize: 0x60 }
  - { offset: 0x39433, size: 0x8, addend: 0x0, symName: '__ZN5alloc3vec16Vec$LT$T$C$A$GT$7set_len18precondition_check17hf691fc5aca933fb7E', symObjAddr: 0x60, symBinAddr: 0x15380, symSize: 0x60 }
  - { offset: 0x394DD, size: 0x8, addend: 0x0, symName: __ZN4core4sync6atomic5fence17h6491a8dbdd7336abE, symObjAddr: 0x0, symBinAddr: 0x153E0, symSize: 0xB0 }
  - { offset: 0x39523, size: 0x8, addend: 0x0, symName: __ZN4core4sync6atomic5fence17h6491a8dbdd7336abE, symObjAddr: 0x0, symBinAddr: 0x153E0, symSize: 0xB0 }
  - { offset: 0x39575, size: 0x8, addend: 0x0, symName: __ZN4core3fmt2rt8Argument11new_display17h0c2a10a97f03f414E, symObjAddr: 0x0, symBinAddr: 0x15490, symSize: 0x2C }
  - { offset: 0x39840, size: 0x8, addend: 0x0, symName: __ZN4core3fmt2rt8Argument11new_display17h0c2a10a97f03f414E, symObjAddr: 0x0, symBinAddr: 0x15490, symSize: 0x2C }
  - { offset: 0x39878, size: 0x8, addend: 0x0, symName: __ZN4core3fmt2rt8Argument11new_display17h2e08edd422865f0cE, symObjAddr: 0x2C, symBinAddr: 0x154BC, symSize: 0x2C }
  - { offset: 0x398C1, size: 0x8, addend: 0x0, symName: '__ZN106_$LT$pyo3..impl_..extract_argument..NoVarargs$u20$as$u20$pyo3..impl_..extract_argument..VarargsHandler$GT$20handle_varargs_tuple17hc1ab6928344765f4E', symObjAddr: 0x0, symBinAddr: 0x154E8, symSize: 0x94 }
  - { offset: 0x3AF69, size: 0x8, addend: 0x0, symName: '__ZN106_$LT$pyo3..impl_..extract_argument..NoVarargs$u20$as$u20$pyo3..impl_..extract_argument..VarargsHandler$GT$20handle_varargs_tuple17hc1ab6928344765f4E', symObjAddr: 0x0, symBinAddr: 0x154E8, symSize: 0x94 }
  - { offset: 0x3AFE8, size: 0x8, addend: 0x0, symName: '__ZN114_$LT$pyo3..impl_..extract_argument..NoVarkeywords$u20$as$u20$pyo3..impl_..extract_argument..VarkeywordsHandler$GT$17handle_varkeyword17h500e963e7c1ba843E', symObjAddr: 0x94, symBinAddr: 0x1557C, symSize: 0x60 }
  - { offset: 0x3B3E1, size: 0x8, addend: 0x0, symName: __ZN4pyo35impl_16extract_argument19FunctionDescription36find_keyword_parameter_in_positional17h474f5b63387c8ebeE, symObjAddr: 0xF4, symBinAddr: 0x155DC, symSize: 0x5C }
  - { offset: 0x3B413, size: 0x8, addend: 0x0, symName: __ZN4pyo35impl_16extract_argument19FunctionDescription38find_keyword_parameter_in_keyword_only17h786c80eb4d8a0c46E, symObjAddr: 0x150, symBinAddr: 0x15638, symSize: 0x5C }
  - { offset: 0x3B912, size: 0x8, addend: 0x0, symName: __ZN4pyo35impl_16extract_argument19FunctionDescription44ensure_no_missing_required_keyword_arguments17hd01395c54ddfe1c8E, symObjAddr: 0x1AC, symBinAddr: 0x15694, symSize: 0x154 }
  - { offset: 0x3B9DE, size: 0x8, addend: 0x0, symName: __ZN4pyo35impl_16extract_argument19FunctionDescription47ensure_no_missing_required_positional_arguments17hcbe8656f5caa604eE, symObjAddr: 0x300, symBinAddr: 0x157E8, symSize: 0x190 }
  - { offset: 0x3BB65, size: 0x8, addend: 0x0, symName: '__ZN185_$LT$core..ops..control_flow..ControlFlow$LT$B$C$C$GT$$u20$as$u20$core..ops..try_trait..FromResidual$LT$core..ops..control_flow..ControlFlow$LT$B$C$core..convert..Infallible$GT$$GT$$GT$13from_residual17h2619601b61976fe6E', symObjAddr: 0x0, symBinAddr: 0x15978, symSize: 0x2C }
  - { offset: 0x3BB86, size: 0x8, addend: 0x0, symName: '__ZN185_$LT$core..ops..control_flow..ControlFlow$LT$B$C$C$GT$$u20$as$u20$core..ops..try_trait..FromResidual$LT$core..ops..control_flow..ControlFlow$LT$B$C$core..convert..Infallible$GT$$GT$$GT$13from_residual17h2619601b61976fe6E', symObjAddr: 0x0, symBinAddr: 0x15978, symSize: 0x2C }
  - { offset: 0x3BBC4, size: 0x8, addend: 0x0, symName: '__ZN185_$LT$core..ops..control_flow..ControlFlow$LT$B$C$C$GT$$u20$as$u20$core..ops..try_trait..FromResidual$LT$core..ops..control_flow..ControlFlow$LT$B$C$core..convert..Infallible$GT$$GT$$GT$13from_residual17h96f05717ec905e47E', symObjAddr: 0x2C, symBinAddr: 0x159A4, symSize: 0x14 }
  - { offset: 0x3BC02, size: 0x8, addend: 0x0, symName: '__ZN185_$LT$core..ops..control_flow..ControlFlow$LT$B$C$C$GT$$u20$as$u20$core..ops..try_trait..FromResidual$LT$core..ops..control_flow..ControlFlow$LT$B$C$core..convert..Infallible$GT$$GT$$GT$13from_residual17he24649cdddc70ee4E', symObjAddr: 0x40, symBinAddr: 0x159B8, symSize: 0x2C }
  - { offset: 0x3BC4B, size: 0x8, addend: 0x0, symName: __ZN4core3ops12control_flow11ControlFlow5Break17h5595b26d7b8486a8E, symObjAddr: 0x6C, symBinAddr: 0x159E4, symSize: 0x14 }
  - { offset: 0x3BC8C, size: 0x8, addend: 0x0, symName: '__ZN90_$LT$core..ops..control_flow..ControlFlow$LT$B$C$C$GT$$u20$as$u20$core..cmp..PartialEq$GT$2eq17he7ac729ab087fc34E', symObjAddr: 0x80, symBinAddr: 0x159F8, symSize: 0xCC }
  - { offset: 0x3BD88, size: 0x8, addend: 0x0, symName: '__ZN95_$LT$core..ops..control_flow..ControlFlow$LT$B$C$C$GT$$u20$as$u20$core..ops..try_trait..Try$GT$11from_output17h3b9ef30a9913a8fdE', symObjAddr: 0x14C, symBinAddr: 0x15AC4, symSize: 0x14 }
  - { offset: 0x3BDC6, size: 0x8, addend: 0x0, symName: '__ZN95_$LT$core..ops..control_flow..ControlFlow$LT$B$C$C$GT$$u20$as$u20$core..ops..try_trait..Try$GT$11from_output17h72b0f7d55d085581E', symObjAddr: 0x160, symBinAddr: 0x15AD8, symSize: 0x1C }
  - { offset: 0x3BE04, size: 0x8, addend: 0x0, symName: '__ZN95_$LT$core..ops..control_flow..ControlFlow$LT$B$C$C$GT$$u20$as$u20$core..ops..try_trait..Try$GT$11from_output17he83ef1194311754fE', symObjAddr: 0x17C, symBinAddr: 0x15AF4, symSize: 0x18 }
  - { offset: 0x3BE42, size: 0x8, addend: 0x0, symName: '__ZN95_$LT$core..ops..control_flow..ControlFlow$LT$B$C$C$GT$$u20$as$u20$core..ops..try_trait..Try$GT$6branch17h645c2472ae8ffa85E', symObjAddr: 0x194, symBinAddr: 0x15B0C, symSize: 0x78 }
  - { offset: 0x3BEBC, size: 0x8, addend: 0x0, symName: '__ZN95_$LT$core..ops..control_flow..ControlFlow$LT$B$C$C$GT$$u20$as$u20$core..ops..try_trait..Try$GT$6branch17hd059a7df15b179ffE', symObjAddr: 0x20C, symBinAddr: 0x15B84, symSize: 0x38 }
  - { offset: 0x3BF34, size: 0x8, addend: 0x0, symName: '__ZN95_$LT$core..ops..control_flow..ControlFlow$LT$B$C$C$GT$$u20$as$u20$core..ops..try_trait..Try$GT$6branch17hd8f961b71b7b8d5cE', symObjAddr: 0x244, symBinAddr: 0x15BBC, symSize: 0x80 }
  - { offset: 0x3C8E6, size: 0x8, addend: 0x0, symName: __ZN4pyo35types4list6PyList3new17hdef8b246052c360fE, symObjAddr: 0x0, symBinAddr: 0x15C3C, symSize: 0x88 }
  - { offset: 0x3D640, size: 0x8, addend: 0x0, symName: '__ZN4pyo35types4list6PyList3new28_$u7b$$u7b$closure$u7d$$u7d$17h14f546514fae69f7E', symObjAddr: 0x144, symBinAddr: 0x15D80, symSize: 0x50 }
  - { offset: 0x3D6A0, size: 0x8, addend: 0x0, symName: '__ZN4pyo35types4list6PyList3new28_$u7b$$u7b$closure$u7d$$u7d$17h1995cd8130dea7d8E', symObjAddr: 0x194, symBinAddr: 0x15DD0, symSize: 0x50 }
  - { offset: 0x3E658, size: 0x8, addend: 0x0, symName: __ZN4pyo35types4list6PyList3new17hdef8b246052c360fE, symObjAddr: 0x0, symBinAddr: 0x15C3C, symSize: 0x88 }
  - { offset: 0x3E6E0, size: 0x8, addend: 0x0, symName: __ZN4pyo35types4list6PyList3new17hfa4c9ebf4b720a58E, symObjAddr: 0x88, symBinAddr: 0x15CC4, symSize: 0xBC }
  - { offset: 0x3E7A1, size: 0x8, addend: 0x0, symName: __ZN4core4iter6traits8iterator8Iterator3map17h32f722b2723c5aa6E, symObjAddr: 0x0, symBinAddr: 0x15E20, symSize: 0x30 }
  - { offset: 0x3F34D, size: 0x8, addend: 0x0, symName: __ZN4core4iter6traits8iterator8Iterator3map17h32f722b2723c5aa6E, symObjAddr: 0x0, symBinAddr: 0x15E20, symSize: 0x30 }
  - { offset: 0x3F3BA, size: 0x8, addend: 0x0, symName: __ZN4core4iter6traits8iterator8Iterator3map17h35e5837506df9391E, symObjAddr: 0x30, symBinAddr: 0x15E50, symSize: 0x30 }
  - { offset: 0x3F427, size: 0x8, addend: 0x0, symName: __ZN4core4iter6traits8iterator8Iterator3map17h4521f23640c50c58E, symObjAddr: 0x60, symBinAddr: 0x15E80, symSize: 0x1C }
  - { offset: 0x3F47F, size: 0x8, addend: 0x0, symName: __ZN4core4iter6traits8iterator8Iterator3map17h68d4848ae525c76dE, symObjAddr: 0x7C, symBinAddr: 0x15E9C, symSize: 0x1C }
  - { offset: 0x3F4D7, size: 0x8, addend: 0x0, symName: __ZN4core4iter6traits8iterator8Iterator3map17h7b86414520a9882dE, symObjAddr: 0x98, symBinAddr: 0x15EB8, symSize: 0x30 }
  - { offset: 0x3F544, size: 0x8, addend: 0x0, symName: __ZN4core4iter6traits8iterator8Iterator3map17ha7b717933b42e1faE, symObjAddr: 0xC8, symBinAddr: 0x15EE8, symSize: 0x1C }
  - { offset: 0x3F59C, size: 0x8, addend: 0x0, symName: __ZN4core4iter6traits8iterator8Iterator3map17hc50db0f062d3d109E, symObjAddr: 0xE4, symBinAddr: 0x15F04, symSize: 0x1C }
  - { offset: 0x3F5F4, size: 0x8, addend: 0x0, symName: __ZN4core4iter6traits8iterator8Iterator3map17hc6448a482e19814bE, symObjAddr: 0x100, symBinAddr: 0x15F20, symSize: 0x1C }
  - { offset: 0x3F64C, size: 0x8, addend: 0x0, symName: __ZN4core4iter6traits8iterator8Iterator3map17hf729b34ced4d2f64E, symObjAddr: 0x11C, symBinAddr: 0x15F3C, symSize: 0x30 }
  - { offset: 0x3F6B9, size: 0x8, addend: 0x0, symName: __ZN4core4iter6traits8iterator8Iterator8try_fold17h9cfc7f4e689a3cddE, symObjAddr: 0x14C, symBinAddr: 0x15F6C, symSize: 0x138 }
  - { offset: 0x3F775, size: 0x8, addend: 0x0, symName: __ZN4core4iter6traits8iterator8Iterator8try_fold17ha69f275c140d9030E, symObjAddr: 0x284, symBinAddr: 0x160A4, symSize: 0x154 }
  - { offset: 0x3FA27, size: 0x8, addend: 0x0, symName: '__ZN91_$LT$core..slice..iter..Iter$LT$T$GT$$u20$as$u20$core..iter..traits..iterator..Iterator$GT$4find17h34d0e56fe8389ea4E', symObjAddr: 0x428, symBinAddr: 0x16248, symSize: 0xE4 }
  - { offset: 0x3FB50, size: 0x8, addend: 0x0, symName: '__ZN91_$LT$core..slice..iter..Iter$LT$T$GT$$u20$as$u20$core..iter..traits..iterator..Iterator$GT$4find17h93b7e589c14085d9E', symObjAddr: 0x50C, symBinAddr: 0x1632C, symSize: 0xE4 }
  - { offset: 0x3FC2A, size: 0x8, addend: 0x0, symName: '__ZN91_$LT$core..slice..iter..Iter$LT$T$GT$$u20$as$u20$core..iter..traits..iterator..Iterator$GT$4fold17h3fca5a2c1b136e5fE', symObjAddr: 0x5F0, symBinAddr: 0x16410, symSize: 0x1D8 }
  - { offset: 0x3FE2B, size: 0x8, addend: 0x0, symName: '__ZN91_$LT$core..slice..iter..Iter$LT$T$GT$$u20$as$u20$core..iter..traits..iterator..Iterator$GT$4fold17h596bd6e712c8674bE', symObjAddr: 0x7C8, symBinAddr: 0x165E8, symSize: 0x1E0 }
  - { offset: 0x4002C, size: 0x8, addend: 0x0, symName: '__ZN91_$LT$core..slice..iter..Iter$LT$T$GT$$u20$as$u20$core..iter..traits..iterator..Iterator$GT$4fold17h610f95c1337d7239E', symObjAddr: 0x9A8, symBinAddr: 0x167C8, symSize: 0x1D8 }
  - { offset: 0x4022D, size: 0x8, addend: 0x0, symName: '__ZN91_$LT$core..slice..iter..Iter$LT$T$GT$$u20$as$u20$core..iter..traits..iterator..Iterator$GT$4fold17h9dff489a31c81842E', symObjAddr: 0xB80, symBinAddr: 0x169A0, symSize: 0x1D8 }
  - { offset: 0x4042E, size: 0x8, addend: 0x0, symName: '__ZN91_$LT$core..slice..iter..Iter$LT$T$GT$$u20$as$u20$core..iter..traits..iterator..Iterator$GT$4fold17ha77e0e2bfaa404b7E', symObjAddr: 0xD58, symBinAddr: 0x16B78, symSize: 0x1E0 }
  - { offset: 0x4062F, size: 0x8, addend: 0x0, symName: '__ZN91_$LT$core..slice..iter..Iter$LT$T$GT$$u20$as$u20$core..iter..traits..iterator..Iterator$GT$4fold17hbfd4d2bf2035f047E', symObjAddr: 0xF38, symBinAddr: 0x16D58, symSize: 0x1D8 }
  - { offset: 0x40830, size: 0x8, addend: 0x0, symName: '__ZN91_$LT$core..slice..iter..Iter$LT$T$GT$$u20$as$u20$core..iter..traits..iterator..Iterator$GT$4fold17hd512863e3e665a74E', symObjAddr: 0x1110, symBinAddr: 0x16F30, symSize: 0x1E0 }
  - { offset: 0x40A31, size: 0x8, addend: 0x0, symName: '__ZN91_$LT$core..slice..iter..Iter$LT$T$GT$$u20$as$u20$core..iter..traits..iterator..Iterator$GT$4fold17hf555735ae07ec30fE', symObjAddr: 0x12F0, symBinAddr: 0x17110, symSize: 0x1D8 }
  - { offset: 0x40C32, size: 0x8, addend: 0x0, symName: '__ZN91_$LT$core..slice..iter..Iter$LT$T$GT$$u20$as$u20$core..iter..traits..iterator..Iterator$GT$4next17h518d7b9024750389E', symObjAddr: 0x14C8, symBinAddr: 0x172E8, symSize: 0x84 }
  - { offset: 0x40CE8, size: 0x8, addend: 0x0, symName: '__ZN91_$LT$core..slice..iter..Iter$LT$T$GT$$u20$as$u20$core..iter..traits..iterator..Iterator$GT$4next17hd2339cef5af5c4c6E', symObjAddr: 0x154C, symBinAddr: 0x1736C, symSize: 0x84 }
  - { offset: 0x40DED, size: 0x8, addend: 0x0, symName: '__ZN91_$LT$core..slice..iter..Iter$LT$T$GT$$u20$as$u20$core..iter..traits..iterator..Iterator$GT$8position17h6eaa44a944904723E', symObjAddr: 0x15D0, symBinAddr: 0x173F0, symSize: 0x1D0 }
  - { offset: 0x4104A, size: 0x8, addend: 0x0, symName: '__ZN91_$LT$core..slice..iter..Iter$LT$T$GT$$u20$as$u20$core..iter..traits..iterator..Iterator$GT$8position17h7312c857fdd7a747E', symObjAddr: 0x17A0, symBinAddr: 0x175C0, symSize: 0x1D0 }
  - { offset: 0x41258, size: 0x8, addend: 0x0, symName: '__ZN91_$LT$core..slice..iter..Iter$LT$T$GT$$u20$as$u20$core..iter..traits..iterator..Iterator$GT$9size_hint17h1a10db7d0124a107E', symObjAddr: 0x1970, symBinAddr: 0x17790, symSize: 0xB4 }
  - { offset: 0x41385, size: 0x8, addend: 0x0, symName: '__ZN91_$LT$core..slice..iter..Iter$LT$T$GT$$u20$as$u20$core..iter..traits..iterator..Iterator$GT$9size_hint17h511090a2dea92efaE', symObjAddr: 0x1A24, symBinAddr: 0x17844, symSize: 0xB4 }
  - { offset: 0x414B2, size: 0x8, addend: 0x0, symName: '__ZN91_$LT$core..slice..iter..Iter$LT$T$GT$$u20$as$u20$core..iter..traits..iterator..Iterator$GT$9size_hint17ha152542f819495e5E', symObjAddr: 0x1AD8, symBinAddr: 0x178F8, symSize: 0xB4 }
  - { offset: 0x416D6, size: 0x8, addend: 0x0, symName: '__ZN94_$LT$core..slice..iter..IterMut$LT$T$GT$$u20$as$u20$core..iter..traits..iterator..Iterator$GT$4find17h28ea1df17e5b1c34E', symObjAddr: 0x1B8C, symBinAddr: 0x179AC, symSize: 0xE4 }
  - { offset: 0x44628, size: 0x8, addend: 0x0, symName: '__ZN4core5slice4iter13Iter$LT$T$GT$3new17h1c2f2abe064df0ebE', symObjAddr: 0x3D8, symBinAddr: 0x161F8, symSize: 0x50 }
  - { offset: 0x44F2B, size: 0x8, addend: 0x0, symName: __ZN4pyo36marker6Python19assume_gil_acquired17h3e6861ff62461a87E, symObjAddr: 0x0, symBinAddr: 0x17A90, symSize: 0x4 }
  - { offset: 0x4621C, size: 0x8, addend: 0x0, symName: __ZN4pyo36marker6Python19assume_gil_acquired17h3e6861ff62461a87E, symObjAddr: 0x0, symBinAddr: 0x17A90, symSize: 0x4 }
  - { offset: 0x4666B, size: 0x8, addend: 0x0, symName: __ZN4pyo36marker6Python4None17h82b368d051f75dd0E, symObjAddr: 0x4, symBinAddr: 0x17A94, symSize: 0x28 }
  - { offset: 0x466B8, size: 0x8, addend: 0x0, symName: __ZN4core3mem6forget17h059e9db51e319064E, symObjAddr: 0x0, symBinAddr: 0x17ABC, symSize: 0x10 }
  - { offset: 0x46E47, size: 0x8, addend: 0x0, symName: __ZN4core3mem6forget17h059e9db51e319064E, symObjAddr: 0x0, symBinAddr: 0x17ABC, symSize: 0x10 }
  - { offset: 0x46E78, size: 0x8, addend: 0x0, symName: __ZN4core3mem6forget17h647d0c67ee08d15dE, symObjAddr: 0x10, symBinAddr: 0x17ACC, symSize: 0x10 }
  - { offset: 0x46EA9, size: 0x8, addend: 0x0, symName: __ZN4core3mem6forget17haacd67a5e6c6565eE, symObjAddr: 0x20, symBinAddr: 0x17ADC, symSize: 0x10 }
  - { offset: 0x48724, size: 0x8, addend: 0x0, symName: '__ZN4core3str6traits112_$LT$impl$u20$core..slice..index..SliceIndex$LT$str$GT$$u20$for$u20$core..ops..range..RangeFrom$LT$usize$GT$$GT$3get17h28d28b820e8eb232E', symObjAddr: 0x0, symBinAddr: 0x17AEC, symSize: 0x150 }
  - { offset: 0x487AF, size: 0x8, addend: 0x0, symName: '__ZN4core3str6traits112_$LT$impl$u20$core..slice..index..SliceIndex$LT$str$GT$$u20$for$u20$core..ops..range..RangeFrom$LT$usize$GT$$GT$3get17h28d28b820e8eb232E', symObjAddr: 0x0, symBinAddr: 0x17AEC, symSize: 0x150 }
  - { offset: 0x48BCB, size: 0x8, addend: 0x0, symName: '__ZN4pyo36pycell15PyCell$LT$T$GT$10try_borrow17h741946346b3565d9E', symObjAddr: 0x0, symBinAddr: 0x17C3C, symSize: 0x3C }
  - { offset: 0x4A34F, size: 0x8, addend: 0x0, symName: '__ZN50_$LT$T$u20$as$u20$core..convert..Into$LT$U$GT$$GT$4into17h5b1f7525434dd4d8E', symObjAddr: 0x108, symBinAddr: 0x17D44, symSize: 0x1C }
  - { offset: 0x4A514, size: 0x8, addend: 0x0, symName: '__ZN4pyo36pycell15PyCell$LT$T$GT$10try_borrow28_$u7b$$u7b$closure$u7d$$u7d$17hcaae7cb11d50df96E', symObjAddr: 0x3C, symBinAddr: 0x17C78, symSize: 0x14 }
  - { offset: 0x4A55F, size: 0x8, addend: 0x0, symName: '__ZN72_$LT$pyo3..pycell..PyRef$LT$T$GT$$u20$as$u20$core..ops..deref..Deref$GT$5deref17h4ca3629b2643a1a7E', symObjAddr: 0x124, symBinAddr: 0x17D60, symSize: 0x74 }
  - { offset: 0x4A59C, size: 0x8, addend: 0x0, symName: '__ZN85_$LT$pyo3..pycell..PyCell$LT$T$GT$$u20$as$u20$pyo3..pycell..PyCellLayout$LT$T$GT$$GT$10tp_dealloc17h72e14c5107e6ef3bE', symObjAddr: 0x304, symBinAddr: 0x17F40, symSize: 0xB0 }
  - { offset: 0x4A600, size: 0x8, addend: 0x0, symName: '__ZN85_$LT$pyo3..pycell..PyCell$LT$T$GT$$u20$as$u20$pyo3..pycell..PyCellLayout$LT$T$GT$$GT$17ensure_threadsafe17hae59841bb9859a7bE', symObjAddr: 0x3B4, symBinAddr: 0x17FF0, symSize: 0x30 }
  - { offset: 0x4A639, size: 0x8, addend: 0x0, symName: '__ZN89_$LT$pyo3..pycell..PyCellBase$LT$U$GT$$u20$as$u20$pyo3..pycell..PyCellLayout$LT$T$GT$$GT$10tp_dealloc17h2ccb8c7e54c5262eE', symObjAddr: 0x3E4, symBinAddr: 0x18020, symSize: 0xF8 }
  - { offset: 0x4A6C4, size: 0x8, addend: 0x0, symName: '__ZN89_$LT$pyo3..pycell..PyCellBase$LT$U$GT$$u20$as$u20$pyo3..pycell..PyCellLayout$LT$T$GT$$GT$17ensure_threadsafe17h37e6d4d2857db5feE', symObjAddr: 0x4DC, symBinAddr: 0x18118, symSize: 0x10 }
  - { offset: 0x4A759, size: 0x8, addend: 0x0, symName: __ZN4pyo38instance12PyNativeType18unchecked_downcast17hc64fd1f43738cb7cE, symObjAddr: 0x98, symBinAddr: 0x17CD4, symSize: 0x70 }
  - { offset: 0x4A842, size: 0x8, addend: 0x0, symName: '__ZN77_$LT$pyo3..pycell..PyCell$LT$T$GT$$u20$as$u20$pyo3..conversion..PyTryFrom$GT$18try_from_unchecked17ha7769298ddbff7d9E', symObjAddr: 0x198, symBinAddr: 0x17DD4, symSize: 0x30 }
  - { offset: 0x4A882, size: 0x8, addend: 0x0, symName: '__ZN77_$LT$pyo3..pycell..PyCell$LT$T$GT$$u20$as$u20$pyo3..conversion..PyTryFrom$GT$8try_from17hb224b70b6b37ac74E', symObjAddr: 0x1C8, symBinAddr: 0x17E04, symSize: 0x98 }
  - { offset: 0x4A8E6, size: 0x8, addend: 0x0, symName: '__ZN79_$LT$pyo3..pycell..PyRef$LT$T$GT$$u20$as$u20$pyo3..conversion..FromPyObject$GT$7extract17ha9e0d106bb9ab9f4E', symObjAddr: 0x260, symBinAddr: 0x17E9C, symSize: 0xA4 }
  - { offset: 0x4B7E2, size: 0x8, addend: 0x0, symName: '__ZN4pyo36pycell15PyCell$LT$T$GT$10try_borrow17h741946346b3565d9E', symObjAddr: 0x0, symBinAddr: 0x17C3C, symSize: 0x3C }
  - { offset: 0x4B81B, size: 0x8, addend: 0x0, symName: '__ZN4pyo36pycell15PyCell$LT$T$GT$14borrow_checker17h94465bb3538a67ebE', symObjAddr: 0x50, symBinAddr: 0x17C8C, symSize: 0x24 }
  - { offset: 0x4B854, size: 0x8, addend: 0x0, symName: '__ZN4pyo36pycell15PyCell$LT$T$GT$7get_ptr17h56f8481c82aa5fdaE', symObjAddr: 0x74, symBinAddr: 0x17CB0, symSize: 0x24 }
  - { offset: 0x4B973, size: 0x8, addend: 0x0, symName: '__ZN4core3ptr7mut_ptr31_$LT$impl$u20$$BP$mut$u20$T$GT$6offset18precondition_check17hed87335f833f6fd8E', symObjAddr: 0x0, symBinAddr: 0x18128, symSize: 0xC4 }
  - { offset: 0x4BA29, size: 0x8, addend: 0x0, symName: '__ZN4core3ptr7mut_ptr31_$LT$impl$u20$$BP$mut$u20$T$GT$6offset18precondition_check17hed87335f833f6fd8E', symObjAddr: 0x0, symBinAddr: 0x18128, symSize: 0xC4 }
  - { offset: 0x4BE1C, size: 0x8, addend: 0x0, symName: '__ZN75_$LT$usize$u20$as$u20$core..slice..index..SliceIndex$LT$$u5b$T$u5d$$GT$$GT$17get_unchecked_mut18precondition_check17h4d7319fb9944c4ecE', symObjAddr: 0x0, symBinAddr: 0x181EC, symSize: 0x60 }
  - { offset: 0x4BE42, size: 0x8, addend: 0x0, symName: '__ZN75_$LT$usize$u20$as$u20$core..slice..index..SliceIndex$LT$$u5b$T$u5d$$GT$$GT$17get_unchecked_mut18precondition_check17h4d7319fb9944c4ecE', symObjAddr: 0x0, symBinAddr: 0x181EC, symSize: 0x60 }
  - { offset: 0x4BEED, size: 0x8, addend: 0x0, symName: _PyInit_avap_isa, symObjAddr: 0x0, symBinAddr: 0x1824C, symSize: 0x34 }
  - { offset: 0x4BF12, size: 0x8, addend: 0x0, symName: __ZN8avap_isa8avap_isa3DEF17hd711a813e945636fE, symObjAddr: 0x50, symBinAddr: 0x108438, symSize: 0x0 }
  - { offset: 0x4BF1F, size: 0x8, addend: 0x0, symName: _PyInit_avap_isa, symObjAddr: 0x0, symBinAddr: 0x1824C, symSize: 0x34 }
  - { offset: 0x4DE20, size: 0x8, addend: 0x0, symName: __ZN4pyo33gil7GILPool3new17hfc8494318a1b4404E, symObjAddr: 0x0, symBinAddr: 0x18280, symSize: 0x3C }
  - { offset: 0x4E03D, size: 0x8, addend: 0x0, symName: __ZN4pyo33gil7GILPool3new17hfc8494318a1b4404E, symObjAddr: 0x0, symBinAddr: 0x18280, symSize: 0x3C }
  - { offset: 0x4E073, size: 0x8, addend: 0x0, symName: __ZN4pyo33gil7GILPool6python17hd6a0860f555972cbE, symObjAddr: 0x3C, symBinAddr: 0x182BC, symSize: 0x20 }
  - { offset: 0x4E0B4, size: 0x8, addend: 0x0, symName: '__ZN102_$LT$core..iter..adapters..map..Map$LT$I$C$F$GT$$u20$as$u20$core..iter..traits..iterator..Iterator$GT$4fold17h0ab1eb1e3e88dc44E', symObjAddr: 0x0, symBinAddr: 0x182DC, symSize: 0x44 }
  - { offset: 0x4E9BB, size: 0x8, addend: 0x0, symName: '__ZN4core4iter8adapters3map8map_fold28_$u7b$$u7b$closure$u7d$$u7d$17h0d940cf50f96e818E', symObjAddr: 0xE30, symBinAddr: 0x1910C, symSize: 0x7C }
  - { offset: 0x4EA40, size: 0x8, addend: 0x0, symName: '__ZN4core4iter8adapters3map8map_fold28_$u7b$$u7b$closure$u7d$$u7d$17h50f2fd0dd04f88a1E', symObjAddr: 0xEAC, symBinAddr: 0x19188, symSize: 0x8C }
  - { offset: 0x4EAC5, size: 0x8, addend: 0x0, symName: '__ZN4core4iter8adapters3map8map_fold28_$u7b$$u7b$closure$u7d$$u7d$17h8fc6e3f90940d028E', symObjAddr: 0xF38, symBinAddr: 0x19214, symSize: 0x7C }
  - { offset: 0x4EB4A, size: 0x8, addend: 0x0, symName: '__ZN4core4iter8adapters3map8map_fold28_$u7b$$u7b$closure$u7d$$u7d$17hb579ab633bccd147E', symObjAddr: 0xFB4, symBinAddr: 0x19290, symSize: 0x8C }
  - { offset: 0x4EBCF, size: 0x8, addend: 0x0, symName: '__ZN4core4iter8adapters3map8map_fold28_$u7b$$u7b$closure$u7d$$u7d$17hbbf1cdfb01676b56E', symObjAddr: 0x1040, symBinAddr: 0x1931C, symSize: 0x7C }
  - { offset: 0x4EC54, size: 0x8, addend: 0x0, symName: '__ZN4core4iter8adapters3map8map_fold28_$u7b$$u7b$closure$u7d$$u7d$17hd44ffba65c56085fE', symObjAddr: 0x10BC, symBinAddr: 0x19398, symSize: 0x8C }
  - { offset: 0x4ECD9, size: 0x8, addend: 0x0, symName: '__ZN4core4iter8adapters3map8map_fold28_$u7b$$u7b$closure$u7d$$u7d$17he4fccb41501da75cE', symObjAddr: 0x1148, symBinAddr: 0x19424, symSize: 0x8C }
  - { offset: 0x4ED5E, size: 0x8, addend: 0x0, symName: '__ZN4core4iter8adapters3map8map_fold28_$u7b$$u7b$closure$u7d$$u7d$17hf6e1ea12a596ed33E', symObjAddr: 0x11D4, symBinAddr: 0x194B0, symSize: 0x7C }
  - { offset: 0x4EDE9, size: 0x8, addend: 0x0, symName: '__ZN102_$LT$core..iter..adapters..map..Map$LT$I$C$F$GT$$u20$as$u20$core..iter..traits..iterator..Iterator$GT$4fold17h0ab1eb1e3e88dc44E', symObjAddr: 0x0, symBinAddr: 0x182DC, symSize: 0x44 }
  - { offset: 0x4EE81, size: 0x8, addend: 0x0, symName: '__ZN102_$LT$core..iter..adapters..map..Map$LT$I$C$F$GT$$u20$as$u20$core..iter..traits..iterator..Iterator$GT$4fold17h17d1cd1a17a9eb35E', symObjAddr: 0x44, symBinAddr: 0x18320, symSize: 0x4C }
  - { offset: 0x4EF1A, size: 0x8, addend: 0x0, symName: '__ZN102_$LT$core..iter..adapters..map..Map$LT$I$C$F$GT$$u20$as$u20$core..iter..traits..iterator..Iterator$GT$4fold17h4a13bd2b29c834dcE', symObjAddr: 0x90, symBinAddr: 0x1836C, symSize: 0x4C }
  - { offset: 0x4EFB3, size: 0x8, addend: 0x0, symName: '__ZN102_$LT$core..iter..adapters..map..Map$LT$I$C$F$GT$$u20$as$u20$core..iter..traits..iterator..Iterator$GT$4fold17h5cb3e3ca4b6430d3E', symObjAddr: 0xDC, symBinAddr: 0x183B8, symSize: 0x44 }
  - { offset: 0x4F04B, size: 0x8, addend: 0x0, symName: '__ZN102_$LT$core..iter..adapters..map..Map$LT$I$C$F$GT$$u20$as$u20$core..iter..traits..iterator..Iterator$GT$4fold17h7d5e66889f16e5d9E', symObjAddr: 0x120, symBinAddr: 0x183FC, symSize: 0x44 }
  - { offset: 0x4F0E3, size: 0x8, addend: 0x0, symName: '__ZN102_$LT$core..iter..adapters..map..Map$LT$I$C$F$GT$$u20$as$u20$core..iter..traits..iterator..Iterator$GT$4fold17h8cbdbac46c9157d0E', symObjAddr: 0x164, symBinAddr: 0x18440, symSize: 0x58 }
  - { offset: 0x4F17C, size: 0x8, addend: 0x0, symName: '__ZN102_$LT$core..iter..adapters..map..Map$LT$I$C$F$GT$$u20$as$u20$core..iter..traits..iterator..Iterator$GT$4fold17he41462354c65a1b2E', symObjAddr: 0x1BC, symBinAddr: 0x18498, symSize: 0x4C }
  - { offset: 0x4F215, size: 0x8, addend: 0x0, symName: '__ZN102_$LT$core..iter..adapters..map..Map$LT$I$C$F$GT$$u20$as$u20$core..iter..traits..iterator..Iterator$GT$4fold17hf440f3e12b7bbe95E', symObjAddr: 0x208, symBinAddr: 0x184E4, symSize: 0x44 }
  - { offset: 0x4F2AD, size: 0x8, addend: 0x0, symName: '__ZN102_$LT$core..iter..adapters..map..Map$LT$I$C$F$GT$$u20$as$u20$core..iter..traits..iterator..Iterator$GT$4next17h05637bb8b1aae111E', symObjAddr: 0x24C, symBinAddr: 0x18528, symSize: 0xA8 }
  - { offset: 0x4F349, size: 0x8, addend: 0x0, symName: '__ZN102_$LT$core..iter..adapters..map..Map$LT$I$C$F$GT$$u20$as$u20$core..iter..traits..iterator..Iterator$GT$4next17h6b4085504d9bc57cE', symObjAddr: 0x2F4, symBinAddr: 0x185D0, symSize: 0x78 }
  - { offset: 0x4F3E5, size: 0x8, addend: 0x0, symName: '__ZN102_$LT$core..iter..adapters..map..Map$LT$I$C$F$GT$$u20$as$u20$core..iter..traits..iterator..Iterator$GT$4next17h814233a647076994E', symObjAddr: 0x36C, symBinAddr: 0x18648, symSize: 0xA4 }
  - { offset: 0x4F481, size: 0x8, addend: 0x0, symName: '__ZN102_$LT$core..iter..adapters..map..Map$LT$I$C$F$GT$$u20$as$u20$core..iter..traits..iterator..Iterator$GT$4next17he738168022399895E', symObjAddr: 0x410, symBinAddr: 0x186EC, symSize: 0x78 }
  - { offset: 0x4F51D, size: 0x8, addend: 0x0, symName: '__ZN102_$LT$core..iter..adapters..map..Map$LT$I$C$F$GT$$u20$as$u20$core..iter..traits..iterator..Iterator$GT$8try_fold17h18cf11942e583114E', symObjAddr: 0x488, symBinAddr: 0x18764, symSize: 0x34 }
  - { offset: 0x4F59B, size: 0x8, addend: 0x0, symName: '__ZN102_$LT$core..iter..adapters..map..Map$LT$I$C$F$GT$$u20$as$u20$core..iter..traits..iterator..Iterator$GT$8try_fold17h5e439c85b8298823E', symObjAddr: 0x4BC, symBinAddr: 0x18798, symSize: 0x34 }
  - { offset: 0x4F619, size: 0x8, addend: 0x0, symName: '__ZN102_$LT$core..iter..adapters..map..Map$LT$I$C$F$GT$$u20$as$u20$core..iter..traits..iterator..Iterator$GT$8try_fold17hce310006982127d5E', symObjAddr: 0x4F0, symBinAddr: 0x187CC, symSize: 0x54 }
  - { offset: 0x4F6BC, size: 0x8, addend: 0x0, symName: '__ZN102_$LT$core..iter..adapters..map..Map$LT$I$C$F$GT$$u20$as$u20$core..iter..traits..iterator..Iterator$GT$9size_hint17h0bfb55c1b16167aeE', symObjAddr: 0x544, symBinAddr: 0x18820, symSize: 0x24 }
  - { offset: 0x4F703, size: 0x8, addend: 0x0, symName: '__ZN102_$LT$core..iter..adapters..map..Map$LT$I$C$F$GT$$u20$as$u20$core..iter..traits..iterator..Iterator$GT$9size_hint17h1618ec01e0037bb9E', symObjAddr: 0x568, symBinAddr: 0x18844, symSize: 0x24 }
  - { offset: 0x4F74A, size: 0x8, addend: 0x0, symName: '__ZN102_$LT$core..iter..adapters..map..Map$LT$I$C$F$GT$$u20$as$u20$core..iter..traits..iterator..Iterator$GT$9size_hint17h1d03e8626ff5c8c1E', symObjAddr: 0x58C, symBinAddr: 0x18868, symSize: 0x24 }
  - { offset: 0x4F791, size: 0x8, addend: 0x0, symName: '__ZN102_$LT$core..iter..adapters..map..Map$LT$I$C$F$GT$$u20$as$u20$core..iter..traits..iterator..Iterator$GT$9size_hint17h1e0bf7500681f6a7E', symObjAddr: 0x5B0, symBinAddr: 0x1888C, symSize: 0x24 }
  - { offset: 0x4F7D8, size: 0x8, addend: 0x0, symName: '__ZN102_$LT$core..iter..adapters..map..Map$LT$I$C$F$GT$$u20$as$u20$core..iter..traits..iterator..Iterator$GT$9size_hint17h3076721fa8445b74E', symObjAddr: 0x5D4, symBinAddr: 0x188B0, symSize: 0x24 }
  - { offset: 0x4F81F, size: 0x8, addend: 0x0, symName: '__ZN102_$LT$core..iter..adapters..map..Map$LT$I$C$F$GT$$u20$as$u20$core..iter..traits..iterator..Iterator$GT$9size_hint17h3a6ef5276c8a7073E', symObjAddr: 0x5F8, symBinAddr: 0x188D4, symSize: 0x24 }
  - { offset: 0x4F866, size: 0x8, addend: 0x0, symName: '__ZN102_$LT$core..iter..adapters..map..Map$LT$I$C$F$GT$$u20$as$u20$core..iter..traits..iterator..Iterator$GT$9size_hint17h3cfea6ae95c067dcE', symObjAddr: 0x61C, symBinAddr: 0x188F8, symSize: 0x24 }
  - { offset: 0x4F8AD, size: 0x8, addend: 0x0, symName: '__ZN102_$LT$core..iter..adapters..map..Map$LT$I$C$F$GT$$u20$as$u20$core..iter..traits..iterator..Iterator$GT$9size_hint17h75e2bd1cf6e2068cE', symObjAddr: 0x640, symBinAddr: 0x1891C, symSize: 0x24 }
  - { offset: 0x4F8F4, size: 0x8, addend: 0x0, symName: '__ZN102_$LT$core..iter..adapters..map..Map$LT$I$C$F$GT$$u20$as$u20$core..iter..traits..iterator..Iterator$GT$9size_hint17h78cd83d8bcaaffd8E', symObjAddr: 0x664, symBinAddr: 0x18940, symSize: 0x24 }
  - { offset: 0x4F93B, size: 0x8, addend: 0x0, symName: '__ZN102_$LT$core..iter..adapters..map..Map$LT$I$C$F$GT$$u20$as$u20$core..iter..traits..iterator..Iterator$GT$9size_hint17h7c343ec7e10b2f9aE', symObjAddr: 0x688, symBinAddr: 0x18964, symSize: 0x24 }
  - { offset: 0x4F982, size: 0x8, addend: 0x0, symName: '__ZN102_$LT$core..iter..adapters..map..Map$LT$I$C$F$GT$$u20$as$u20$core..iter..traits..iterator..Iterator$GT$9size_hint17hbb10f300fc081adcE', symObjAddr: 0x6AC, symBinAddr: 0x18988, symSize: 0x24 }
  - { offset: 0x4F9C9, size: 0x8, addend: 0x0, symName: '__ZN102_$LT$core..iter..adapters..map..Map$LT$I$C$F$GT$$u20$as$u20$core..iter..traits..iterator..Iterator$GT$9size_hint17hc626cfc654d15fcfE', symObjAddr: 0x6D0, symBinAddr: 0x189AC, symSize: 0x24 }
  - { offset: 0x4FA10, size: 0x8, addend: 0x0, symName: '__ZN102_$LT$core..iter..adapters..map..Map$LT$I$C$F$GT$$u20$as$u20$core..iter..traits..iterator..Iterator$GT$9size_hint17hf8edd2bc0ecb4d59E', symObjAddr: 0x6F4, symBinAddr: 0x189D0, symSize: 0x24 }
  - { offset: 0x4FD24, size: 0x8, addend: 0x0, symName: '__ZN4core4iter8adapters3map12map_try_fold28_$u7b$$u7b$closure$u7d$$u7d$17ha7f82e25c573112eE', symObjAddr: 0xC58, symBinAddr: 0x18F34, symSize: 0x98 }
  - { offset: 0x4FDB6, size: 0x8, addend: 0x0, symName: '__ZN4core4iter8adapters3map12map_try_fold28_$u7b$$u7b$closure$u7d$$u7d$17hb1cea2b6385a0dcaE', symObjAddr: 0xCF0, symBinAddr: 0x18FCC, symSize: 0xA0 }
  - { offset: 0x4FE48, size: 0x8, addend: 0x0, symName: '__ZN4core4iter8adapters3map12map_try_fold28_$u7b$$u7b$closure$u7d$$u7d$17he2f8b50d0874e548E', symObjAddr: 0xD90, symBinAddr: 0x1906C, symSize: 0xA0 }
  - { offset: 0x4FEE0, size: 0x8, addend: 0x0, symName: '__ZN113_$LT$core..iter..adapters..map..Map$LT$I$C$F$GT$$u20$as$u20$core..iter..traits..exact_size..ExactSizeIterator$GT$3len17h0a23821e9c7eb186E', symObjAddr: 0x718, symBinAddr: 0x189F4, symSize: 0x24 }
  - { offset: 0x4FF27, size: 0x8, addend: 0x0, symName: '__ZN113_$LT$core..iter..adapters..map..Map$LT$I$C$F$GT$$u20$as$u20$core..iter..traits..exact_size..ExactSizeIterator$GT$3len17h20e716ccea6b8124E', symObjAddr: 0x73C, symBinAddr: 0x18A18, symSize: 0x7C }
  - { offset: 0x50063, size: 0x8, addend: 0x0, symName: '__ZN113_$LT$core..iter..adapters..map..Map$LT$I$C$F$GT$$u20$as$u20$core..iter..traits..exact_size..ExactSizeIterator$GT$8is_empty17h574a4063104af7e1E', symObjAddr: 0x7B8, symBinAddr: 0x18A94, symSize: 0x24 }
  - { offset: 0x500AA, size: 0x8, addend: 0x0, symName: '__ZN113_$LT$core..iter..adapters..map..Map$LT$I$C$F$GT$$u20$as$u20$core..iter..traits..exact_size..ExactSizeIterator$GT$8is_empty17h70ebc72900d24573E', symObjAddr: 0x7DC, symBinAddr: 0x18AB8, symSize: 0x3C }
  - { offset: 0x5065A, size: 0x8, addend: 0x0, symName: __ZN4core4iter6traits8iterator8Iterator10advance_by17h609b19833654ebc0E, symObjAddr: 0x818, symBinAddr: 0x18AF4, symSize: 0x28 }
  - { offset: 0x506A0, size: 0x8, addend: 0x0, symName: __ZN4core4iter6traits8iterator8Iterator10advance_by17hef83f0e6a726e34cE, symObjAddr: 0x840, symBinAddr: 0x18B1C, symSize: 0x28 }
  - { offset: 0x506E6, size: 0x8, addend: 0x0, symName: __ZN4core4iter6traits8iterator8Iterator3nth17h275ce23e05f55548E, symObjAddr: 0x868, symBinAddr: 0x18B44, symSize: 0x68 }
  - { offset: 0x50790, size: 0x8, addend: 0x0, symName: __ZN4core4iter6traits8iterator8Iterator3nth17h294d0afa322f5f8aE, symObjAddr: 0x8D0, symBinAddr: 0x18BAC, symSize: 0x68 }
  - { offset: 0x5083A, size: 0x8, addend: 0x0, symName: __ZN4core4iter6traits8iterator8Iterator7collect17h147a6dc7f5e25cc4E, symObjAddr: 0x938, symBinAddr: 0x18C14, symSize: 0x14 }
  - { offset: 0x5087B, size: 0x8, addend: 0x0, symName: __ZN4core4iter6traits8iterator8Iterator7collect17h17b827b02a23cbf8E, symObjAddr: 0x94C, symBinAddr: 0x18C28, symSize: 0x2C }
  - { offset: 0x508BB, size: 0x8, addend: 0x0, symName: __ZN4core4iter6traits8iterator8Iterator7collect17h193ae0ebc5e79054E, symObjAddr: 0x978, symBinAddr: 0x18C54, symSize: 0x14 }
  - { offset: 0x508FC, size: 0x8, addend: 0x0, symName: __ZN4core4iter6traits8iterator8Iterator7collect17h1ddb923a9cb03ccdE, symObjAddr: 0x98C, symBinAddr: 0x18C68, symSize: 0x14 }
  - { offset: 0x5093D, size: 0x8, addend: 0x0, symName: __ZN4core4iter6traits8iterator8Iterator7collect17h374717348a8f871eE, symObjAddr: 0x9A0, symBinAddr: 0x18C7C, symSize: 0x14 }
  - { offset: 0x5097E, size: 0x8, addend: 0x0, symName: __ZN4core4iter6traits8iterator8Iterator7collect17h3e61d7e5262a3841E, symObjAddr: 0x9B4, symBinAddr: 0x18C90, symSize: 0x2C }
  - { offset: 0x509BE, size: 0x8, addend: 0x0, symName: __ZN4core4iter6traits8iterator8Iterator7collect17h5f255d1cc3ae5314E, symObjAddr: 0x9E0, symBinAddr: 0x18CBC, symSize: 0x2C }
  - { offset: 0x509FE, size: 0x8, addend: 0x0, symName: __ZN4core4iter6traits8iterator8Iterator7collect17h8ffb4668597d321aE, symObjAddr: 0xA0C, symBinAddr: 0x18CE8, symSize: 0x2C }
  - { offset: 0x50A3E, size: 0x8, addend: 0x0, symName: __ZN4core4iter6traits8iterator8Iterator7collect17ha87789fe3725ae90E, symObjAddr: 0xA38, symBinAddr: 0x18D14, symSize: 0x2C }
  - { offset: 0x50A7E, size: 0x8, addend: 0x0, symName: __ZN4core4iter6traits8iterator8Iterator7collect17hba1eb46f44b2cd27E, symObjAddr: 0xA64, symBinAddr: 0x18D40, symSize: 0x14 }
  - { offset: 0x50ABF, size: 0x8, addend: 0x0, symName: __ZN4core4iter6traits8iterator8Iterator8for_each17h03d992a86ec1f942E, symObjAddr: 0xA78, symBinAddr: 0x18D54, symSize: 0x34 }
  - { offset: 0x50B2B, size: 0x8, addend: 0x0, symName: __ZN4core4iter6traits8iterator8Iterator8for_each17h36c47b0eb0a6e987E, symObjAddr: 0xAAC, symBinAddr: 0x18D88, symSize: 0x44 }
  - { offset: 0x50B96, size: 0x8, addend: 0x0, symName: __ZN4core4iter6traits8iterator8Iterator8for_each17h414597474fb34571E, symObjAddr: 0xAF0, symBinAddr: 0x18DCC, symSize: 0x44 }
  - { offset: 0x50C01, size: 0x8, addend: 0x0, symName: __ZN4core4iter6traits8iterator8Iterator8for_each17h5361d6835c420e9fE, symObjAddr: 0xB34, symBinAddr: 0x18E10, symSize: 0x44 }
  - { offset: 0x50C6C, size: 0x8, addend: 0x0, symName: __ZN4core4iter6traits8iterator8Iterator8for_each17h866039fdd299c49cE, symObjAddr: 0xB78, symBinAddr: 0x18E54, symSize: 0x34 }
  - { offset: 0x50CD8, size: 0x8, addend: 0x0, symName: __ZN4core4iter6traits8iterator8Iterator8for_each17ha4b99b732e805a06E, symObjAddr: 0xBAC, symBinAddr: 0x18E88, symSize: 0x34 }
  - { offset: 0x50D44, size: 0x8, addend: 0x0, symName: __ZN4core4iter6traits8iterator8Iterator8for_each17ha6b77bd473ac4b55E, symObjAddr: 0xBE0, symBinAddr: 0x18EBC, symSize: 0x44 }
  - { offset: 0x50DAF, size: 0x8, addend: 0x0, symName: __ZN4core4iter6traits8iterator8Iterator8for_each17hea88466a2a43f56eE, symObjAddr: 0xC24, symBinAddr: 0x18F00, symSize: 0x34 }
  - { offset: 0x50E25, size: 0x8, addend: 0x0, symName: '__ZN87_$LT$I$u20$as$u20$core..iter..traits..iterator..Iterator..advance_by..SpecAdvanceBy$GT$15spec_advance_by17h9d733d562d6f9ba9E', symObjAddr: 0x1384, symBinAddr: 0x19660, symSize: 0x8C }
  - { offset: 0x50ED3, size: 0x8, addend: 0x0, symName: '__ZN87_$LT$I$u20$as$u20$core..iter..traits..iterator..Iterator..advance_by..SpecAdvanceBy$GT$15spec_advance_by17hf68fc35b20225c94E', symObjAddr: 0x1410, symBinAddr: 0x196EC, symSize: 0x8C }
  - { offset: 0x50FA3, size: 0x8, addend: 0x0, symName: '__ZN63_$LT$I$u20$as$u20$core..iter..traits..collect..IntoIterator$GT$9into_iter17h26b18729137d6fdcE', symObjAddr: 0x1250, symBinAddr: 0x1952C, symSize: 0x1C }
  - { offset: 0x50FDA, size: 0x8, addend: 0x0, symName: '__ZN63_$LT$I$u20$as$u20$core..iter..traits..collect..IntoIterator$GT$9into_iter17h6322c7f67a01db73E', symObjAddr: 0x126C, symBinAddr: 0x19548, symSize: 0x1C }
  - { offset: 0x51011, size: 0x8, addend: 0x0, symName: '__ZN63_$LT$I$u20$as$u20$core..iter..traits..collect..IntoIterator$GT$9into_iter17h735e449e7a438cc6E', symObjAddr: 0x1288, symBinAddr: 0x19564, symSize: 0x1C }
  - { offset: 0x51048, size: 0x8, addend: 0x0, symName: '__ZN63_$LT$I$u20$as$u20$core..iter..traits..collect..IntoIterator$GT$9into_iter17hb2a2839521769ea9E', symObjAddr: 0x12A4, symBinAddr: 0x19580, symSize: 0x30 }
  - { offset: 0x51080, size: 0x8, addend: 0x0, symName: '__ZN63_$LT$I$u20$as$u20$core..iter..traits..collect..IntoIterator$GT$9into_iter17hb384de9305f72a42E', symObjAddr: 0x12D4, symBinAddr: 0x195B0, symSize: 0x30 }
  - { offset: 0x510B8, size: 0x8, addend: 0x0, symName: '__ZN63_$LT$I$u20$as$u20$core..iter..traits..collect..IntoIterator$GT$9into_iter17hbac05857e21ec8fdE', symObjAddr: 0x1304, symBinAddr: 0x195E0, symSize: 0x18 }
  - { offset: 0x510EF, size: 0x8, addend: 0x0, symName: '__ZN63_$LT$I$u20$as$u20$core..iter..traits..collect..IntoIterator$GT$9into_iter17hbfea0d3ec3d75bc0E', symObjAddr: 0x131C, symBinAddr: 0x195F8, symSize: 0x1C }
  - { offset: 0x51126, size: 0x8, addend: 0x0, symName: '__ZN63_$LT$I$u20$as$u20$core..iter..traits..collect..IntoIterator$GT$9into_iter17hce6ed7b683738a96E', symObjAddr: 0x1338, symBinAddr: 0x19614, symSize: 0x18 }
  - { offset: 0x5115D, size: 0x8, addend: 0x0, symName: '__ZN63_$LT$I$u20$as$u20$core..iter..traits..collect..IntoIterator$GT$9into_iter17hdf53556ed7aca33dE', symObjAddr: 0x1350, symBinAddr: 0x1962C, symSize: 0x1C }
  - { offset: 0x51194, size: 0x8, addend: 0x0, symName: '__ZN63_$LT$I$u20$as$u20$core..iter..traits..collect..IntoIterator$GT$9into_iter17hf1e5c2f45a2a10c7E', symObjAddr: 0x136C, symBinAddr: 0x19648, symSize: 0x18 }
  - { offset: 0x53F0D, size: 0x8, addend: 0x0, symName: '__ZN110_$LT$core..ops..range..RangeFrom$LT$usize$GT$$u20$as$u20$core..slice..index..SliceIndex$LT$$u5b$T$u5d$$GT$$GT$5index17h0349502d42baf061E', symObjAddr: 0x0, symBinAddr: 0x19778, symSize: 0x70 }
  - { offset: 0x546E1, size: 0x8, addend: 0x0, symName: '__ZN110_$LT$core..ops..range..RangeFrom$LT$usize$GT$$u20$as$u20$core..slice..index..SliceIndex$LT$$u5b$T$u5d$$GT$$GT$5index17h0349502d42baf061E', symObjAddr: 0x0, symBinAddr: 0x19778, symSize: 0x70 }
  - { offset: 0x54773, size: 0x8, addend: 0x0, symName: '__ZN110_$LT$core..ops..range..RangeFrom$LT$usize$GT$$u20$as$u20$core..slice..index..SliceIndex$LT$$u5b$T$u5d$$GT$$GT$5index17h9a7c703d7eccf825E', symObjAddr: 0x70, symBinAddr: 0x197E8, symSize: 0x70 }
  - { offset: 0x55AD4, size: 0x8, addend: 0x0, symName: __ZN4pyo311type_object11get_tp_free17h15b0dc9d9195149cE, symObjAddr: 0x0, symBinAddr: 0x19858, symSize: 0xA0 }
  - { offset: 0x56C8B, size: 0x8, addend: 0x0, symName: __ZN4pyo311type_object11get_tp_free17h15b0dc9d9195149cE, symObjAddr: 0x0, symBinAddr: 0x19858, symSize: 0xA0 }
  - { offset: 0x57102, size: 0x8, addend: 0x0, symName: '__ZN50_$LT$T$u20$as$u20$core..convert..Into$LT$U$GT$$GT$4into17hee17597f091ee946E', symObjAddr: 0x0, symBinAddr: 0x198F8, symSize: 0x14 }
  - { offset: 0x578C3, size: 0x8, addend: 0x0, symName: '__ZN50_$LT$T$u20$as$u20$core..convert..Into$LT$U$GT$$GT$4into17hee17597f091ee946E', symObjAddr: 0x0, symBinAddr: 0x198F8, symSize: 0x14 }
  - { offset: 0x578F4, size: 0x8, addend: 0x0, symName: '__ZN50_$LT$T$u20$as$u20$core..convert..Into$LT$U$GT$$GT$4into17hee17597f091ee946E', symObjAddr: 0x0, symBinAddr: 0x198F8, symSize: 0x14 }
  - { offset: 0x58A8E, size: 0x8, addend: 0x0, symName: __ZN4core7unicode12unicode_data11white_space6lookup17hbbee946ba04b4627E, symObjAddr: 0x0, symBinAddr: 0x1990C, symSize: 0x14C }
  - { offset: 0x58AAF, size: 0x8, addend: 0x0, symName: __ZN4core7unicode12unicode_data11white_space6lookup17hbbee946ba04b4627E, symObjAddr: 0x0, symBinAddr: 0x1990C, symSize: 0x14C }
  - { offset: 0x58B0D, size: 0x8, addend: 0x0, symName: __ZN3std9panicking12catch_unwind7do_call17h18c2f7d2a8eddf43E, symObjAddr: 0x0, symBinAddr: 0x19A58, symSize: 0x80 }
  - { offset: 0x5ACD2, size: 0x8, addend: 0x0, symName: __ZN3std9panicking12catch_unwind7do_call17h18c2f7d2a8eddf43E, symObjAddr: 0x0, symBinAddr: 0x19A58, symSize: 0x80 }
  - { offset: 0x5ADCD, size: 0x8, addend: 0x0, symName: __ZN3std9panicking12catch_unwind7do_call17h1b0f82a8e70c0aa1E, symObjAddr: 0x80, symBinAddr: 0x19AD8, symSize: 0x8C }
  - { offset: 0x5AEC8, size: 0x8, addend: 0x0, symName: __ZN3std9panicking12catch_unwind7do_call17h43d0e725d676ce6dE, symObjAddr: 0x10C, symBinAddr: 0x19B64, symSize: 0x8C }
  - { offset: 0x5AFC3, size: 0x8, addend: 0x0, symName: __ZN3std9panicking12catch_unwind7do_call17h7889bb7828a92c1bE, symObjAddr: 0x198, symBinAddr: 0x19BF0, symSize: 0x90 }
  - { offset: 0x5B0BE, size: 0x8, addend: 0x0, symName: __ZN3std9panicking12catch_unwind7do_call17hc3a86d640a98609aE, symObjAddr: 0x228, symBinAddr: 0x19C80, symSize: 0x8C }
  - { offset: 0x5B1B9, size: 0x8, addend: 0x0, symName: __ZN3std9panicking12catch_unwind8do_catch17h080ff2f53c655aa7E, symObjAddr: 0x2B4, symBinAddr: 0x19D0C, symSize: 0x70 }
  - { offset: 0x5B24E, size: 0x8, addend: 0x0, symName: __ZN3std9panicking12catch_unwind8do_catch17h82d887670fca6416E, symObjAddr: 0x324, symBinAddr: 0x19D7C, symSize: 0x70 }
  - { offset: 0x5B2E3, size: 0x8, addend: 0x0, symName: __ZN3std9panicking12catch_unwind8do_catch17hb5749cab0cbaf4f8E, symObjAddr: 0x394, symBinAddr: 0x19DEC, symSize: 0x70 }
  - { offset: 0x5B378, size: 0x8, addend: 0x0, symName: __ZN3std9panicking12catch_unwind8do_catch17hcb414f9c45a1c67dE, symObjAddr: 0x404, symBinAddr: 0x19E5C, symSize: 0x70 }
  - { offset: 0x5B40D, size: 0x8, addend: 0x0, symName: __ZN3std9panicking12catch_unwind8do_catch17he17118b73e07a582E, symObjAddr: 0x474, symBinAddr: 0x19ECC, symSize: 0x70 }
  - { offset: 0x5B857, size: 0x8, addend: 0x0, symName: __ZN8pyo3_ffi10boolobject7Py_True17heb850b7039725cf8E, symObjAddr: 0x0, symBinAddr: 0x19F3C, symSize: 0xC }
  - { offset: 0x5B8D4, size: 0x8, addend: 0x0, symName: __ZN8pyo3_ffi10boolobject7Py_True17heb850b7039725cf8E, symObjAddr: 0x0, symBinAddr: 0x19F3C, symSize: 0xC }
  - { offset: 0x5B8F1, size: 0x8, addend: 0x0, symName: __ZN8pyo3_ffi10boolobject8Py_False17hcebec32b57d0e831E, symObjAddr: 0xC, symBinAddr: 0x19F48, symSize: 0xC }
  - { offset: 0x5CD48, size: 0x8, addend: 0x0, symName: '__ZN111_$LT$alloc..vec..Vec$LT$T$GT$$u20$as$u20$alloc..vec..spec_from_iter_nested..SpecFromIterNested$LT$T$C$I$GT$$GT$9from_iter17h0c1178c03b43c43aE', symObjAddr: 0x0, symBinAddr: 0x19F54, symSize: 0x130 }
  - { offset: 0x60AAD, size: 0x8, addend: 0x0, symName: '__ZN111_$LT$alloc..vec..Vec$LT$T$GT$$u20$as$u20$alloc..vec..spec_from_iter_nested..SpecFromIterNested$LT$T$C$I$GT$$GT$9from_iter17h0c1178c03b43c43aE', symObjAddr: 0x0, symBinAddr: 0x19F54, symSize: 0x130 }
  - { offset: 0x60B6E, size: 0x8, addend: 0x0, symName: '__ZN111_$LT$alloc..vec..Vec$LT$T$GT$$u20$as$u20$alloc..vec..spec_from_iter_nested..SpecFromIterNested$LT$T$C$I$GT$$GT$9from_iter17h4e112b2d8fa753b5E', symObjAddr: 0x130, symBinAddr: 0x1A084, symSize: 0x130 }
  - { offset: 0x60C30, size: 0x8, addend: 0x0, symName: '__ZN111_$LT$alloc..vec..Vec$LT$T$GT$$u20$as$u20$alloc..vec..spec_from_iter_nested..SpecFromIterNested$LT$T$C$I$GT$$GT$9from_iter17h7848865d1e17fe31E', symObjAddr: 0x6F8, symBinAddr: 0x1A64C, symSize: 0x130 }
  - { offset: 0x60CF1, size: 0x8, addend: 0x0, symName: '__ZN111_$LT$alloc..vec..Vec$LT$T$GT$$u20$as$u20$alloc..vec..spec_from_iter_nested..SpecFromIterNested$LT$T$C$I$GT$$GT$9from_iter17ha2480b63992eb739E', symObjAddr: 0x828, symBinAddr: 0x1A77C, symSize: 0x130 }
  - { offset: 0x60DB3, size: 0x8, addend: 0x0, symName: '__ZN111_$LT$alloc..vec..Vec$LT$T$GT$$u20$as$u20$alloc..vec..spec_from_iter_nested..SpecFromIterNested$LT$T$C$I$GT$$GT$9from_iter17hade58068dc5baa6cE', symObjAddr: 0x958, symBinAddr: 0x1A8AC, symSize: 0x130 }
  - { offset: 0x60E75, size: 0x8, addend: 0x0, symName: '__ZN111_$LT$alloc..vec..Vec$LT$T$GT$$u20$as$u20$alloc..vec..spec_from_iter_nested..SpecFromIterNested$LT$T$C$I$GT$$GT$9from_iter17hdea1af221960e6d6E', symObjAddr: 0xCC0, symBinAddr: 0x1AC14, symSize: 0x130 }
  - { offset: 0x60F36, size: 0x8, addend: 0x0, symName: '__ZN111_$LT$alloc..vec..Vec$LT$T$GT$$u20$as$u20$alloc..vec..spec_from_iter_nested..SpecFromIterNested$LT$T$C$I$GT$$GT$9from_iter17he0b8ebb462d8a03eE', symObjAddr: 0xDF0, symBinAddr: 0x1AD44, symSize: 0x130 }
  - { offset: 0x60FF8, size: 0x8, addend: 0x0, symName: '__ZN111_$LT$alloc..vec..Vec$LT$T$GT$$u20$as$u20$alloc..vec..spec_from_iter_nested..SpecFromIterNested$LT$T$C$I$GT$$GT$9from_iter17he5768741f5e8e671E', symObjAddr: 0xF20, symBinAddr: 0x1AE74, symSize: 0x130 }
  - { offset: 0x610BF, size: 0x8, addend: 0x0, symName: '__ZN111_$LT$alloc..vec..Vec$LT$T$GT$$u20$as$u20$alloc..vec..spec_from_iter_nested..SpecFromIterNested$LT$T$C$I$GT$$GT$9from_iter17h4e204dca8d9648d1E', symObjAddr: 0x260, symBinAddr: 0x1A1B4, symSize: 0x244 }
  - { offset: 0x6131D, size: 0x8, addend: 0x0, symName: '__ZN111_$LT$alloc..vec..Vec$LT$T$GT$$u20$as$u20$alloc..vec..spec_from_iter_nested..SpecFromIterNested$LT$T$C$I$GT$$GT$9from_iter17h688d382d333f6582E', symObjAddr: 0x4A4, symBinAddr: 0x1A3F8, symSize: 0x254 }
  - { offset: 0x6157B, size: 0x8, addend: 0x0, symName: '__ZN111_$LT$alloc..vec..Vec$LT$T$GT$$u20$as$u20$alloc..vec..spec_from_iter_nested..SpecFromIterNested$LT$T$C$I$GT$$GT$9from_iter17hd8624e5b9778539dE', symObjAddr: 0xA88, symBinAddr: 0x1A9DC, symSize: 0x238 }
  - { offset: 0x61D25, size: 0x8, addend: 0x0, symName: '__ZN5alloc3vec16Vec$LT$T$C$A$GT$6retain28_$u7b$$u7b$closure$u7d$$u7d$17hd2f49ced418d5e6aE', symObjAddr: 0x2750, symBinAddr: 0x1C6A4, symSize: 0x30 }
  - { offset: 0x61E44, size: 0x8, addend: 0x0, symName: '__ZN5alloc3vec16Vec$LT$T$C$A$GT$14extend_trusted28_$u7b$$u7b$closure$u7d$$u7d$17h162b418e6e4a2660E', symObjAddr: 0x1E68, symBinAddr: 0x1BDBC, symSize: 0x3C }
  - { offset: 0x61EF9, size: 0x8, addend: 0x0, symName: '__ZN5alloc3vec16Vec$LT$T$C$A$GT$14extend_trusted28_$u7b$$u7b$closure$u7d$$u7d$17h28180d569b36318eE', symObjAddr: 0x1EA4, symBinAddr: 0x1BDF8, symSize: 0x44 }
  - { offset: 0x61FA6, size: 0x8, addend: 0x0, symName: '__ZN5alloc3vec16Vec$LT$T$C$A$GT$14extend_trusted28_$u7b$$u7b$closure$u7d$$u7d$17h2b86427d2600552fE', symObjAddr: 0x1EE8, symBinAddr: 0x1BE3C, symSize: 0x34 }
  - { offset: 0x6204E, size: 0x8, addend: 0x0, symName: '__ZN5alloc3vec16Vec$LT$T$C$A$GT$14extend_trusted28_$u7b$$u7b$closure$u7d$$u7d$17h7e5918c97aea52d7E', symObjAddr: 0x1F1C, symBinAddr: 0x1BE70, symSize: 0x34 }
  - { offset: 0x620F6, size: 0x8, addend: 0x0, symName: '__ZN5alloc3vec16Vec$LT$T$C$A$GT$14extend_trusted28_$u7b$$u7b$closure$u7d$$u7d$17h8ec2fcac395f77e3E', symObjAddr: 0x1F50, symBinAddr: 0x1BEA4, symSize: 0x3C }
  - { offset: 0x621AB, size: 0x8, addend: 0x0, symName: '__ZN5alloc3vec16Vec$LT$T$C$A$GT$14extend_trusted28_$u7b$$u7b$closure$u7d$$u7d$17h968ad9c55ce8f701E', symObjAddr: 0x1F8C, symBinAddr: 0x1BEE0, symSize: 0x34 }
  - { offset: 0x62253, size: 0x8, addend: 0x0, symName: '__ZN5alloc3vec16Vec$LT$T$C$A$GT$14extend_trusted28_$u7b$$u7b$closure$u7d$$u7d$17hb06dbe88ceec122eE', symObjAddr: 0x1FC0, symBinAddr: 0x1BF14, symSize: 0x3C }
  - { offset: 0x62308, size: 0x8, addend: 0x0, symName: '__ZN5alloc3vec16Vec$LT$T$C$A$GT$14extend_trusted28_$u7b$$u7b$closure$u7d$$u7d$17hc6fc99d0076fc1fcE', symObjAddr: 0x1FFC, symBinAddr: 0x1BF50, symSize: 0x30 }
  - { offset: 0x62508, size: 0x8, addend: 0x0, symName: '__ZN72_$LT$alloc..vec..Vec$LT$T$C$A$GT$$u20$as$u20$core..ops..deref..Deref$GT$5deref17h1b7b613c0f0004e0E', symObjAddr: 0x2C8C, symBinAddr: 0x1CBE0, symSize: 0x20 }
  - { offset: 0x6268B, size: 0x8, addend: 0x0, symName: '__ZN81_$LT$alloc..vec..Vec$LT$T$C$A$GT$$u20$as$u20$core..ops..index..Index$LT$I$GT$$GT$5index17h22ae4b037df1ef4fE', symObjAddr: 0x2CAC, symBinAddr: 0x1CC00, symSize: 0x44 }
  - { offset: 0x627A4, size: 0x8, addend: 0x0, symName: '__ZN81_$LT$alloc..vec..Vec$LT$T$C$A$GT$$u20$as$u20$core..ops..index..Index$LT$I$GT$$GT$5index17h991755d243a9a05cE', symObjAddr: 0x2CF0, symBinAddr: 0x1CC44, symSize: 0x44 }
  - { offset: 0x628C3, size: 0x8, addend: 0x0, symName: '__ZN90_$LT$alloc..vec..Vec$LT$T$C$A$GT$$u20$as$u20$core..iter..traits..collect..IntoIterator$GT$9into_iter17h0757f06c0e3ea2ddE', symObjAddr: 0x2D34, symBinAddr: 0x1CC88, symSize: 0xB0 }
  - { offset: 0x62ABA, size: 0x8, addend: 0x0, symName: '__ZN90_$LT$alloc..vec..Vec$LT$T$C$A$GT$$u20$as$u20$core..iter..traits..collect..IntoIterator$GT$9into_iter17h1a332102c03787d6E', symObjAddr: 0x2DE4, symBinAddr: 0x1CD38, symSize: 0xA8 }
  - { offset: 0x62CB1, size: 0x8, addend: 0x0, symName: '__ZN90_$LT$alloc..vec..Vec$LT$T$C$A$GT$$u20$as$u20$core..iter..traits..collect..IntoIterator$GT$9into_iter17hd6ba9042dfedeaa1E', symObjAddr: 0x2E8C, symBinAddr: 0x1CDE0, symSize: 0xA8 }
  - { offset: 0x62EAE, size: 0x8, addend: 0x0, symName: '__ZN94_$LT$$RF$alloc..vec..Vec$LT$T$C$A$GT$$u20$as$u20$core..iter..traits..collect..IntoIterator$GT$9into_iter17h63008ee2bab79723E', symObjAddr: 0x2F34, symBinAddr: 0x1CE88, symSize: 0x60 }
  - { offset: 0x63093, size: 0x8, addend: 0x0, symName: '__ZN94_$LT$$RF$alloc..vec..Vec$LT$T$C$A$GT$$u20$as$u20$core..iter..traits..collect..IntoIterator$GT$9into_iter17haf53b5b581b97476E', symObjAddr: 0x2F94, symBinAddr: 0x1CEE8, symSize: 0x68 }
  - { offset: 0x6327E, size: 0x8, addend: 0x0, symName: '__ZN95_$LT$alloc..vec..Vec$LT$T$GT$$u20$as$u20$core..iter..traits..collect..FromIterator$LT$T$GT$$GT$9from_iter17h08ae752a990bb21eE', symObjAddr: 0x2FFC, symBinAddr: 0x1CF50, symSize: 0x38 }
  - { offset: 0x632BE, size: 0x8, addend: 0x0, symName: '__ZN95_$LT$alloc..vec..Vec$LT$T$GT$$u20$as$u20$core..iter..traits..collect..FromIterator$LT$T$GT$$GT$9from_iter17h1d346e0d5b548dd7E', symObjAddr: 0x3034, symBinAddr: 0x1CF88, symSize: 0x34 }
  - { offset: 0x632FF, size: 0x8, addend: 0x0, symName: '__ZN95_$LT$alloc..vec..Vec$LT$T$GT$$u20$as$u20$core..iter..traits..collect..FromIterator$LT$T$GT$$GT$9from_iter17h24bd090e612399b4E', symObjAddr: 0x3068, symBinAddr: 0x1CFBC, symSize: 0x34 }
  - { offset: 0x63340, size: 0x8, addend: 0x0, symName: '__ZN95_$LT$alloc..vec..Vec$LT$T$GT$$u20$as$u20$core..iter..traits..collect..FromIterator$LT$T$GT$$GT$9from_iter17h8120b992f1e702d1E', symObjAddr: 0x309C, symBinAddr: 0x1CFF0, symSize: 0x38 }
  - { offset: 0x63380, size: 0x8, addend: 0x0, symName: '__ZN95_$LT$alloc..vec..Vec$LT$T$GT$$u20$as$u20$core..iter..traits..collect..FromIterator$LT$T$GT$$GT$9from_iter17h838665e8ff6e4dfdE', symObjAddr: 0x30D4, symBinAddr: 0x1D028, symSize: 0x34 }
  - { offset: 0x633C1, size: 0x8, addend: 0x0, symName: '__ZN95_$LT$alloc..vec..Vec$LT$T$GT$$u20$as$u20$core..iter..traits..collect..FromIterator$LT$T$GT$$GT$9from_iter17ha04da68d21790c26E', symObjAddr: 0x3108, symBinAddr: 0x1D05C, symSize: 0x38 }
  - { offset: 0x63401, size: 0x8, addend: 0x0, symName: '__ZN95_$LT$alloc..vec..Vec$LT$T$GT$$u20$as$u20$core..iter..traits..collect..FromIterator$LT$T$GT$$GT$9from_iter17ha38dc9f757aba838E', symObjAddr: 0x3140, symBinAddr: 0x1D094, symSize: 0x38 }
  - { offset: 0x63441, size: 0x8, addend: 0x0, symName: '__ZN95_$LT$alloc..vec..Vec$LT$T$GT$$u20$as$u20$core..iter..traits..collect..FromIterator$LT$T$GT$$GT$9from_iter17hb6435acd19ccbc78E', symObjAddr: 0x3178, symBinAddr: 0x1D0CC, symSize: 0x34 }
  - { offset: 0x63482, size: 0x8, addend: 0x0, symName: '__ZN95_$LT$alloc..vec..Vec$LT$T$GT$$u20$as$u20$core..iter..traits..collect..FromIterator$LT$T$GT$$GT$9from_iter17hce7e6d24e08eed9aE', symObjAddr: 0x31AC, symBinAddr: 0x1D100, symSize: 0x34 }
  - { offset: 0x634C3, size: 0x8, addend: 0x0, symName: '__ZN95_$LT$alloc..vec..Vec$LT$T$GT$$u20$as$u20$core..iter..traits..collect..FromIterator$LT$T$GT$$GT$9from_iter17hf412718c85e17a37E', symObjAddr: 0x31E0, symBinAddr: 0x1D134, symSize: 0x34 }
  - { offset: 0x6350F, size: 0x8, addend: 0x0, symName: '__ZN97_$LT$alloc..vec..Vec$LT$T$C$A$GT$$u20$as$u20$alloc..vec..spec_extend..SpecExtend$LT$T$C$I$GT$$GT$11spec_extend17h05b079bb0642bfc8E', symObjAddr: 0x3214, symBinAddr: 0x1D168, symSize: 0x24 }
  - { offset: 0x63561, size: 0x8, addend: 0x0, symName: '__ZN97_$LT$alloc..vec..Vec$LT$T$C$A$GT$$u20$as$u20$alloc..vec..spec_extend..SpecExtend$LT$T$C$I$GT$$GT$11spec_extend17h2535fe7fb68475e7E', symObjAddr: 0x3238, symBinAddr: 0x1D18C, symSize: 0x24 }
  - { offset: 0x635B3, size: 0x8, addend: 0x0, symName: '__ZN97_$LT$alloc..vec..Vec$LT$T$C$A$GT$$u20$as$u20$alloc..vec..spec_extend..SpecExtend$LT$T$C$I$GT$$GT$11spec_extend17h2a597146b283915bE', symObjAddr: 0x325C, symBinAddr: 0x1D1B0, symSize: 0x24 }
  - { offset: 0x63605, size: 0x8, addend: 0x0, symName: '__ZN97_$LT$alloc..vec..Vec$LT$T$C$A$GT$$u20$as$u20$alloc..vec..spec_extend..SpecExtend$LT$T$C$I$GT$$GT$11spec_extend17h402a75d76f7f9f92E', symObjAddr: 0x3280, symBinAddr: 0x1D1D4, symSize: 0x34 }
  - { offset: 0x63656, size: 0x8, addend: 0x0, symName: '__ZN97_$LT$alloc..vec..Vec$LT$T$C$A$GT$$u20$as$u20$alloc..vec..spec_extend..SpecExtend$LT$T$C$I$GT$$GT$11spec_extend17h6179a4228ed2ee01E', symObjAddr: 0x32B4, symBinAddr: 0x1D208, symSize: 0x34 }
  - { offset: 0x636A7, size: 0x8, addend: 0x0, symName: '__ZN97_$LT$alloc..vec..Vec$LT$T$C$A$GT$$u20$as$u20$alloc..vec..spec_extend..SpecExtend$LT$T$C$I$GT$$GT$11spec_extend17h8197f5e122092e1cE', symObjAddr: 0x330C, symBinAddr: 0x1D260, symSize: 0x34 }
  - { offset: 0x636F8, size: 0x8, addend: 0x0, symName: '__ZN97_$LT$alloc..vec..Vec$LT$T$C$A$GT$$u20$as$u20$alloc..vec..spec_extend..SpecExtend$LT$T$C$I$GT$$GT$11spec_extend17ha7afb86fec9803cbE', symObjAddr: 0x3340, symBinAddr: 0x1D294, symSize: 0x24 }
  - { offset: 0x6374A, size: 0x8, addend: 0x0, symName: '__ZN97_$LT$alloc..vec..Vec$LT$T$C$A$GT$$u20$as$u20$alloc..vec..spec_extend..SpecExtend$LT$T$C$I$GT$$GT$11spec_extend17hb047083ce247fffbE', symObjAddr: 0x3388, symBinAddr: 0x1D2DC, symSize: 0x34 }
  - { offset: 0x637A1, size: 0x8, addend: 0x0, symName: '__ZN97_$LT$alloc..vec..Vec$LT$T$C$A$GT$$u20$as$u20$alloc..vec..spec_extend..SpecExtend$LT$T$C$I$GT$$GT$11spec_extend17h704f4343e5f18c30E', symObjAddr: 0x32E8, symBinAddr: 0x1D23C, symSize: 0x24 }
  - { offset: 0x637F3, size: 0x8, addend: 0x0, symName: '__ZN97_$LT$alloc..vec..Vec$LT$T$C$A$GT$$u20$as$u20$alloc..vec..spec_extend..SpecExtend$LT$T$C$I$GT$$GT$11spec_extend17haf69aa7316fd3a1aE', symObjAddr: 0x3364, symBinAddr: 0x1D2B8, symSize: 0x24 }
  - { offset: 0x63845, size: 0x8, addend: 0x0, symName: '__ZN97_$LT$alloc..vec..Vec$LT$T$C$A$GT$$u20$as$u20$alloc..vec..spec_extend..SpecExtend$LT$T$C$I$GT$$GT$11spec_extend17hfd488fe6a3ff20b3E', symObjAddr: 0x33BC, symBinAddr: 0x1D310, symSize: 0x24 }
  - { offset: 0x638A3, size: 0x8, addend: 0x0, symName: '__ZN98_$LT$alloc..vec..Vec$LT$T$GT$$u20$as$u20$alloc..vec..spec_from_iter..SpecFromIter$LT$T$C$I$GT$$GT$9from_iter17h2fe79c716ce87ccbE', symObjAddr: 0x33E0, symBinAddr: 0x1D334, symSize: 0x14 }
  - { offset: 0x638E2, size: 0x8, addend: 0x0, symName: '__ZN98_$LT$alloc..vec..Vec$LT$T$GT$$u20$as$u20$alloc..vec..spec_from_iter..SpecFromIter$LT$T$C$I$GT$$GT$9from_iter17h401735fff09b855eE', symObjAddr: 0x33F4, symBinAddr: 0x1D348, symSize: 0x2C }
  - { offset: 0x63920, size: 0x8, addend: 0x0, symName: '__ZN98_$LT$alloc..vec..Vec$LT$T$GT$$u20$as$u20$alloc..vec..spec_from_iter..SpecFromIter$LT$T$C$I$GT$$GT$9from_iter17h622946bf0348995fE', symObjAddr: 0x3420, symBinAddr: 0x1D374, symSize: 0x14 }
  - { offset: 0x6395F, size: 0x8, addend: 0x0, symName: '__ZN98_$LT$alloc..vec..Vec$LT$T$GT$$u20$as$u20$alloc..vec..spec_from_iter..SpecFromIter$LT$T$C$I$GT$$GT$9from_iter17h62c9f4177ac1d0d0E', symObjAddr: 0x3434, symBinAddr: 0x1D388, symSize: 0x2C }
  - { offset: 0x6399D, size: 0x8, addend: 0x0, symName: '__ZN98_$LT$alloc..vec..Vec$LT$T$GT$$u20$as$u20$alloc..vec..spec_from_iter..SpecFromIter$LT$T$C$I$GT$$GT$9from_iter17h6cdf5f386e2b8131E', symObjAddr: 0x3460, symBinAddr: 0x1D3B4, symSize: 0x14 }
  - { offset: 0x639DC, size: 0x8, addend: 0x0, symName: '__ZN98_$LT$alloc..vec..Vec$LT$T$GT$$u20$as$u20$alloc..vec..spec_from_iter..SpecFromIter$LT$T$C$I$GT$$GT$9from_iter17hb3faf7aafe45792dE', symObjAddr: 0x3474, symBinAddr: 0x1D3C8, symSize: 0x14 }
  - { offset: 0x63A1B, size: 0x8, addend: 0x0, symName: '__ZN98_$LT$alloc..vec..Vec$LT$T$GT$$u20$as$u20$alloc..vec..spec_from_iter..SpecFromIter$LT$T$C$I$GT$$GT$9from_iter17hcd43e6d8a8e31670E', symObjAddr: 0x3488, symBinAddr: 0x1D3DC, symSize: 0x2C }
  - { offset: 0x63A59, size: 0x8, addend: 0x0, symName: '__ZN98_$LT$alloc..vec..Vec$LT$T$GT$$u20$as$u20$alloc..vec..spec_from_iter..SpecFromIter$LT$T$C$I$GT$$GT$9from_iter17he2fef65bc4a5916aE', symObjAddr: 0x34B4, symBinAddr: 0x1D408, symSize: 0x14 }
  - { offset: 0x63A98, size: 0x8, addend: 0x0, symName: '__ZN98_$LT$alloc..vec..Vec$LT$T$GT$$u20$as$u20$alloc..vec..spec_from_iter..SpecFromIter$LT$T$C$I$GT$$GT$9from_iter17hf40df9ec4280abc2E', symObjAddr: 0x34C8, symBinAddr: 0x1D41C, symSize: 0x2C }
  - { offset: 0x63AD6, size: 0x8, addend: 0x0, symName: '__ZN98_$LT$alloc..vec..Vec$LT$T$GT$$u20$as$u20$alloc..vec..spec_from_iter..SpecFromIter$LT$T$C$I$GT$$GT$9from_iter17hf8b3b3c2480f9ff8E', symObjAddr: 0x34F4, symBinAddr: 0x1D448, symSize: 0x14 }
  - { offset: 0x643F9, size: 0x8, addend: 0x0, symName: '__ZN4pyo35types8sequence85_$LT$impl$u20$pyo3..conversion..FromPyObject$u20$for$u20$alloc..vec..Vec$LT$T$GT$$GT$7extract17h1bcab949219b8d5dE', symObjAddr: 0x1050, symBinAddr: 0x1AFA4, symSize: 0x7C }
  - { offset: 0x64F75, size: 0x8, addend: 0x0, symName: '__ZN5alloc3vec12Vec$LT$T$GT$13with_capacity17h0a617c4f8ac8866cE', symObjAddr: 0x10CC, symBinAddr: 0x1B020, symSize: 0x44 }
  - { offset: 0x6504F, size: 0x8, addend: 0x0, symName: '__ZN5alloc3vec12Vec$LT$T$GT$13with_capacity17h3125a5163bad2eb8E', symObjAddr: 0x1110, symBinAddr: 0x1B064, symSize: 0x40 }
  - { offset: 0x65129, size: 0x8, addend: 0x0, symName: '__ZN5alloc3vec12Vec$LT$T$GT$13with_capacity17h5f0c909180968596E', symObjAddr: 0x1150, symBinAddr: 0x1B0A4, symSize: 0x44 }
  - { offset: 0x651A1, size: 0x8, addend: 0x0, symName: '__ZN5alloc3vec12Vec$LT$T$GT$3new17ha7dec53efcdb0d7cE', symObjAddr: 0x1194, symBinAddr: 0x1B0E8, symSize: 0x14 }
  - { offset: 0x651E5, size: 0x8, addend: 0x0, symName: '__ZN5alloc3vec12Vec$LT$T$GT$3new17hebce4df9b4a1ababE', symObjAddr: 0x11A8, symBinAddr: 0x1B0FC, symSize: 0x14 }
  - { offset: 0x654A8, size: 0x8, addend: 0x0, symName: '__ZN5alloc3vec16Vec$LT$T$C$A$GT$10retain_mut17h9e97e5159cfb33e3E', symObjAddr: 0x11BC, symBinAddr: 0x1B110, symSize: 0x35C }
  - { offset: 0x65A70, size: 0x8, addend: 0x0, symName: '__ZN5alloc3vec16Vec$LT$T$C$A$GT$14extend_trusted17h19974f187f398bcbE', symObjAddr: 0x1518, symBinAddr: 0x1B46C, symSize: 0x130 }
  - { offset: 0x65C71, size: 0x8, addend: 0x0, symName: '__ZN5alloc3vec16Vec$LT$T$C$A$GT$14extend_trusted17h2ff92141d4ed609fE', symObjAddr: 0x1648, symBinAddr: 0x1B59C, symSize: 0x124 }
  - { offset: 0x65E98, size: 0x8, addend: 0x0, symName: '__ZN5alloc3vec16Vec$LT$T$C$A$GT$14extend_trusted17h6b02540488020c64E', symObjAddr: 0x176C, symBinAddr: 0x1B6C0, symSize: 0x124 }
  - { offset: 0x6608B, size: 0x8, addend: 0x0, symName: '__ZN5alloc3vec16Vec$LT$T$C$A$GT$14extend_trusted17h6d9cbfb775e8f35fE', symObjAddr: 0x1890, symBinAddr: 0x1B7E4, symSize: 0x124 }
  - { offset: 0x662B2, size: 0x8, addend: 0x0, symName: '__ZN5alloc3vec16Vec$LT$T$C$A$GT$14extend_trusted17h747975f227312c2fE', symObjAddr: 0x19B4, symBinAddr: 0x1B908, symSize: 0x130 }
  - { offset: 0x664A6, size: 0x8, addend: 0x0, symName: '__ZN5alloc3vec16Vec$LT$T$C$A$GT$14extend_trusted17h81dfbbb4423544faE', symObjAddr: 0x1AE4, symBinAddr: 0x1BA38, symSize: 0x130 }
  - { offset: 0x6669A, size: 0x8, addend: 0x0, symName: '__ZN5alloc3vec16Vec$LT$T$C$A$GT$14extend_trusted17ha35102fd710e36e3E', symObjAddr: 0x1C14, symBinAddr: 0x1BB68, symSize: 0x124 }
  - { offset: 0x668C1, size: 0x8, addend: 0x0, symName: '__ZN5alloc3vec16Vec$LT$T$C$A$GT$14extend_trusted17hb0ef3e60eef93bebE', symObjAddr: 0x1D38, symBinAddr: 0x1BC8C, symSize: 0x130 }
  - { offset: 0x66C12, size: 0x8, addend: 0x0, symName: '__ZN5alloc3vec16Vec$LT$T$C$A$GT$16extend_desugared17h37e16915332a4ae1E', symObjAddr: 0x202C, symBinAddr: 0x1BF80, symSize: 0x1C0 }
  - { offset: 0x67143, size: 0x8, addend: 0x0, symName: '__ZN5alloc3vec16Vec$LT$T$C$A$GT$16extend_desugared17h9d86dfa507972f48E', symObjAddr: 0x21EC, symBinAddr: 0x1C140, symSize: 0x1DC }
  - { offset: 0x67512, size: 0x8, addend: 0x0, symName: '__ZN5alloc3vec16Vec$LT$T$C$A$GT$16extend_desugared17hb19a7bc87d5c23ecE', symObjAddr: 0x23C8, symBinAddr: 0x1C31C, symSize: 0x1C0 }
  - { offset: 0x67786, size: 0x8, addend: 0x0, symName: '__ZN5alloc3vec16Vec$LT$T$C$A$GT$3len17h24fc4837cc08bb13E', symObjAddr: 0x2588, symBinAddr: 0x1C4DC, symSize: 0x18 }
  - { offset: 0x67916, size: 0x8, addend: 0x0, symName: '__ZN5alloc3vec16Vec$LT$T$C$A$GT$3pop17h50f5e1b8e44356dcE', symObjAddr: 0x25A0, symBinAddr: 0x1C4F4, symSize: 0xE0 }
  - { offset: 0x67A82, size: 0x8, addend: 0x0, symName: '__ZN5alloc3vec16Vec$LT$T$C$A$GT$4push17h4d542c7d0ec89c54E', symObjAddr: 0x2680, symBinAddr: 0x1C5D4, symSize: 0x28 }
  - { offset: 0x67AC6, size: 0x8, addend: 0x0, symName: '__ZN5alloc3vec16Vec$LT$T$C$A$GT$4push17hdbdcae9bf37c387aE', symObjAddr: 0x26A8, symBinAddr: 0x1C5FC, symSize: 0x2C }
  - { offset: 0x67B17, size: 0x8, addend: 0x0, symName: '__ZN5alloc3vec16Vec$LT$T$C$A$GT$4push17hec728c03a0c6cb26E', symObjAddr: 0x26D4, symBinAddr: 0x1C628, symSize: 0x30 }
  - { offset: 0x67B5B, size: 0x8, addend: 0x0, symName: '__ZN5alloc3vec16Vec$LT$T$C$A$GT$6retain17hd0958e0c567e0261E', symObjAddr: 0x2704, symBinAddr: 0x1C658, symSize: 0x4C }
  - { offset: 0x67CD8, size: 0x8, addend: 0x0, symName: '__ZN5alloc3vec16Vec$LT$T$C$A$GT$7reserve17h04b441be4dcceddaE', symObjAddr: 0x2780, symBinAddr: 0x1C6D4, symSize: 0xA0 }
  - { offset: 0x67F3C, size: 0x8, addend: 0x0, symName: '__ZN5alloc3vec16Vec$LT$T$C$A$GT$7reserve17h16c342efa03c46c6E', symObjAddr: 0x2820, symBinAddr: 0x1C774, symSize: 0xA8 }
  - { offset: 0x681A0, size: 0x8, addend: 0x0, symName: '__ZN5alloc3vec16Vec$LT$T$C$A$GT$7reserve17h7ed153a6fe969520E', symObjAddr: 0x28C8, symBinAddr: 0x1C81C, symSize: 0xA8 }
  - { offset: 0x68404, size: 0x8, addend: 0x0, symName: '__ZN5alloc3vec16Vec$LT$T$C$A$GT$7reserve17haf128243029fb1d2E', symObjAddr: 0x2970, symBinAddr: 0x1C8C4, symSize: 0xA0 }
  - { offset: 0x6863F, size: 0x8, addend: 0x0, symName: '__ZN5alloc3vec16Vec$LT$T$C$A$GT$8push_mut17h3169e6c09a2c7d8aE', symObjAddr: 0x2A10, symBinAddr: 0x1C964, symSize: 0xD0 }
  - { offset: 0x688A1, size: 0x8, addend: 0x0, symName: '__ZN5alloc3vec16Vec$LT$T$C$A$GT$8push_mut17h94037803ab53e8e1E', symObjAddr: 0x2AE0, symBinAddr: 0x1CA34, symSize: 0xCC }
  - { offset: 0x68B37, size: 0x8, addend: 0x0, symName: '__ZN5alloc3vec16Vec$LT$T$C$A$GT$8push_mut17hb5c0772302fbcee5E', symObjAddr: 0x2BAC, symBinAddr: 0x1CB00, symSize: 0xE0 }
  - { offset: 0x6961E, size: 0x8, addend: 0x0, symName: '__ZN109_$LT$pyo3..pyclass_init..PyClassInitializer$LT$T$GT$$u20$as$u20$pyo3..pyclass_init..PyObjectInit$LT$T$GT$$GT$15into_new_object17h568152d4acfd52b9E', symObjAddr: 0x0, symBinAddr: 0x1D45C, symSize: 0x234 }
  - { offset: 0x6AF1F, size: 0x8, addend: 0x0, symName: '__ZN109_$LT$pyo3..pyclass_init..PyClassInitializer$LT$T$GT$$u20$as$u20$pyo3..pyclass_init..PyObjectInit$LT$T$GT$$GT$15into_new_object17h568152d4acfd52b9E', symObjAddr: 0x0, symBinAddr: 0x1D45C, symSize: 0x234 }
  - { offset: 0x6B0AD, size: 0x8, addend: 0x0, symName: '__ZN114_$LT$pyo3..pyclass_init..PyNativeTypeInitializer$LT$T$GT$$u20$as$u20$pyo3..pyclass_init..PyObjectInit$LT$T$GT$$GT$15into_new_object17h4a51872e8c5cb6bcE', symObjAddr: 0x234, symBinAddr: 0x1D690, symSize: 0x3C }
  - { offset: 0x6B23D, size: 0x8, addend: 0x0, symName: '__ZN4pyo312pyclass_init27PyClassInitializer$LT$T$GT$24create_cell_from_subtype28_$u7b$$u7b$closure$u7d$$u7d$17h294f994afa1b3176E', symObjAddr: 0x2B8, symBinAddr: 0x1D714, symSize: 0x14 }
  - { offset: 0x6B28A, size: 0x8, addend: 0x0, symName: '__ZN96_$LT$pyo3..pyclass_init..PyClassInitializer$LT$T$GT$$u20$as$u20$core..convert..From$LT$T$GT$$GT$4from17h3e8a141f2a599628E', symObjAddr: 0x2EC, symBinAddr: 0x1D748, symSize: 0x24 }
  - { offset: 0x6C287, size: 0x8, addend: 0x0, symName: '__ZN4pyo312pyclass_init27PyClassInitializer$LT$T$GT$24create_cell_from_subtype17h06d5a29a3f625f16E', symObjAddr: 0x270, symBinAddr: 0x1D6CC, symSize: 0x48 }
  - { offset: 0x6C2D9, size: 0x8, addend: 0x0, symName: '__ZN4pyo312pyclass_init27PyClassInitializer$LT$T$GT$3new17h9f1bf2a3fc92beb3E', symObjAddr: 0x2CC, symBinAddr: 0x1D728, symSize: 0x20 }
  - { offset: 0x6C33D, size: 0x8, addend: 0x0, symName: __ZN4pyo35types4dict6PyDict8get_item17hcc1eba7150691040E, symObjAddr: 0x0, symBinAddr: 0x1D76C, symSize: 0x80 }
  - { offset: 0x6D862, size: 0x8, addend: 0x0, symName: '__ZN63_$LT$I$u20$as$u20$core..iter..traits..collect..IntoIterator$GT$9into_iter17h57451b629c53056cE', symObjAddr: 0x29C, symBinAddr: 0x1DA08, symSize: 0x14 }
  - { offset: 0x6DBE7, size: 0x8, addend: 0x0, symName: '__ZN53_$LT$T$u20$as$u20$pyo3..conversion..FromPyPointer$GT$24from_borrowed_ptr_or_opt17hce1bd3c7c85df2a0E', symObjAddr: 0x274, symBinAddr: 0x1D9E0, symSize: 0x28 }
  - { offset: 0x6E173, size: 0x8, addend: 0x0, symName: __ZN4pyo35types4dict6PyDict8get_item17hcc1eba7150691040E, symObjAddr: 0x0, symBinAddr: 0x1D76C, symSize: 0x80 }
  - { offset: 0x6E1DA, size: 0x8, addend: 0x0, symName: __ZN4pyo35types4dict6PyDict8set_item17h712361cbe20214bdE, symObjAddr: 0x80, symBinAddr: 0x1D7EC, symSize: 0x10C }
  - { offset: 0x6E330, size: 0x8, addend: 0x0, symName: __ZN4pyo35types4dict6PyDict8set_item17h8c9e0671cd2769aaE, symObjAddr: 0x18C, symBinAddr: 0x1D8F8, symSize: 0xE8 }
  - { offset: 0x6E3EB, size: 0x8, addend: 0x0, symName: '__ZN4pyo35types10boolobject63_$LT$impl$u20$pyo3..conversion..ToPyObject$u20$for$u20$bool$GT$9to_object17h7a268764f9dc58aeE', symObjAddr: 0x0, symBinAddr: 0x1DA1C, symSize: 0x4C }
  - { offset: 0x6F5AD, size: 0x8, addend: 0x0, symName: '__ZN4pyo35types10boolobject63_$LT$impl$u20$pyo3..conversion..ToPyObject$u20$for$u20$bool$GT$9to_object17h7a268764f9dc58aeE', symObjAddr: 0x0, symBinAddr: 0x1DA1C, symSize: 0x4C }
  - { offset: 0x6FB79, size: 0x8, addend: 0x0, symName: '__ZN92_$LT$hashbrown..map..Iter$LT$K$C$V$GT$$u20$as$u20$core..iter..traits..iterator..Iterator$GT$4next17h8635bd1afb9f5369E', symObjAddr: 0x0, symBinAddr: 0x1DA68, symSize: 0xF0 }
  - { offset: 0x6FE3F, size: 0x8, addend: 0x0, symName: '__ZN92_$LT$hashbrown..map..Iter$LT$K$C$V$GT$$u20$as$u20$core..iter..traits..iterator..Iterator$GT$4next17h8635bd1afb9f5369E', symObjAddr: 0x0, symBinAddr: 0x1DA68, symSize: 0xF0 }
  - { offset: 0x708FB, size: 0x8, addend: 0x0, symName: '__ZN9hashbrown3map28HashMap$LT$K$C$V$C$S$C$A$GT$4iter17hb7d5dbd3fc499b6eE', symObjAddr: 0xF0, symBinAddr: 0x1DB58, symSize: 0xA8 }
  - { offset: 0x70ABE, size: 0x8, addend: 0x0, symName: __ZN4pyo35impl_10trampoline10trampoline17h3423f6ed7042b0a8E, symObjAddr: 0x0, symBinAddr: 0x1DC00, symSize: 0x158 }
  - { offset: 0x71F8A, size: 0x8, addend: 0x0, symName: __ZN4pyo35impl_10trampoline10trampoline17h3423f6ed7042b0a8E, symObjAddr: 0x0, symBinAddr: 0x1DC00, symSize: 0x158 }
  - { offset: 0x7202D, size: 0x8, addend: 0x0, symName: __ZN4pyo35impl_10trampoline10trampoline17h4ac8eb98fec886b4E, symObjAddr: 0x158, symBinAddr: 0x1DD58, symSize: 0x164 }
  - { offset: 0x720D1, size: 0x8, addend: 0x0, symName: __ZN4pyo35impl_10trampoline10trampoline17ha10430f67287f7e7E, symObjAddr: 0x2BC, symBinAddr: 0x1DEBC, symSize: 0x168 }
  - { offset: 0x72175, size: 0x8, addend: 0x0, symName: __ZN4pyo35impl_10trampoline10trampoline17hc16b066e286bec45E, symObjAddr: 0x424, symBinAddr: 0x1E024, symSize: 0x164 }
  - { offset: 0x7221E, size: 0x8, addend: 0x0, symName: '__ZN4pyo35impl_10trampoline10trampoline28_$u7b$$u7b$closure$u7d$$u7d$17h31ed673592903292E', symObjAddr: 0x588, symBinAddr: 0x1E188, symSize: 0x2C }
  - { offset: 0x7226C, size: 0x8, addend: 0x0, symName: '__ZN4pyo35impl_10trampoline10trampoline28_$u7b$$u7b$closure$u7d$$u7d$17h6f06ab5bf05edad6E', symObjAddr: 0x5B4, symBinAddr: 0x1E1B4, symSize: 0x24 }
  - { offset: 0x722BA, size: 0x8, addend: 0x0, symName: '__ZN4pyo35impl_10trampoline10trampoline28_$u7b$$u7b$closure$u7d$$u7d$17h9470a999bd218e19E', symObjAddr: 0x5D8, symBinAddr: 0x1E1D8, symSize: 0x2C }
  - { offset: 0x72308, size: 0x8, addend: 0x0, symName: '__ZN4pyo35impl_10trampoline10trampoline28_$u7b$$u7b$closure$u7d$$u7d$17hd61d15d2fedbd1d2E', symObjAddr: 0x604, symBinAddr: 0x1E204, symSize: 0x34 }
  - { offset: 0x7235D, size: 0x8, addend: 0x0, symName: '__ZN4pyo35impl_10trampoline11module_init28_$u7b$$u7b$closure$u7d$$u7d$17h8235e25049e31068E', symObjAddr: 0x638, symBinAddr: 0x1E238, symSize: 0x40 }
  - { offset: 0x723A9, size: 0x8, addend: 0x0, symName: '__ZN4pyo35impl_10trampoline11module_init28_$u7b$$u7b$closure$u7d$$u7d$28_$u7b$$u7b$closure$u7d$$u7d$17hb093e466b61e80b1E', symObjAddr: 0x678, symBinAddr: 0x1E278, symSize: 0x24 }
  - { offset: 0x723FB, size: 0x8, addend: 0x0, symName: __ZN4pyo35impl_10trampoline21trampoline_unraisable17he769f03ebbda22f1E, symObjAddr: 0x69C, symBinAddr: 0x1E29C, symSize: 0x200 }
  - { offset: 0x7249E, size: 0x8, addend: 0x0, symName: '__ZN4pyo35impl_10trampoline21trampoline_unraisable28_$u7b$$u7b$closure$u7d$$u7d$17h2f902d775c08c691E', symObjAddr: 0x89C, symBinAddr: 0x1E49C, symSize: 0x50 }
  - { offset: 0x724DD, size: 0x8, addend: 0x0, symName: '__ZN4pyo35impl_10trampoline21trampoline_unraisable28_$u7b$$u7b$closure$u7d$$u7d$17h592fa09b8e2899bcE', symObjAddr: 0x8EC, symBinAddr: 0x1E4EC, symSize: 0x2C }
  - { offset: 0x7252F, size: 0x8, addend: 0x0, symName: '__ZN4pyo35impl_10trampoline6noargs28_$u7b$$u7b$closure$u7d$$u7d$17h92d39ed2fc22b180E', symObjAddr: 0x918, symBinAddr: 0x1E518, symSize: 0x34 }
  - { offset: 0x725AC, size: 0x8, addend: 0x0, symName: '__ZN4pyo35impl_10trampoline7dealloc28_$u7b$$u7b$closure$u7d$$u7d$17he80b54fcd329211cE', symObjAddr: 0x94C, symBinAddr: 0x1E54C, symSize: 0x40 }
  - { offset: 0x72629, size: 0x8, addend: 0x0, symName: '__ZN4pyo35impl_10trampoline7newfunc28_$u7b$$u7b$closure$u7d$$u7d$17h213f621bf8f894beE', symObjAddr: 0x98C, symBinAddr: 0x1E58C, symSize: 0x40 }
  - { offset: 0x726DA, size: 0x8, addend: 0x0, symName: '__ZN4pyo35impl_10trampoline8reprfunc28_$u7b$$u7b$closure$u7d$$u7d$17hf7b447f16eb66283E', symObjAddr: 0x9CC, symBinAddr: 0x1E5CC, symSize: 0x34 }
  - { offset: 0x73046, size: 0x8, addend: 0x0, symName: '__ZN4core4char7methods22_$LT$impl$u20$char$GT$13is_whitespace17he5fe9d3048725ef1E', symObjAddr: 0x0, symBinAddr: 0x1E600, symSize: 0x90 }
  - { offset: 0x73067, size: 0x8, addend: 0x0, symName: '__ZN4core4char7methods22_$LT$impl$u20$char$GT$13is_whitespace17he5fe9d3048725ef1E', symObjAddr: 0x0, symBinAddr: 0x1E600, symSize: 0x90 }
  - { offset: 0x730AB, size: 0x8, addend: 0x0, symName: '__ZN4core4char7methods22_$LT$impl$u20$char$GT$14is_ascii_digit17hdc7065de75fe395eE', symObjAddr: 0x90, symBinAddr: 0x1E690, symSize: 0x64 }
  - { offset: 0x730D9, size: 0x8, addend: 0x0, symName: '__ZN4core4char7methods22_$LT$impl$u20$char$GT$8to_digit17hfd2f6a743dd6aa15E', symObjAddr: 0xF4, symBinAddr: 0x1E6F4, symSize: 0x120 }
  - { offset: 0x73253, size: 0x8, addend: 0x0, symName: __ZN4core4hint16assert_unchecked18precondition_check17h11ab8fc9b09692d5E, symObjAddr: 0x0, symBinAddr: 0x1E814, symSize: 0x58 }
  - { offset: 0x7326F, size: 0x8, addend: 0x0, symName: __ZN4core4hint16assert_unchecked18precondition_check17h11ab8fc9b09692d5E, symObjAddr: 0x0, symBinAddr: 0x1E814, symSize: 0x58 }
  - { offset: 0x732BA, size: 0x8, addend: 0x0, symName: __ZN4core4hint21unreachable_unchecked18precondition_check17h7509088652b3d14fE, symObjAddr: 0x58, symBinAddr: 0x1E86C, symSize: 0x3C }
  - { offset: 0x7334E, size: 0x8, addend: 0x0, symName: '__ZN102_$LT$core..str..iter..CharIndices$u20$as$u20$core..iter..traits..double_ended..DoubleEndedIterator$GT$9next_back17hdc2274a071eb2283E', symObjAddr: 0x0, symBinAddr: 0x1E8A8, symSize: 0x180 }
  - { offset: 0x73435, size: 0x8, addend: 0x0, symName: '__ZN102_$LT$core..str..iter..CharIndices$u20$as$u20$core..iter..traits..double_ended..DoubleEndedIterator$GT$9next_back17hdc2274a071eb2283E', symObjAddr: 0x0, symBinAddr: 0x1E8A8, symSize: 0x180 }
  - { offset: 0x736A2, size: 0x8, addend: 0x0, symName: '__ZN81_$LT$core..str..iter..Chars$u20$as$u20$core..iter..traits..iterator..Iterator$GT$4next17h461b6b7337e92de8E', symObjAddr: 0x180, symBinAddr: 0x1EA28, symSize: 0x80 }
  - { offset: 0x7375F, size: 0x8, addend: 0x0, symName: '__ZN87_$LT$core..str..iter..CharIndices$u20$as$u20$core..iter..traits..iterator..Iterator$GT$4next17h5537352b6841687eE', symObjAddr: 0x200, symBinAddr: 0x1EAA8, symSize: 0x1A4 }
  - { offset: 0x7410E, size: 0x8, addend: 0x0, symName: '__ZN63_$LT$I$u20$as$u20$core..iter..traits..collect..IntoIterator$GT$9into_iter17h77328f228d24e744E', symObjAddr: 0x0, symBinAddr: 0x1EC4C, symSize: 0x14 }
  - { offset: 0x748AC, size: 0x8, addend: 0x0, symName: '__ZN63_$LT$I$u20$as$u20$core..iter..traits..collect..IntoIterator$GT$9into_iter17h77328f228d24e744E', symObjAddr: 0x0, symBinAddr: 0x1EC4C, symSize: 0x14 }
  - { offset: 0x75681, size: 0x8, addend: 0x0, symName: '__ZN4core3cmp5impls70_$LT$impl$u20$core..cmp..PartialOrd$LT$$RF$B$GT$$u20$for$u20$$RF$A$GT$2gt17h3792be04238e5796E', symObjAddr: 0x0, symBinAddr: 0x1EC60, symSize: 0x44 }
  - { offset: 0x756FC, size: 0x8, addend: 0x0, symName: '__ZN4core3cmp5impls70_$LT$impl$u20$core..cmp..PartialOrd$LT$$RF$B$GT$$u20$for$u20$$RF$A$GT$2gt17h3792be04238e5796E', symObjAddr: 0x0, symBinAddr: 0x1EC60, symSize: 0x44 }
  - { offset: 0x75771, size: 0x8, addend: 0x0, symName: '__ZN4core3cmp5impls70_$LT$impl$u20$core..cmp..PartialOrd$LT$$RF$B$GT$$u20$for$u20$$RF$A$GT$2gt17h71ceb95da8f49b6dE', symObjAddr: 0x44, symBinAddr: 0x1ECA4, symSize: 0x44 }
  - { offset: 0x757E6, size: 0x8, addend: 0x0, symName: '__ZN4core3cmp5impls70_$LT$impl$u20$core..cmp..PartialOrd$LT$$RF$B$GT$$u20$for$u20$$RF$A$GT$2lt17h1a2a373ef0c88d66E', symObjAddr: 0x88, symBinAddr: 0x1ECE8, symSize: 0x44 }
  - { offset: 0x7585B, size: 0x8, addend: 0x0, symName: '__ZN4core3cmp5impls70_$LT$impl$u20$core..cmp..PartialOrd$LT$$RF$B$GT$$u20$for$u20$$RF$A$GT$2lt17hbd9236c9f27e4811E', symObjAddr: 0xCC, symBinAddr: 0x1ED2C, symSize: 0x44 }
  - { offset: 0x75995, size: 0x8, addend: 0x0, symName: '__ZN48_$LT$$RF$A$u20$as$u20$core..alloc..Allocator$GT$10deallocate17h9668ef340d10488fE', symObjAddr: 0x0, symBinAddr: 0x1ED70, symSize: 0x38 }
  - { offset: 0x75C87, size: 0x8, addend: 0x0, symName: '__ZN48_$LT$$RF$A$u20$as$u20$core..alloc..Allocator$GT$10deallocate17h9668ef340d10488fE', symObjAddr: 0x0, symBinAddr: 0x1ED70, symSize: 0x38 }
  - { offset: 0x75D70, size: 0x8, addend: 0x0, symName: '__ZN3std6thread5local17LocalKey$LT$T$GT$4with17h9bb25d63e6fe5adfE', symObjAddr: 0x0, symBinAddr: 0x1EDA8, symSize: 0x48 }
  - { offset: 0x76D70, size: 0x8, addend: 0x0, symName: '__ZN3std6thread5local17LocalKey$LT$T$GT$4with17h9bb25d63e6fe5adfE', symObjAddr: 0x0, symBinAddr: 0x1EDA8, symSize: 0x48 }
  - { offset: 0x76E29, size: 0x8, addend: 0x0, symName: '__ZN3std6thread5local17LocalKey$LT$T$GT$8try_with17h5c81d2e04ee050e4E', symObjAddr: 0x48, symBinAddr: 0x1EDF0, symSize: 0xD8 }
  - { offset: 0x76F88, size: 0x8, addend: 0x0, symName: '__ZN110_$LT$core..iter..adapters..enumerate..Enumerate$LT$I$GT$$u20$as$u20$core..iter..traits..iterator..Iterator$GT$4next17hcdf3bf1904163762E', symObjAddr: 0x0, symBinAddr: 0x1EEC8, symSize: 0xE0 }
  - { offset: 0x78216, size: 0x8, addend: 0x0, symName: '__ZN110_$LT$core..iter..adapters..enumerate..Enumerate$LT$I$GT$$u20$as$u20$core..iter..traits..iterator..Iterator$GT$4next17hcdf3bf1904163762E', symObjAddr: 0x0, symBinAddr: 0x1EEC8, symSize: 0xE0 }
  - { offset: 0x78368, size: 0x8, addend: 0x0, symName: '__ZN63_$LT$I$u20$as$u20$core..iter..traits..collect..IntoIterator$GT$9into_iter17h56d91a5621c238a5E', symObjAddr: 0xE0, symBinAddr: 0x1EFA8, symSize: 0x30 }
  - { offset: 0x788C2, size: 0x8, addend: 0x0, symName: __ZN5alloc3fmt6format17hd8185c1207021ea2E, symObjAddr: 0x0, symBinAddr: 0x1EFD8, symSize: 0xD8 }
  - { offset: 0x78DDA, size: 0x8, addend: 0x0, symName: __ZN5alloc3fmt6format17hd8185c1207021ea2E, symObjAddr: 0x0, symBinAddr: 0x1EFD8, symSize: 0xD8 }
  - { offset: 0x78F8A, size: 0x8, addend: 0x0, symName: '__ZN4pyo35types5tuple131_$LT$impl$u20$pyo3..conversion..IntoPy$LT$pyo3..instance..Py$LT$pyo3..types..tuple..PyTuple$GT$$GT$$u20$for$u20$$LP$T0$C$T1$RP$$GT$7into_py17h8f5fe7747094054cE', symObjAddr: 0x0, symBinAddr: 0x1F0B0, symSize: 0xD0 }
  - { offset: 0x7A677, size: 0x8, addend: 0x0, symName: '__ZN4pyo35types5tuple131_$LT$impl$u20$pyo3..conversion..IntoPy$LT$pyo3..instance..Py$LT$pyo3..types..tuple..PyTuple$GT$$GT$$u20$for$u20$$LP$T0$C$T1$RP$$GT$7into_py17h8f5fe7747094054cE', symObjAddr: 0x0, symBinAddr: 0x1F0B0, symSize: 0xD0 }
  - { offset: 0x7A905, size: 0x8, addend: 0x0, symName: '__ZN4pyo38instance11Py$LT$T$GT$24from_borrowed_ptr_or_opt28_$u7b$$u7b$closure$u7d$$u7d$17hb64ae00ebd987f30E', symObjAddr: 0x194, symBinAddr: 0x1F244, symSize: 0xF4 }
  - { offset: 0x7A971, size: 0x8, addend: 0x0, symName: '__ZN4pyo38instance11Py$LT$T$GT$4call28_$u7b$$u7b$closure$u7d$$u7d$17hbb0c48e4c3151021E', symObjAddr: 0x3A0, symBinAddr: 0x1F450, symSize: 0x28 }
  - { offset: 0x7AD45, size: 0x8, addend: 0x0, symName: '__ZN54_$LT$$RF$T$u20$as$u20$pyo3..conversion..ToPyObject$GT$9to_object17hf4025cd74ef17d5dE', symObjAddr: 0x6C4, symBinAddr: 0x1F774, symSize: 0x28 }
  - { offset: 0x7B218, size: 0x8, addend: 0x0, symName: '__ZN4pyo38instance11Py$LT$T$GT$14from_owned_ptr17h36f814cd839215a6E', symObjAddr: 0xD0, symBinAddr: 0x1F180, symSize: 0x48 }
  - { offset: 0x7B25F, size: 0x8, addend: 0x0, symName: '__ZN4pyo38instance11Py$LT$T$GT$17from_borrowed_ptr17h8adfad15fdb9a8c4E', symObjAddr: 0x118, symBinAddr: 0x1F1C8, symSize: 0x48 }
  - { offset: 0x7B2A6, size: 0x8, addend: 0x0, symName: '__ZN4pyo38instance11Py$LT$T$GT$24from_borrowed_ptr_or_opt17h5ea294d480de7d09E', symObjAddr: 0x160, symBinAddr: 0x1F210, symSize: 0x34 }
  - { offset: 0x7B374, size: 0x8, addend: 0x0, symName: '__ZN4pyo38instance11Py$LT$T$GT$4call17h06372cddd4367cb1E', symObjAddr: 0x288, symBinAddr: 0x1F338, symSize: 0x118 }
  - { offset: 0x7B443, size: 0x8, addend: 0x0, symName: '__ZN4pyo38instance11Py$LT$T$GT$5call117h975a13ca389092d8E', symObjAddr: 0x3C8, symBinAddr: 0x1F478, symSize: 0x38 }
  - { offset: 0x7B4AF, size: 0x8, addend: 0x0, symName: '__ZN4pyo38instance11Py$LT$T$GT$6as_ptr17h65e46ce2f66f0194E', symObjAddr: 0x400, symBinAddr: 0x1F4B0, symSize: 0x1C }
  - { offset: 0x7B4DB, size: 0x8, addend: 0x0, symName: '__ZN4pyo38instance11Py$LT$T$GT$6as_ref17h5132e2904aa4a86dE', symObjAddr: 0x41C, symBinAddr: 0x1F4CC, symSize: 0x78 }
  - { offset: 0x7B53F, size: 0x8, addend: 0x0, symName: '__ZN4pyo38instance11Py$LT$T$GT$7is_none17h8dcaec1c018912efE', symObjAddr: 0x494, symBinAddr: 0x1F544, symSize: 0x44 }
  - { offset: 0x7B5A2, size: 0x8, addend: 0x0, symName: '__ZN4pyo38instance11Py$LT$T$GT$8into_ptr17h723c978c9b27b192E', symObjAddr: 0x4D8, symBinAddr: 0x1F588, symSize: 0x88 }
  - { offset: 0x7B60A, size: 0x8, addend: 0x0, symName: '__ZN4pyo38instance11Py$LT$T$GT$8into_ptr17ha23a26a7925d16cbE', symObjAddr: 0x560, symBinAddr: 0x1F610, symSize: 0x88 }
  - { offset: 0x7BE51, size: 0x8, addend: 0x0, symName: '__ZN4pyo38instance11Py$LT$T$GT$8into_ptr17hec4ac728bd2cc558E', symObjAddr: 0x5E8, symBinAddr: 0x1F698, symSize: 0x88 }
  - { offset: 0x7BEC6, size: 0x8, addend: 0x0, symName: '__ZN4pyo38instance11Py$LT$T$GT$8into_ref17hf9ad2c5a461f6effE', symObjAddr: 0x670, symBinAddr: 0x1F720, symSize: 0x28 }
  - { offset: 0x7BF0D, size: 0x8, addend: 0x0, symName: '__ZN4pyo38instance11Py$LT$T$GT$9clone_ref17ha8a804942824c416E', symObjAddr: 0x698, symBinAddr: 0x1F748, symSize: 0x2C }
  - { offset: 0x7BF8C, size: 0x8, addend: 0x0, symName: __ZN4core3fmt9Arguments8from_str17h773800c04ca70b52E, symObjAddr: 0x0, symBinAddr: 0x1F79C, symSize: 0x20 }
  - { offset: 0x7C2C2, size: 0x8, addend: 0x0, symName: __ZN4core3fmt9Arguments8from_str17h773800c04ca70b52E, symObjAddr: 0x0, symBinAddr: 0x1F79C, symSize: 0x20 }
  - { offset: 0x7C303, size: 0x8, addend: 0x0, symName: '__ZN4core4iter6traits8iterator8Iterator12try_for_each4call28_$u7b$$u7b$closure$u7d$$u7d$17hf52ad2ce5f0d4676E', symObjAddr: 0x0, symBinAddr: 0x1F7BC, symSize: 0x3C }
  - { offset: 0x7CAC9, size: 0x8, addend: 0x0, symName: '__ZN4core4iter6traits8iterator8Iterator12try_for_each4call28_$u7b$$u7b$closure$u7d$$u7d$17hf52ad2ce5f0d4676E', symObjAddr: 0x0, symBinAddr: 0x1F7BC, symSize: 0x3C }
  - { offset: 0x7CB3B, size: 0x8, addend: 0x0, symName: '__ZN4core4iter6traits8iterator8Iterator3all5check28_$u7b$$u7b$closure$u7d$$u7d$17h1dfc035b01e7b99aE', symObjAddr: 0x3C, symBinAddr: 0x1F7F8, symSize: 0x4C }
  - { offset: 0x7CBA3, size: 0x8, addend: 0x0, symName: '__ZN4core4iter6traits8iterator8Iterator8for_each4call28_$u7b$$u7b$closure$u7d$$u7d$17h085fcdd684bb17fcE', symObjAddr: 0x88, symBinAddr: 0x1F844, symSize: 0x2C }
  - { offset: 0x7CBFB, size: 0x8, addend: 0x0, symName: '__ZN4core4iter6traits8iterator8Iterator8for_each4call28_$u7b$$u7b$closure$u7d$$u7d$17h09e23ce17450e00dE', symObjAddr: 0xB4, symBinAddr: 0x1F870, symSize: 0x3C }
  - { offset: 0x7CC54, size: 0x8, addend: 0x0, symName: '__ZN4core4iter6traits8iterator8Iterator8for_each4call28_$u7b$$u7b$closure$u7d$$u7d$17h270c491d111f3706E', symObjAddr: 0xF0, symBinAddr: 0x1F8AC, symSize: 0x3C }
  - { offset: 0x7CCAD, size: 0x8, addend: 0x0, symName: '__ZN4core4iter6traits8iterator8Iterator8for_each4call28_$u7b$$u7b$closure$u7d$$u7d$17h6d48f37871fc99efE', symObjAddr: 0x12C, symBinAddr: 0x1F8E8, symSize: 0x2C }
  - { offset: 0x7CD05, size: 0x8, addend: 0x0, symName: '__ZN4core4iter6traits8iterator8Iterator8for_each4call28_$u7b$$u7b$closure$u7d$$u7d$17h73630003b3ecff64E', symObjAddr: 0x158, symBinAddr: 0x1F914, symSize: 0x3C }
  - { offset: 0x7CD5E, size: 0x8, addend: 0x0, symName: '__ZN4core4iter6traits8iterator8Iterator8for_each4call28_$u7b$$u7b$closure$u7d$$u7d$17h9d1750fa5eaee33cE', symObjAddr: 0x194, symBinAddr: 0x1F950, symSize: 0x2C }
  - { offset: 0x7CDB6, size: 0x8, addend: 0x0, symName: '__ZN4core4iter6traits8iterator8Iterator8for_each4call28_$u7b$$u7b$closure$u7d$$u7d$17hb188b6dd422fecd9E', symObjAddr: 0x1C0, symBinAddr: 0x1F97C, symSize: 0x28 }
  - { offset: 0x7CE0E, size: 0x8, addend: 0x0, symName: '__ZN4core4iter6traits8iterator8Iterator8for_each4call28_$u7b$$u7b$closure$u7d$$u7d$17he3e78b89af27048dE', symObjAddr: 0x1E8, symBinAddr: 0x1F9A4, symSize: 0x3C }
  - { offset: 0x7CE78, size: 0x8, addend: 0x0, symName: '__ZN87_$LT$I$u20$as$u20$core..iter..traits..iterator..Iterator..advance_by..SpecAdvanceBy$GT$15spec_advance_by28_$u7b$$u7b$closure$u7d$$u7d$17h5aac200bbf48a317E', symObjAddr: 0x224, symBinAddr: 0x1F9E0, symSize: 0x40 }
  - { offset: 0x7CEC5, size: 0x8, addend: 0x0, symName: '__ZN87_$LT$I$u20$as$u20$core..iter..traits..iterator..Iterator..advance_by..SpecAdvanceBy$GT$15spec_advance_by28_$u7b$$u7b$closure$u7d$$u7d$17he85c26f7a196644dE', symObjAddr: 0x264, symBinAddr: 0x1FA20, symSize: 0x40 }
  - { offset: 0x7E835, size: 0x8, addend: 0x0, symName: '__ZN96_$LT$pyo3..pycell..impl_..BorrowChecker$u20$as$u20$pyo3..pycell..impl_..PyClassBorrowChecker$GT$3new17h97cbeaff5fd34aecE', symObjAddr: 0x0, symBinAddr: 0x1FA60, symSize: 0x18 }
  - { offset: 0x7E856, size: 0x8, addend: 0x0, symName: '__ZN96_$LT$pyo3..pycell..impl_..BorrowChecker$u20$as$u20$pyo3..pycell..impl_..PyClassBorrowChecker$GT$3new17h97cbeaff5fd34aecE', symObjAddr: 0x0, symBinAddr: 0x1FA60, symSize: 0x18 }
  - { offset: 0x7E90E, size: 0x8, addend: 0x0, symName: __ZN4pyo311type_object10PyTypeInfo10is_type_of17h8a061a496bda5a21E, symObjAddr: 0x0, symBinAddr: 0x1FA78, symSize: 0x50 }
  - { offset: 0x7F174, size: 0x8, addend: 0x0, symName: '__ZN50_$LT$T$u20$as$u20$core..convert..Into$LT$U$GT$$GT$4into17h13c6c512879325e8E', symObjAddr: 0xA0, symBinAddr: 0x1FB18, symSize: 0x24 }
  - { offset: 0x806B0, size: 0x8, addend: 0x0, symName: __ZN4pyo311type_object10PyTypeInfo10is_type_of17h8a061a496bda5a21E, symObjAddr: 0x0, symBinAddr: 0x1FA78, symSize: 0x50 }
  - { offset: 0x806F1, size: 0x8, addend: 0x0, symName: '__ZN4pyo312pyclass_init123_$LT$impl$u20$pyo3..callback..IntoPyCallbackOutput$LT$pyo3..pyclass_init..PyClassInitializer$LT$T$GT$$GT$$u20$for$u20$U$GT$7convert17hcc32ddace6df2a02E', symObjAddr: 0x50, symBinAddr: 0x1FAC8, symSize: 0x40 }
  - { offset: 0x80813, size: 0x8, addend: 0x0, symName: __ZN4pyo35impl_7pyclass11PyClassImpl11dict_offset17h3558e9750e29a705E, symObjAddr: 0x90, symBinAddr: 0x1FB08, symSize: 0x8 }
  - { offset: 0x8083A, size: 0x8, addend: 0x0, symName: __ZN4pyo35impl_7pyclass11PyClassImpl15weaklist_offset17hb6d42e79537ac8c8E, symObjAddr: 0x98, symBinAddr: 0x1FB10, symSize: 0x8 }
  - { offset: 0x80BD8, size: 0x8, addend: 0x0, symName: '__ZN8avap_isa10ACTIVE_ISA29_$u7b$$u7b$constant$u7d$$u7d$28_$u7b$$u7b$closure$u7d$$u7d$17h8ca594c287fee3b6E', symObjAddr: 0xC4, symBinAddr: 0x1FB3C, symSize: 0x34 }
  - { offset: 0x80C1C, size: 0x8, addend: 0x0, symName: '__ZN8avap_isa10h_call_ext28_$u7b$$u7b$closure$u7d$$u7d$17ha0c6104314e7b29fE', symObjAddr: 0xF8, symBinAddr: 0x1FB70, symSize: 0x24 }
  - { offset: 0x80C67, size: 0x8, addend: 0x0, symName: '__ZN8avap_isa10h_call_ext28_$u7b$$u7b$closure$u7d$$u7d$17had25f01d5cf123f3E', symObjAddr: 0x11C, symBinAddr: 0x1FB94, symSize: 0xA88 }
  - { offset: 0x80F2C, size: 0x8, addend: 0x0, symName: '__ZN8avap_isa10h_call_ext28_$u7b$$u7b$closure$u7d$$u7d$17hc7666cd521b8173cE', symObjAddr: 0xBA4, symBinAddr: 0x2061C, symSize: 0xAC }
  - { offset: 0x80F94, size: 0x8, addend: 0x0, symName: '__ZN8avap_isa10h_call_ext28_$u7b$$u7b$closure$u7d$$u7d$28_$u7b$$u7b$closure$u7d$$u7d$17h099b5426125f4809E', symObjAddr: 0xC50, symBinAddr: 0x206C8, symSize: 0x34 }
  - { offset: 0x80FDD, size: 0x8, addend: 0x0, symName: '__ZN8avap_isa10h_call_ext28_$u7b$$u7b$closure$u7d$$u7d$28_$u7b$$u7b$closure$u7d$$u7d$17h20e30673ab3d70f6E', symObjAddr: 0xC84, symBinAddr: 0x206FC, symSize: 0x54 }
  - { offset: 0x81017, size: 0x8, addend: 0x0, symName: '__ZN8avap_isa10h_call_ext28_$u7b$$u7b$closure$u7d$$u7d$28_$u7b$$u7b$closure$u7d$$u7d$17h79119a16eb8c07deE', symObjAddr: 0xCD8, symBinAddr: 0x20750, symSize: 0x54 }
  - { offset: 0x81051, size: 0x8, addend: 0x0, symName: '__ZN8avap_isa10h_call_ext28_$u7b$$u7b$closure$u7d$$u7d$28_$u7b$$u7b$closure$u7d$$u7d$17ha5ffc49dc64df7f2E', symObjAddr: 0xD2C, symBinAddr: 0x207A4, symSize: 0xD8 }
  - { offset: 0x810E4, size: 0x8, addend: 0x0, symName: '__ZN8avap_isa10h_call_ext28_$u7b$$u7b$closure$u7d$$u7d$28_$u7b$$u7b$closure$u7d$$u7d$17ha7d20b614d81fa4eE', symObjAddr: 0xE04, symBinAddr: 0x2087C, symSize: 0x54 }
  - { offset: 0x8111E, size: 0x8, addend: 0x0, symName: '__ZN8avap_isa10h_call_ext28_$u7b$$u7b$closure$u7d$$u7d$28_$u7b$$u7b$closure$u7d$$u7d$17hfadb6cd316a25e3dE', symObjAddr: 0xE58, symBinAddr: 0x208D0, symSize: 0x68 }
  - { offset: 0x811DE, size: 0x8, addend: 0x0, symName: '__ZN8avap_isa10h_get_attr28_$u7b$$u7b$closure$u7d$$u7d$17h8e64f8e1ecc0d3cfE', symObjAddr: 0xEC0, symBinAddr: 0x20938, symSize: 0x40 }
  - { offset: 0x81238, size: 0x8, addend: 0x0, symName: '__ZN8avap_isa10h_get_attr28_$u7b$$u7b$closure$u7d$$u7d$17ha96cc80bda73fe7aE', symObjAddr: 0xF00, symBinAddr: 0x20978, symSize: 0x2C }
  - { offset: 0x81298, size: 0x8, addend: 0x0, symName: '__ZN8avap_isa10h_set_attr28_$u7b$$u7b$closure$u7d$$u7d$17h9a18bd0162423e56E', symObjAddr: 0xF2C, symBinAddr: 0x209A4, symSize: 0x3C }
  - { offset: 0x812F8, size: 0x8, addend: 0x0, symName: '__ZN8avap_isa11call_method28_$u7b$$u7b$closure$u7d$$u7d$17h08182ce0e5fa6732E', symObjAddr: 0xF68, symBinAddr: 0x209E0, symSize: 0x60 }
  - { offset: 0x8134B, size: 0x8, addend: 0x0, symName: '__ZN8avap_isa11call_method28_$u7b$$u7b$closure$u7d$$u7d$17h17f9c88a096b6934E', symObjAddr: 0xFC8, symBinAddr: 0x20A40, symSize: 0x3C }
  - { offset: 0x813A5, size: 0x8, addend: 0x0, symName: '__ZN8avap_isa11call_method28_$u7b$$u7b$closure$u7d$$u7d$17h2374a5da094ec98fE', symObjAddr: 0x1004, symBinAddr: 0x20A7C, symSize: 0x2C }
  - { offset: 0x813F8, size: 0x8, addend: 0x0, symName: '__ZN8avap_isa11call_method28_$u7b$$u7b$closure$u7d$$u7d$17h484af8a07f4c577aE', symObjAddr: 0x1030, symBinAddr: 0x20AA8, symSize: 0x2C }
  - { offset: 0x81431, size: 0x8, addend: 0x0, symName: '__ZN8avap_isa11call_method28_$u7b$$u7b$closure$u7d$$u7d$17h561c2e5961f85ac3E', symObjAddr: 0x105C, symBinAddr: 0x20AD4, symSize: 0x60 }
  - { offset: 0x8146A, size: 0x8, addend: 0x0, symName: '__ZN8avap_isa11call_method28_$u7b$$u7b$closure$u7d$$u7d$17haadf0cff39f15193E', symObjAddr: 0x10BC, symBinAddr: 0x20B34, symSize: 0x180 }
  - { offset: 0x814C5, size: 0x8, addend: 0x0, symName: '__ZN8avap_isa11call_method28_$u7b$$u7b$closure$u7d$$u7d$17hf1fe2ad0964192a2E', symObjAddr: 0x123C, symBinAddr: 0x20CB4, symSize: 0x30 }
  - { offset: 0x81548, size: 0x8, addend: 0x0, symName: '__ZN8avap_isa11value_to_py28_$u7b$$u7b$closure$u7d$$u7d$17h7e32fe73a7e5a9d3E', symObjAddr: 0x126C, symBinAddr: 0x20CE4, symSize: 0x30 }
  - { offset: 0x8158D, size: 0x8, addend: 0x0, symName: '__ZN8avap_isa11value_to_py28_$u7b$$u7b$closure$u7d$$u7d$17he90c2d7ce7c491d3E', symObjAddr: 0x129C, symBinAddr: 0x20D14, symSize: 0x30 }
  - { offset: 0x815FE, size: 0x8, addend: 0x0, symName: '__ZN8avap_isa12call_builtin28_$u7b$$u7b$closure$u7d$$u7d$17h90c7d8674b47b10aE', symObjAddr: 0x12CC, symBinAddr: 0x20D44, symSize: 0x30 }
  - { offset: 0x81637, size: 0x8, addend: 0x0, symName: '__ZN8avap_isa12call_builtin28_$u7b$$u7b$closure$u7d$$u7d$17hb042b9f6ce5969d6E', symObjAddr: 0x12FC, symBinAddr: 0x20D74, symSize: 0x50 }
  - { offset: 0x8168A, size: 0x8, addend: 0x0, symName: '__ZN8avap_isa12call_builtin28_$u7b$$u7b$closure$u7d$$u7d$17hdb42b1fbc75358beE', symObjAddr: 0x134C, symBinAddr: 0x20DC4, symSize: 0x50 }
  - { offset: 0x816F8, size: 0x8, addend: 0x0, symName: '__ZN8avap_isa12h_jmp_if_not28_$u7b$$u7b$closure$u7d$$u7d$17h22fed7fbf982637fE', symObjAddr: 0x139C, symBinAddr: 0x20E14, symSize: 0x24 }
  - { offset: 0x8173E, size: 0x8, addend: 0x0, symName: '__ZN8avap_isa13h_delete_item28_$u7b$$u7b$closure$u7d$$u7d$17hee5625fee9301685E', symObjAddr: 0x13C0, symBinAddr: 0x20E38, symSize: 0x3C }
  - { offset: 0x8179E, size: 0x8, addend: 0x0, symName: '__ZN8avap_isa13value_from_py28_$u7b$$u7b$closure$u7d$$u7d$17he0671b08f8674520E', symObjAddr: 0x13FC, symBinAddr: 0x20E74, symSize: 0x2C }
  - { offset: 0x817D4, size: 0x8, addend: 0x0, symName: '__ZN8avap_isa13value_from_py28_$u7b$$u7b$closure$u7d$$u7d$17he122d84a62367e59E', symObjAddr: 0x1428, symBinAddr: 0x20EA0, symSize: 0x54 }
  - { offset: 0x81829, size: 0x8, addend: 0x0, symName: '__ZN8avap_isa1_83_$LT$impl$u20$pyo3..impl_..pyclass..PyClassImpl$u20$for$u20$avap_isa..PyAvapISA$GT$3doc28_$u7b$$u7b$closure$u7d$$u7d$17h64c473e0ed4a2161E', symObjAddr: 0x147C, symBinAddr: 0x20EF4, symSize: 0x60 }
  - { offset: 0x81876, size: 0x8, addend: 0x0, symName: '__ZN8avap_isa1_83_$LT$impl$u20$pyo3..impl_..pyclass..PyClassImpl$u20$for$u20$avap_isa..PyAvapISA$GT$3doc28_$u7b$$u7b$closure$u7d$$u7d$28_$u7b$$u7b$closure$u7d$$u7d$17h069c818d18358a47E', symObjAddr: 0x14DC, symBinAddr: 0x20F54, symSize: 0x20 }
  - { offset: 0x818D3, size: 0x8, addend: 0x0, symName: '__ZN8avap_isa6h_push28_$u7b$$u7b$closure$u7d$$u7d$17hcafd3daacaf81e65E', symObjAddr: 0x14FC, symBinAddr: 0x20F74, symSize: 0x68 }
  - { offset: 0x8195E, size: 0x8, addend: 0x0, symName: '__ZN8avap_isa8h_jmp_if28_$u7b$$u7b$closure$u7d$$u7d$17h02e8fe8b782a3804E', symObjAddr: 0x1564, symBinAddr: 0x20FDC, symSize: 0x24 }
  - { offset: 0x819A9, size: 0x8, addend: 0x0, symName: '__ZN8avap_isa9PyAvapISA3new28_$u7b$$u7b$closure$u7d$$u7d$17he02c3480c89c1391E', symObjAddr: 0x1588, symBinAddr: 0x21000, symSize: 0x124 }
  - { offset: 0x82ABD, size: 0x8, addend: 0x0, symName: '__ZN100_$LT$pyo3..pycell..impl_..MutableClass$u20$as$u20$pyo3..pycell..impl_..GetBorrowChecker$LT$T$GT$$GT$14borrow_checker17h2ed78f7973c07e69E', symObjAddr: 0x0, symBinAddr: 0x21124, symSize: 0x14 }
  - { offset: 0x83DB6, size: 0x8, addend: 0x0, symName: '__ZN100_$LT$pyo3..pycell..impl_..MutableClass$u20$as$u20$pyo3..pycell..impl_..GetBorrowChecker$LT$T$GT$$GT$14borrow_checker17h2ed78f7973c07e69E', symObjAddr: 0x0, symBinAddr: 0x21124, symSize: 0x14 }
  - { offset: 0x84B43, size: 0x8, addend: 0x0, symName: __ZN4pyo35types8sequence10PySequence3len17h5b3075bb87bbb2b1E, symObjAddr: 0x0, symBinAddr: 0x21138, symSize: 0xC0 }
  - { offset: 0x85EB6, size: 0x8, addend: 0x0, symName: '__ZN77_$LT$pyo3..types..sequence..PySequence$u20$as$u20$core..ops..deref..Deref$GT$5deref17h1c152e235b89f620E', symObjAddr: 0xC0, symBinAddr: 0x211F8, symSize: 0x14 }
  - { offset: 0x86592, size: 0x8, addend: 0x0, symName: __ZN4pyo35types8sequence10PySequence3len17h5b3075bb87bbb2b1E, symObjAddr: 0x0, symBinAddr: 0x21138, symSize: 0xC0 }
  - { offset: 0x8661A, size: 0x8, addend: 0x0, symName: '__ZN104_$LT$T$u20$as$u20$pyo3..callback..IntoPyCallbackOutput$LT$$BP$mut$u20$pyo3_ffi..object..PyObject$GT$$GT$7convert17h583ead32f917e14eE', symObjAddr: 0x0, symBinAddr: 0x2120C, symSize: 0x48 }
  - { offset: 0x86DD1, size: 0x8, addend: 0x0, symName: '__ZN4core3cmp5impls69_$LT$impl$u20$core..cmp..PartialEq$LT$$RF$B$GT$$u20$for$u20$$RF$A$GT$2eq17h2d1c2b38fd9bf009E', symObjAddr: 0x48, symBinAddr: 0x21254, symSize: 0x3C }
  - { offset: 0x86E20, size: 0x8, addend: 0x0, symName: '__ZN4core3cmp5impls69_$LT$impl$u20$core..cmp..PartialEq$LT$$RF$B$GT$$u20$for$u20$$RF$A$GT$2ne17he0457732751174cfE', symObjAddr: 0x84, symBinAddr: 0x21290, symSize: 0x34 }
  - { offset: 0x86E76, size: 0x8, addend: 0x0, symName: __ZN4core3cmp9PartialEq2ne17hd05f5d1d50189868E, symObjAddr: 0xB8, symBinAddr: 0x212C4, symSize: 0x30 }
  - { offset: 0x86F04, size: 0x8, addend: 0x0, symName: '__ZN4core5slice29_$LT$impl$u20$$u5b$T$u5d$$GT$12split_at_mut17h89629c6281132e6cE', symObjAddr: 0xE8, symBinAddr: 0x212F4, symSize: 0xAC }
  - { offset: 0x86F8F, size: 0x8, addend: 0x0, symName: '__ZN4core5slice29_$LT$impl$u20$$u5b$T$u5d$$GT$22split_at_mut_unchecked17h0595eed5b2755670E', symObjAddr: 0x194, symBinAddr: 0x213A0, symSize: 0xF8 }
  - { offset: 0x870EF, size: 0x8, addend: 0x0, symName: '__ZN4core5slice29_$LT$impl$u20$$u5b$T$u5d$$GT$7reverse17hefa07c781cf1d358E', symObjAddr: 0x28C, symBinAddr: 0x21498, symSize: 0xFC }
  - { offset: 0x8811A, size: 0x8, addend: 0x0, symName: '__ZN104_$LT$T$u20$as$u20$pyo3..callback..IntoPyCallbackOutput$LT$$BP$mut$u20$pyo3_ffi..object..PyObject$GT$$GT$7convert17h583ead32f917e14eE', symObjAddr: 0x0, symBinAddr: 0x2120C, symSize: 0x48 }
  - { offset: 0x88175, size: 0x8, addend: 0x0, symName: '__ZN54_$LT$$RF$T$u20$as$u20$pyo3..conversion..ToPyObject$GT$9to_object17h538e060920c2b30cE', symObjAddr: 0x388, symBinAddr: 0x21594, symSize: 0x28 }
  - { offset: 0x88D42, size: 0x8, addend: 0x0, symName: '__ZN104_$LT$core..str..pattern..MultiCharEqSearcher$LT$C$GT$$u20$as$u20$core..str..pattern..ReverseSearcher$GT$9next_back17h0baee1a02f77586fE', symObjAddr: 0x0, symBinAddr: 0x215BC, symSize: 0x1B4 }
  - { offset: 0x88F1F, size: 0x8, addend: 0x0, symName: '__ZN104_$LT$core..str..pattern..MultiCharEqSearcher$LT$C$GT$$u20$as$u20$core..str..pattern..ReverseSearcher$GT$9next_back17h0baee1a02f77586fE', symObjAddr: 0x0, symBinAddr: 0x215BC, symSize: 0x1B4 }
  - { offset: 0x891D8, size: 0x8, addend: 0x0, symName: '__ZN106_$LT$core..str..pattern..CharPredicateSearcher$LT$F$GT$$u20$as$u20$core..str..pattern..ReverseSearcher$GT$16next_reject_back17h6c604447b13dc701E', symObjAddr: 0x1B4, symBinAddr: 0x21770, symSize: 0x24 }
  - { offset: 0x89215, size: 0x8, addend: 0x0, symName: __ZN4core3str7pattern15ReverseSearcher16next_reject_back17h30d82e6479f360b9E, symObjAddr: 0x1D8, symBinAddr: 0x21794, symSize: 0x90 }
  - { offset: 0x89280, size: 0x8, addend: 0x0, symName: __ZN4core3str7pattern8Searcher11next_reject17h7c6bec5ec5e01b99E, symObjAddr: 0x268, symBinAddr: 0x21824, symSize: 0x90 }
  - { offset: 0x892EB, size: 0x8, addend: 0x0, symName: '__ZN95_$LT$core..str..pattern..MultiCharEqPattern$LT$C$GT$$u20$as$u20$core..str..pattern..Pattern$GT$13into_searcher17h3cf5d9e9f801c189E', symObjAddr: 0x2F8, symBinAddr: 0x218B4, symSize: 0x90 }
  - { offset: 0x8934D, size: 0x8, addend: 0x0, symName: '__ZN97_$LT$core..str..pattern..MultiCharEqSearcher$LT$C$GT$$u20$as$u20$core..str..pattern..Searcher$GT$4next17h7e1716b653ec5341E', symObjAddr: 0x388, symBinAddr: 0x21944, symSize: 0x1B4 }
  - { offset: 0x89606, size: 0x8, addend: 0x0, symName: '__ZN99_$LT$core..str..pattern..CharPredicateSearcher$LT$F$GT$$u20$as$u20$core..str..pattern..Searcher$GT$11next_reject17heecdc1cfa9e95c1aE', symObjAddr: 0x53C, symBinAddr: 0x21AF8, symSize: 0x24 }
  - { offset: 0x89942, size: 0x8, addend: 0x0, symName: '__ZN59_$LT$alloc..alloc..Global$u20$as$u20$core..clone..Clone$GT$5clone17hae9c99b8abb85a6aE', symObjAddr: 0x0, symBinAddr: 0x21B1C, symSize: 0x10 }
  - { offset: 0x8A2B8, size: 0x8, addend: 0x0, symName: '__ZN59_$LT$alloc..alloc..Global$u20$as$u20$core..clone..Clone$GT$5clone17hae9c99b8abb85a6aE', symObjAddr: 0x0, symBinAddr: 0x21B1C, symSize: 0x10 }
  - { offset: 0x8A311, size: 0x8, addend: 0x0, symName: '__ZN63_$LT$alloc..alloc..Global$u20$as$u20$core..alloc..Allocator$GT$10deallocate17h6ab406625805371fE', symObjAddr: 0x254, symBinAddr: 0x21D70, symSize: 0x58 }
  - { offset: 0x8A455, size: 0x8, addend: 0x0, symName: __ZN5alloc5alloc15exchange_malloc17heb08219dc4cd2ec4E, symObjAddr: 0x10, symBinAddr: 0x21B2C, symSize: 0xB0 }
  - { offset: 0x8A7AF, size: 0x8, addend: 0x0, symName: __ZN5alloc5alloc6Global18alloc_impl_runtime17h58e4d1c2bd282322E, symObjAddr: 0xC0, symBinAddr: 0x21BDC, symSize: 0x194 }
  - { offset: 0x8ABC4, size: 0x8, addend: 0x0, symName: __ZN4pyo37pyclass18create_type_object18create_type_object17h7f8f23e2f5f788faE, symObjAddr: 0x0, symBinAddr: 0x21DC8, symSize: 0x164 }
  - { offset: 0x8C34D, size: 0x8, addend: 0x0, symName: __ZN4pyo37pyclass18create_type_object18create_type_object17h7f8f23e2f5f788faE, symObjAddr: 0x0, symBinAddr: 0x21DC8, symSize: 0x164 }
  - { offset: 0x8D588, size: 0x8, addend: 0x0, symName: '__ZN100_$LT$core..iter..adapters..take..Take$LT$I$GT$$u20$as$u20$core..iter..traits..iterator..Iterator$GT$4next17h4baf0cf15b5d553dE', symObjAddr: 0x0, symBinAddr: 0x21F2C, symSize: 0x58 }
  - { offset: 0x8DD26, size: 0x8, addend: 0x0, symName: '__ZN100_$LT$core..iter..adapters..take..Take$LT$I$GT$$u20$as$u20$core..iter..traits..iterator..Iterator$GT$4next17h4baf0cf15b5d553dE', symObjAddr: 0x0, symBinAddr: 0x21F2C, symSize: 0x58 }
  - { offset: 0x8DDE5, size: 0x8, addend: 0x0, symName: __ZN4core4iter6traits8iterator8Iterator9enumerate17hb90bf0df58674db3E, symObjAddr: 0x58, symBinAddr: 0x21F84, symSize: 0x18 }
  - { offset: 0x8DE16, size: 0x8, addend: 0x0, symName: __ZN4core4iter6traits8iterator8Iterator9enumerate17hb90bf0df58674db3E, symObjAddr: 0x58, symBinAddr: 0x21F84, symSize: 0x18 }
  - { offset: 0x8EC87, size: 0x8, addend: 0x0, symName: '__ZN69_$LT$pyo3..types..dict..PyDict$u20$as$u20$core..ops..deref..Deref$GT$5deref17hc11cf578a6fc6590E', symObjAddr: 0x0, symBinAddr: 0x21F9C, symSize: 0x14 }
  - { offset: 0x8FEAA, size: 0x8, addend: 0x0, symName: '__ZN69_$LT$pyo3..types..dict..PyDict$u20$as$u20$core..ops..deref..Deref$GT$5deref17hc11cf578a6fc6590E', symObjAddr: 0x0, symBinAddr: 0x21F9C, symSize: 0x14 }
  - { offset: 0x8FEDC, size: 0x8, addend: 0x0, symName: '__ZN74_$LT$pyo3..types..dict..PyDict$u20$as$u20$pyo3..conversion..ToPyObject$GT$9to_object17h1190b63d4e2afbd9E', symObjAddr: 0x14, symBinAddr: 0x21FB0, symSize: 0x2C }
  - { offset: 0x8FF27, size: 0x8, addend: 0x0, symName: '__ZN92_$LT$pyo3..types..dict..PyDictIterator$u20$as$u20$core..iter..traits..iterator..Iterator$GT$4next17h9dcc3cf9838cdfedE', symObjAddr: 0x40, symBinAddr: 0x21FDC, symSize: 0x114 }
  - { offset: 0x90587, size: 0x8, addend: 0x0, symName: '__ZN4core5slice29_$LT$impl$u20$$u5b$T$u5d$$GT$4iter17he961a27a682ba99cE', symObjAddr: 0x0, symBinAddr: 0x220F0, symSize: 0x28 }
  - { offset: 0x90D39, size: 0x8, addend: 0x0, symName: '__ZN4core5slice29_$LT$impl$u20$$u5b$T$u5d$$GT$4iter17he961a27a682ba99cE', symObjAddr: 0x0, symBinAddr: 0x220F0, symSize: 0x28 }
  - { offset: 0x91FE0, size: 0x8, addend: 0x0, symName: '__ZN73_$LT$pyo3..types..any..PyAny$u20$as$u20$pyo3..type_object..PyTypeInfo$GT$15type_object_raw28_$u7b$$u7b$closure$u7d$$u7d$17hc3b1766123b558faE', symObjAddr: 0x14C, symBinAddr: 0x2223C, symSize: 0x18 }
  - { offset: 0x92387, size: 0x8, addend: 0x0, symName: '__ZN54_$LT$$RF$T$u20$as$u20$pyo3..conversion..ToPyObject$GT$9to_object17h8d334d5ae60fe84aE', symObjAddr: 0x124, symBinAddr: 0x22214, symSize: 0x28 }
  - { offset: 0x9288C, size: 0x8, addend: 0x0, symName: __ZN4pyo35types3any5PyAny14is_instance_of17h1f22c6d25dbe6cf4E, symObjAddr: 0x28, symBinAddr: 0x22118, symSize: 0x24 }
  - { offset: 0x93166, size: 0x8, addend: 0x0, symName: __ZN4pyo35types3any5PyAny7extract17h0e3997210e26227eE, symObjAddr: 0x4C, symBinAddr: 0x2213C, symSize: 0x24 }
  - { offset: 0x93192, size: 0x8, addend: 0x0, symName: __ZN4pyo35types3any5PyAny7extract17h1709e7d67b2b4db6E, symObjAddr: 0x70, symBinAddr: 0x22160, symSize: 0x24 }
  - { offset: 0x931CB, size: 0x8, addend: 0x0, symName: __ZN4pyo35types3any5PyAny7extract17h2947f64856a46f61E, symObjAddr: 0x94, symBinAddr: 0x22184, symSize: 0x24 }
  - { offset: 0x931F7, size: 0x8, addend: 0x0, symName: __ZN4pyo35types3any5PyAny7extract17h624e1f155f4a7876E, symObjAddr: 0xB8, symBinAddr: 0x221A8, symSize: 0x24 }
  - { offset: 0x93223, size: 0x8, addend: 0x0, symName: __ZN4pyo35types3any5PyAny7extract17h6a78e13631f5cfb8E, symObjAddr: 0xDC, symBinAddr: 0x221CC, symSize: 0x24 }
  - { offset: 0x9324F, size: 0x8, addend: 0x0, symName: __ZN4pyo35types3any5PyAny7extract17hbb4313e8d3f1049cE, symObjAddr: 0x100, symBinAddr: 0x221F0, symSize: 0x24 }
  - { offset: 0x9331F, size: 0x8, addend: 0x0, symName: '__ZN3std3sys12thread_local6native4lazy20Storage$LT$T$C$D$GT$11get_or_init17he68644f1a2201670E', symObjAddr: 0x0, symBinAddr: 0x22254, symSize: 0x90 }
  - { offset: 0x93C53, size: 0x8, addend: 0x0, symName: __ZN3std3sys12thread_local6native4lazy7destroy17h60779f9246455e9eE, symObjAddr: 0x260, symBinAddr: 0x222E4, symSize: 0x30 }
  - { offset: 0x93C89, size: 0x8, addend: 0x0, symName: '__ZN3std3sys12thread_local6native4lazy7destroy28_$u7b$$u7b$closure$u7d$$u7d$17hddf82f9af02cf038E', symObjAddr: 0x290, symBinAddr: 0x22314, symSize: 0x64 }
  - { offset: 0x93D44, size: 0x8, addend: 0x0, symName: '__ZN81_$LT$$LP$$RP$$u20$as$u20$std..sys..thread_local..native..lazy..DestroyedState$GT$13register_dtor17h85105e1e1d77bbd2E', symObjAddr: 0x2F4, symBinAddr: 0x22378, symSize: 0x34 }
  - { offset: 0x94617, size: 0x8, addend: 0x0, symName: '__ZN3std3sys12thread_local6native4lazy20Storage$LT$T$C$D$GT$11get_or_init17he68644f1a2201670E', symObjAddr: 0x0, symBinAddr: 0x22254, symSize: 0x90 }
  - { offset: 0x94873, size: 0x8, addend: 0x0, symName: '__ZN3std3sys12thread_local6native4lazy20Storage$LT$T$C$D$GT$16get_or_init_slow17h0ab8abca9a20986fE', symObjAddr: 0x90, symBinAddr: 0xA2354, symSize: 0x1D0 }
  - { offset: 0x94C00, size: 0x8, addend: 0x0, symName: '__ZN5alloc3str13replace_ascii28_$u7b$$u7b$closure$u7d$$u7d$17haec1696611ba9c5bE', symObjAddr: 0x0, symBinAddr: 0x223AC, symSize: 0x5C }
  - { offset: 0x95BDA, size: 0x8, addend: 0x0, symName: '__ZN5alloc3str13replace_ascii28_$u7b$$u7b$closure$u7d$$u7d$17haec1696611ba9c5bE', symObjAddr: 0x0, symBinAddr: 0x223AC, symSize: 0x5C }
  - { offset: 0x95C5F, size: 0x8, addend: 0x0, symName: '__ZN5alloc3str21_$LT$impl$u20$str$GT$7replace17hc7dd2615a6c8e410E', symObjAddr: 0x5C, symBinAddr: 0x22408, symSize: 0x7A0 }
  - { offset: 0x975A4, size: 0x8, addend: 0x0, symName: __ZN4core3fmt9Arguments3new17h0607284d1f76c304E, symObjAddr: 0x0, symBinAddr: 0x22BA8, symSize: 0x1C }
  - { offset: 0x97A66, size: 0x8, addend: 0x0, symName: __ZN4core3fmt9Arguments3new17h0607284d1f76c304E, symObjAddr: 0x0, symBinAddr: 0x22BA8, symSize: 0x1C }
  - { offset: 0x97AB2, size: 0x8, addend: 0x0, symName: __ZN4core3fmt9Arguments3new17h293ffa74262b3399E, symObjAddr: 0x1C, symBinAddr: 0x22BC4, symSize: 0x1C }
  - { offset: 0x97B18, size: 0x8, addend: 0x0, symName: __ZN4core3fmt9Arguments3new17h44d12ca32c50304bE, symObjAddr: 0x38, symBinAddr: 0x22BE0, symSize: 0x1C }
  - { offset: 0x97B64, size: 0x8, addend: 0x0, symName: __ZN4core3fmt9Arguments3new17h4efbedf3c6f82742E, symObjAddr: 0x54, symBinAddr: 0x22BFC, symSize: 0x1C }
  - { offset: 0x97BB0, size: 0x8, addend: 0x0, symName: __ZN4core3fmt9Arguments3new17h5e88e5fecd9e4654E, symObjAddr: 0x70, symBinAddr: 0x22C18, symSize: 0x1C }
  - { offset: 0x97C16, size: 0x8, addend: 0x0, symName: __ZN4core3fmt9Arguments3new17h6e4d8af2e98a72f7E, symObjAddr: 0x8C, symBinAddr: 0x22C34, symSize: 0x1C }
  - { offset: 0x97C62, size: 0x8, addend: 0x0, symName: __ZN4core3fmt9Arguments3new17h74772b0ffe87c7d6E, symObjAddr: 0xA8, symBinAddr: 0x22C50, symSize: 0x1C }
  - { offset: 0x97CAE, size: 0x8, addend: 0x0, symName: __ZN4core3fmt9Arguments3new17h8fd3bb68e47174a2E, symObjAddr: 0xC4, symBinAddr: 0x22C6C, symSize: 0x1C }
  - { offset: 0x97CFA, size: 0x8, addend: 0x0, symName: __ZN4core3fmt9Arguments3new17h97cf05fe3689423fE, symObjAddr: 0xE0, symBinAddr: 0x22C88, symSize: 0x1C }
  - { offset: 0x97D46, size: 0x8, addend: 0x0, symName: __ZN4core3fmt9Arguments3new17hbdc90ae6eeefd7b9E, symObjAddr: 0xFC, symBinAddr: 0x22CA4, symSize: 0x1C }
  - { offset: 0x97D92, size: 0x8, addend: 0x0, symName: __ZN4core3fmt9Arguments3new17hded8a3455969c99aE, symObjAddr: 0x118, symBinAddr: 0x22CC0, symSize: 0x1C }
  - { offset: 0x97DDE, size: 0x8, addend: 0x0, symName: __ZN4core3fmt9Arguments3new17hec39a6e7b7009c72E, symObjAddr: 0x134, symBinAddr: 0x22CDC, symSize: 0x1C }
  - { offset: 0x97E2A, size: 0x8, addend: 0x0, symName: __ZN4core3fmt9Arguments3new17hedaec981a3ada352E, symObjAddr: 0x150, symBinAddr: 0x22CF8, symSize: 0x1C }
  - { offset: 0x97E76, size: 0x8, addend: 0x0, symName: __ZN4core3fmt9Arguments3new17hfad7e1e338016deeE, symObjAddr: 0x16C, symBinAddr: 0x22D14, symSize: 0x1C }
  - { offset: 0x97EC2, size: 0x8, addend: 0x0, symName: __ZN4core3fmt9Arguments3new17hfc4c7bbc16cb78f5E, symObjAddr: 0x188, symBinAddr: 0x22D30, symSize: 0x1C }
  - { offset: 0x97F12, size: 0x8, addend: 0x0, symName: '__ZN4core6option15Option$LT$T$GT$10ok_or_else17h90c05d9530076826E', symObjAddr: 0x0, symBinAddr: 0x22D4C, symSize: 0x98 }
  - { offset: 0x9A899, size: 0x8, addend: 0x0, symName: '__ZN4core6option15Option$LT$T$GT$10ok_or_else17h90c05d9530076826E', symObjAddr: 0x0, symBinAddr: 0x22D4C, symSize: 0x98 }
  - { offset: 0x9AFFE, size: 0x8, addend: 0x0, symName: '__ZN4core6option15Option$LT$T$GT$10ok_or_else17h9b1f1505801b1ecfE', symObjAddr: 0x98, symBinAddr: 0x22DE4, symSize: 0x7C }
  - { offset: 0x9B10D, size: 0x8, addend: 0x0, symName: '__ZN4core6option15Option$LT$T$GT$14unwrap_or_else17h146acf292bc48b83E', symObjAddr: 0x114, symBinAddr: 0x22E60, symSize: 0x58 }
  - { offset: 0x9B15E, size: 0x8, addend: 0x0, symName: '__ZN4core6option15Option$LT$T$GT$3map17h4edc54aafc13717fE', symObjAddr: 0x16C, symBinAddr: 0x22EB8, symSize: 0x54 }
  - { offset: 0x9B1D6, size: 0x8, addend: 0x0, symName: '__ZN4core6option15Option$LT$T$GT$3map17h5571cb019829be5aE', symObjAddr: 0x1C0, symBinAddr: 0x22F0C, symSize: 0x50 }
  - { offset: 0x9B25B, size: 0x8, addend: 0x0, symName: '__ZN4core6option15Option$LT$T$GT$3map17h941213507aeef6b3E', symObjAddr: 0x210, symBinAddr: 0x22F5C, symSize: 0x5C }
  - { offset: 0x9B2C6, size: 0x8, addend: 0x0, symName: '__ZN4core6option15Option$LT$T$GT$3map17hce1b9ebe0cb58aefE', symObjAddr: 0x26C, symBinAddr: 0x22FB8, symSize: 0x54 }
  - { offset: 0x9B33E, size: 0x8, addend: 0x0, symName: '__ZN4core6option15Option$LT$T$GT$3map17hea4c68eba8aca9aaE', symObjAddr: 0x2C0, symBinAddr: 0x2300C, symSize: 0x6C }
  - { offset: 0x9B3A9, size: 0x8, addend: 0x0, symName: '__ZN4core6option15Option$LT$T$GT$3map17hec7fcba6c04a9ab6E', symObjAddr: 0x32C, symBinAddr: 0x23078, symSize: 0x6C }
  - { offset: 0x9B42E, size: 0x8, addend: 0x0, symName: '__ZN4core6option15Option$LT$T$GT$3map17hfbc3f29fcad8911aE', symObjAddr: 0x398, symBinAddr: 0x230E4, symSize: 0x50 }
  - { offset: 0x9B499, size: 0x8, addend: 0x0, symName: '__ZN4core6option15Option$LT$T$GT$5ok_or17h1110b1454af12949E', symObjAddr: 0x3E8, symBinAddr: 0x23134, symSize: 0x88 }
  - { offset: 0x9B4FD, size: 0x8, addend: 0x0, symName: '__ZN4core6option15Option$LT$T$GT$5ok_or17h8e05c48d478d230aE', symObjAddr: 0x470, symBinAddr: 0x231BC, symSize: 0x88 }
  - { offset: 0x9B56E, size: 0x8, addend: 0x0, symName: '__ZN4core6option15Option$LT$T$GT$5ok_or17ha536c5a4a278193dE', symObjAddr: 0x4F8, symBinAddr: 0x23244, symSize: 0x68 }
  - { offset: 0x9B62F, size: 0x8, addend: 0x0, symName: '__ZN4core6option15Option$LT$T$GT$6as_ref17hdb80315a026fd02eE', symObjAddr: 0x560, symBinAddr: 0x232AC, symSize: 0x4C }
  - { offset: 0x9B99E, size: 0x8, addend: 0x0, symName: '__ZN4core6option15Option$LT$T$GT$6insert17h2e8a88e31f068a8eE', symObjAddr: 0x5AC, symBinAddr: 0x232F8, symSize: 0xA8 }
  - { offset: 0x9BA34, size: 0x8, addend: 0x0, symName: '__ZN4core6option15Option$LT$T$GT$6map_or17hbe14a22d5c96643aE', symObjAddr: 0x654, symBinAddr: 0x233A0, symSize: 0x9C }
  - { offset: 0x9BAB3, size: 0x8, addend: 0x0, symName: '__ZN4core6option15Option$LT$T$GT$7is_some17h2d4b8d6a04164f74E', symObjAddr: 0x6F0, symBinAddr: 0x2343C, symSize: 0x28 }
  - { offset: 0x9BADF, size: 0x8, addend: 0x0, symName: '__ZN4core6option15Option$LT$T$GT$7is_some17h4f5e3a481ee16888E', symObjAddr: 0x718, symBinAddr: 0x23464, symSize: 0x28 }
  - { offset: 0x9BB36, size: 0x8, addend: 0x0, symName: '__ZN4core6option15Option$LT$T$GT$7is_some17hc451922e25c77038E', symObjAddr: 0x740, symBinAddr: 0x2348C, symSize: 0x28 }
  - { offset: 0x9BB6F, size: 0x8, addend: 0x0, symName: '__ZN4core6option15Option$LT$T$GT$7or_else17h5e2482875452e18eE', symObjAddr: 0x768, symBinAddr: 0x234B4, symSize: 0xB8 }
  - { offset: 0x9BBC0, size: 0x8, addend: 0x0, symName: '__ZN4core6option15Option$LT$T$GT$7replace17h1e501cb307ac2af3E', symObjAddr: 0x820, symBinAddr: 0x2356C, symSize: 0x28 }
  - { offset: 0x9BC19, size: 0x8, addend: 0x0, symName: '__ZN4core6option15Option$LT$T$GT$9unwrap_or17hfc4aa54524149564E', symObjAddr: 0x848, symBinAddr: 0x23594, symSize: 0x50 }
  - { offset: 0x9BC72, size: 0x8, addend: 0x0, symName: '__ZN94_$LT$pyo3..types..tuple..PyTupleIterator$u20$as$u20$core..iter..traits..iterator..Iterator$GT$4next17h633b484dea88725bE', symObjAddr: 0x0, symBinAddr: 0x235E4, symSize: 0x98 }
  - { offset: 0x9CD5A, size: 0x8, addend: 0x0, symName: '__ZN94_$LT$pyo3..types..tuple..PyTupleIterator$u20$as$u20$core..iter..traits..iterator..Iterator$GT$4next17h633b484dea88725bE', symObjAddr: 0x0, symBinAddr: 0x235E4, symSize: 0x98 }
  - { offset: 0x9D285, size: 0x8, addend: 0x0, symName: __ZN4pyo35impl_10trampoline11module_init17hec64990fbde21a2aE, symObjAddr: 0x0, symBinAddr: 0x2367C, symSize: 0x28 }
  - { offset: 0x9E6D1, size: 0x8, addend: 0x0, symName: __ZN4pyo35impl_10trampoline11module_init17hec64990fbde21a2aE, symObjAddr: 0x0, symBinAddr: 0x2367C, symSize: 0x28 }
  - { offset: 0x9E6FD, size: 0x8, addend: 0x0, symName: __ZN4pyo35impl_10trampoline6noargs17he462bbfec963ac6dE, symObjAddr: 0x28, symBinAddr: 0x236A4, symSize: 0x64 }
  - { offset: 0x9E745, size: 0x8, addend: 0x0, symName: __ZN4pyo35impl_10trampoline7dealloc17had0d36bbdfd42549E, symObjAddr: 0x8C, symBinAddr: 0x23708, symSize: 0x34 }
  - { offset: 0x9E77B, size: 0x8, addend: 0x0, symName: __ZN4pyo35impl_10trampoline7newfunc17h8b1b2096385cb166E, symObjAddr: 0xC0, symBinAddr: 0x2373C, symSize: 0x50 }
  - { offset: 0x9E7D1, size: 0x8, addend: 0x0, symName: __ZN4pyo35impl_10trampoline8reprfunc17hfa5235e18b9a1350E, symObjAddr: 0x110, symBinAddr: 0x2378C, symSize: 0x30 }
  - { offset: 0x9F03A, size: 0x8, addend: 0x0, symName: '__ZN4pyo35impl_7pyclass16lazy_type_object23LazyTypeObject$LT$T$GT$11get_or_init17h61158e102ef43e1aE', symObjAddr: 0x0, symBinAddr: 0x237BC, symSize: 0x40 }
  - { offset: 0xA0B6D, size: 0x8, addend: 0x0, symName: '__ZN4pyo35impl_7pyclass16lazy_type_object23LazyTypeObject$LT$T$GT$11get_or_init28_$u7b$$u7b$closure$u7d$$u7d$17h837b4704c0f43f83E', symObjAddr: 0x40, symBinAddr: 0x237FC, symSize: 0xA8 }
  - { offset: 0xA1ED0, size: 0x8, addend: 0x0, symName: '__ZN4pyo35impl_7pyclass16lazy_type_object23LazyTypeObject$LT$T$GT$11get_or_init17h61158e102ef43e1aE', symObjAddr: 0x0, symBinAddr: 0x237BC, symSize: 0x40 }
  - { offset: 0xA1F14, size: 0x8, addend: 0x0, symName: '__ZN4pyo35impl_7pyclass16lazy_type_object23LazyTypeObject$LT$T$GT$15get_or_try_init17h43eac4fa83859c68E', symObjAddr: 0xE8, symBinAddr: 0x238A4, symSize: 0x58 }
  - { offset: 0xA2043, size: 0x8, addend: 0x0, symName: '__ZN73_$LT$pyo3..types..module..PyModule$u20$as$u20$core..ops..deref..Deref$GT$5deref17hb3b20107a7556f24E', symObjAddr: 0x0, symBinAddr: 0x238FC, symSize: 0x14 }
  - { offset: 0xA30CA, size: 0x8, addend: 0x0, symName: '__ZN73_$LT$pyo3..types..module..PyModule$u20$as$u20$core..ops..deref..Deref$GT$5deref17hb3b20107a7556f24E', symObjAddr: 0x0, symBinAddr: 0x238FC, symSize: 0x14 }
  - { offset: 0xA35A6, size: 0x8, addend: 0x0, symName: '__ZN55_$LT$$RF$str$u20$as$u20$core..str..pattern..Pattern$GT$12is_prefix_of17h3dbe26a9f1946c10E', symObjAddr: 0x0, symBinAddr: 0x23910, symSize: 0x4C }
  - { offset: 0xA35C7, size: 0x8, addend: 0x0, symName: '__ZN55_$LT$$RF$str$u20$as$u20$core..str..pattern..Pattern$GT$12is_prefix_of17h3dbe26a9f1946c10E', symObjAddr: 0x0, symBinAddr: 0x23910, symSize: 0x4C }
  - { offset: 0xA3604, size: 0x8, addend: 0x0, symName: '__ZN55_$LT$$RF$str$u20$as$u20$core..str..pattern..Pattern$GT$12is_suffix_of17h793e01ff355ed38bE', symObjAddr: 0x4C, symBinAddr: 0x2395C, symSize: 0x4C }
  - { offset: 0xA3641, size: 0x8, addend: 0x0, symName: '__ZN55_$LT$$RF$str$u20$as$u20$core..str..pattern..Pattern$GT$13into_searcher17h48517578bcf37dccE', symObjAddr: 0x98, symBinAddr: 0x239A8, symSize: 0x4C }
  - { offset: 0xA367E, size: 0x8, addend: 0x0, symName: '__ZN55_$LT$$RF$str$u20$as$u20$core..str..pattern..Pattern$GT$15as_utf8_pattern17h6e35a4ec7164dcd3E', symObjAddr: 0xE4, symBinAddr: 0x239F4, symSize: 0x38 }
  - { offset: 0xA36B2, size: 0x8, addend: 0x0, symName: '__ZN80_$LT$core..str..pattern..StrSearcher$u20$as$u20$core..str..pattern..Searcher$GT$10next_match17h620fa38cf5dea37aE', symObjAddr: 0x11C, symBinAddr: 0x23A2C, symSize: 0x148 }
  - { offset: 0xA373E, size: 0x8, addend: 0x0, symName: '__ZN80_$LT$core..str..pattern..StrSearcher$u20$as$u20$core..str..pattern..Searcher$GT$4next17hed4c37a3e3743714E', symObjAddr: 0x264, symBinAddr: 0x23B74, symSize: 0x434 }
  - { offset: 0xA3A2C, size: 0x8, addend: 0x0, symName: '__ZN80_$LT$core..str..pattern..StrSearcher$u20$as$u20$core..str..pattern..Searcher$GT$8haystack17hdcef29362e602189E', symObjAddr: 0x698, symBinAddr: 0x23FA8, symSize: 0x20 }
  - { offset: 0xA4324, size: 0x8, addend: 0x0, symName: '__ZN63_$LT$I$u20$as$u20$core..iter..traits..collect..IntoIterator$GT$9into_iter17hd98eda956f80f4e1E', symObjAddr: 0x0, symBinAddr: 0x23FC8, symSize: 0x30 }
  - { offset: 0xA4AC2, size: 0x8, addend: 0x0, symName: '__ZN63_$LT$I$u20$as$u20$core..iter..traits..collect..IntoIterator$GT$9into_iter17hd98eda956f80f4e1E', symObjAddr: 0x0, symBinAddr: 0x23FC8, symSize: 0x30 }
  - { offset: 0xA5AAE, size: 0x8, addend: 0x0, symName: '__ZN4core4cell13Cell$LT$T$GT$3new17ha3e375cc883c7be1E', symObjAddr: 0x0, symBinAddr: 0x23FF8, symSize: 0x10 }
  - { offset: 0xA5CF4, size: 0x8, addend: 0x0, symName: '__ZN74_$LT$core..cell..RefMut$LT$T$GT$$u20$as$u20$core..ops..deref..DerefMut$GT$9deref_mut17hef4e19f8eecf7602E', symObjAddr: 0xD8, symBinAddr: 0x240D0, symSize: 0x18 }
  - { offset: 0xA6178, size: 0x8, addend: 0x0, symName: '__ZN4core4cell13Cell$LT$T$GT$3new17ha3e375cc883c7be1E', symObjAddr: 0x0, symBinAddr: 0x23FF8, symSize: 0x10 }
  - { offset: 0xA6AD3, size: 0x8, addend: 0x0, symName: '__ZN4core4cell16RefCell$LT$T$GT$10borrow_mut17h843a17b98ed99f3cE', symObjAddr: 0x10, symBinAddr: 0x24008, symSize: 0xAC }
  - { offset: 0xA6BFF, size: 0x8, addend: 0x0, symName: '__ZN4core4cell16RefCell$LT$T$GT$3new17hd849782095a6a5a0E', symObjAddr: 0xBC, symBinAddr: 0x240B4, symSize: 0x1C }
  - { offset: 0xA6C73, size: 0x8, addend: 0x0, symName: '__ZN4core3str21_$LT$impl$u20$str$GT$11starts_with17h86ef6c9f552fb2aeE', symObjAddr: 0x0, symBinAddr: 0x240E8, symSize: 0x4C }
  - { offset: 0xA6D0D, size: 0x8, addend: 0x0, symName: '__ZN4core3str21_$LT$impl$u20$str$GT$11starts_with17h86ef6c9f552fb2aeE', symObjAddr: 0x0, symBinAddr: 0x240E8, symSize: 0x4C }
  - { offset: 0xA6D87, size: 0x8, addend: 0x0, symName: '__ZN4core3str21_$LT$impl$u20$str$GT$12trim_matches17hf0d7a1df5826d5daE', symObjAddr: 0x4C, symBinAddr: 0x24134, symSize: 0x108 }
  - { offset: 0xA6F2E, size: 0x8, addend: 0x0, symName: '__ZN4core3str21_$LT$impl$u20$str$GT$5parse17h310f07b4301440c0E', symObjAddr: 0x154, symBinAddr: 0x2423C, symSize: 0x28 }
  - { offset: 0xA6F65, size: 0x8, addend: 0x0, symName: '__ZN4core3str21_$LT$impl$u20$str$GT$5parse17hd09658d999b65017E', symObjAddr: 0x17C, symBinAddr: 0x24264, symSize: 0x28 }
  - { offset: 0xA6F9C, size: 0x8, addend: 0x0, symName: '__ZN4core3str21_$LT$impl$u20$str$GT$5split17h3f36c165d95028acE', symObjAddr: 0x1A4, symBinAddr: 0x2428C, symSize: 0xA4 }
  - { offset: 0xA6FE2, size: 0x8, addend: 0x0, symName: '__ZN4core3str21_$LT$impl$u20$str$GT$9ends_with17h898d7911c6ca9a67E', symObjAddr: 0x248, symBinAddr: 0x24330, symSize: 0x4C }
  - { offset: 0xA75C4, size: 0x8, addend: 0x0, symName: '__ZN4core3ptr8non_null16NonNull$LT$T$GT$3new17h281e2f0fa2471351E', symObjAddr: 0x0, symBinAddr: 0x2437C, symSize: 0x58 }
  - { offset: 0xA8D68, size: 0x8, addend: 0x0, symName: '__ZN4core3ptr8non_null16NonNull$LT$T$GT$3new17h281e2f0fa2471351E', symObjAddr: 0x0, symBinAddr: 0x2437C, symSize: 0x58 }
  - { offset: 0xA8DDF, size: 0x8, addend: 0x0, symName: '__ZN4core3ptr8non_null16NonNull$LT$T$GT$3new17hd75c89eaa92b2868E', symObjAddr: 0x58, symBinAddr: 0x243D4, symSize: 0x58 }
  - { offset: 0xA8E3F, size: 0x8, addend: 0x0, symName: '__ZN4core3str6traits108_$LT$impl$u20$core..slice..index..SliceIndex$LT$str$GT$$u20$for$u20$core..ops..range..Range$LT$usize$GT$$GT$13get_unchecked18precondition_check17h93e6367c1ecf947eE', symObjAddr: 0x0, symBinAddr: 0x2442C, symSize: 0x80 }
  - { offset: 0xA8E65, size: 0x8, addend: 0x0, symName: '__ZN4core3str6traits108_$LT$impl$u20$core..slice..index..SliceIndex$LT$str$GT$$u20$for$u20$core..ops..range..Range$LT$usize$GT$$GT$13get_unchecked18precondition_check17h93e6367c1ecf947eE', symObjAddr: 0x0, symBinAddr: 0x2442C, symSize: 0x80 }
  - { offset: 0xA8ECD, size: 0x8, addend: 0x0, symName: '__ZN4core3str6traits54_$LT$impl$u20$core..cmp..PartialEq$u20$for$u20$str$GT$2eq17h22a09ce458658ea4E', symObjAddr: 0x80, symBinAddr: 0x244AC, symSize: 0x4C }
  - { offset: 0xA90C2, size: 0x8, addend: 0x0, symName: __ZN4pyo35types3any5PyAny2py17h0981017a29a121faE, symObjAddr: 0x0, symBinAddr: 0x244F8, symSize: 0x24 }
  - { offset: 0xAA2ED, size: 0x8, addend: 0x0, symName: '__ZN72_$LT$pyo3..types..any..PyAny$u20$as$u20$pyo3..conversion..ToPyObject$GT$9to_object17h72360473e638f52aE', symObjAddr: 0xA4, symBinAddr: 0x2459C, symSize: 0x28 }
  - { offset: 0xAA338, size: 0x8, addend: 0x0, symName: '__ZN73_$LT$pyo3..types..any..PyAny$u20$as$u20$pyo3..type_object..PyTypeInfo$GT$15type_object_raw17hc1b80d2f4313ae16E', symObjAddr: 0xCC, symBinAddr: 0x245C4, symSize: 0x24 }
  - { offset: 0xAA871, size: 0x8, addend: 0x0, symName: __ZN4pyo35types3any5PyAny2py17h0981017a29a121faE, symObjAddr: 0x0, symBinAddr: 0x244F8, symSize: 0x24 }
  - { offset: 0xAA894, size: 0x8, addend: 0x0, symName: __ZN4pyo35types3any5PyAny6as_ptr17h56a79402953a2cb7E, symObjAddr: 0x24, symBinAddr: 0x2451C, symSize: 0x14 }
  - { offset: 0xAA8BE, size: 0x8, addend: 0x0, symName: __ZN4pyo35types3any5PyAny7is_none17h4050e40fae064d2aE, symObjAddr: 0x38, symBinAddr: 0x24530, symSize: 0x44 }
  - { offset: 0xAA8E1, size: 0x8, addend: 0x0, symName: __ZN4pyo35types3any5PyAny8into_ptr17h86db45c0ea41a2d0E, symObjAddr: 0x7C, symBinAddr: 0x24574, symSize: 0x28 }
  - { offset: 0xAA967, size: 0x8, addend: 0x0, symName: __ZN4pyo35types6module8PyModule3add17ha1662b715ed8eda9E, symObjAddr: 0x0, symBinAddr: 0x245E8, symSize: 0x1D0 }
  - { offset: 0xAC740, size: 0x8, addend: 0x0, symName: __ZN4pyo35types6module8PyModule3add17ha1662b715ed8eda9E, symObjAddr: 0x0, symBinAddr: 0x245E8, symSize: 0x1D0 }
  - { offset: 0xAC7B5, size: 0x8, addend: 0x0, symName: __ZN4pyo35types6module8PyModule3add17haddfc80ff069c801E, symObjAddr: 0x1D0, symBinAddr: 0x247B8, symSize: 0x1C4 }
  - { offset: 0xACFD5, size: 0x8, addend: 0x0, symName: __ZN4pyo35types6module8PyModule9add_class17h7ae901c54cf89fe3E, symObjAddr: 0x394, symBinAddr: 0x2497C, symSize: 0xBC }
  - { offset: 0xAD11D, size: 0x8, addend: 0x0, symName: __ZN4core3ptr5write17hd18925529b41337eE, symObjAddr: 0x184, symBinAddr: 0x24A38, symSize: 0x28 }
  - { offset: 0xADC61, size: 0x8, addend: 0x0, symName: '__ZN105_$LT$std..collections..hash..map..Iter$LT$K$C$V$GT$$u20$as$u20$core..iter..traits..iterator..Iterator$GT$4next17hfccb3ef4084e826eE', symObjAddr: 0x0, symBinAddr: 0x24A60, symSize: 0x24 }
  - { offset: 0xADC87, size: 0x8, addend: 0x0, symName: '__ZN105_$LT$std..collections..hash..map..Iter$LT$K$C$V$GT$$u20$as$u20$core..iter..traits..iterator..Iterator$GT$4next17hfccb3ef4084e826eE', symObjAddr: 0x0, symBinAddr: 0x24A60, symSize: 0x24 }
  - { offset: 0xADCC7, size: 0x8, addend: 0x0, symName: '__ZN105_$LT$std..collections..hash..map..Iter$LT$K$C$V$GT$$u20$as$u20$core..iter..traits..iterator..Iterator$GT$9size_hint17hc7cbd85830ebcad7E', symObjAddr: 0x24, symBinAddr: 0x24A84, symSize: 0x2C }
  - { offset: 0xAE407, size: 0x8, addend: 0x0, symName: __ZN4core4iter6traits8iterator8Iterator3map17h36cec9f06f1ed9f0E, symObjAddr: 0x94, symBinAddr: 0x24AF4, symSize: 0x30 }
  - { offset: 0xAE67D, size: 0x8, addend: 0x0, symName: '__ZN3std11collections4hash3map28HashMap$LT$K$C$V$C$S$C$A$GT$4iter17hdc1c4c62d0169f66E', symObjAddr: 0x50, symBinAddr: 0x24AB0, symSize: 0x44 }
  - { offset: 0xAE728, size: 0x8, addend: 0x0, symName: __ZN3std5panic12catch_unwind17h37099004a1513856E, symObjAddr: 0x0, symBinAddr: 0x24B24, symSize: 0xDC }
  - { offset: 0xB0444, size: 0x8, addend: 0x0, symName: __ZN3std5panic12catch_unwind17h37099004a1513856E, symObjAddr: 0x0, symBinAddr: 0x24B24, symSize: 0xDC }
  - { offset: 0xB0569, size: 0x8, addend: 0x0, symName: __ZN3std5panic12catch_unwind17h3a579e134006f0d0E, symObjAddr: 0xDC, symBinAddr: 0x24C00, symSize: 0xCC }
  - { offset: 0xB068E, size: 0x8, addend: 0x0, symName: __ZN3std5panic12catch_unwind17hae19962482134754E, symObjAddr: 0x1A8, symBinAddr: 0x24CCC, symSize: 0xF8 }
  - { offset: 0xB07E8, size: 0x8, addend: 0x0, symName: __ZN3std5panic12catch_unwind17hbc05b079dca1022dE, symObjAddr: 0x2A0, symBinAddr: 0x24DC4, symSize: 0xDC }
  - { offset: 0xB090D, size: 0x8, addend: 0x0, symName: __ZN3std5panic12catch_unwind17hbc0d2e725802faa6E, symObjAddr: 0x37C, symBinAddr: 0x24EA0, symSize: 0xDC }
  - { offset: 0xB159C, size: 0x8, addend: 0x0, symName: '__ZN8avap_isa1_158_$LT$impl$u20$pyo3..impl_..pyclass..PyMethods$LT$avap_isa..PyAvapISA$GT$$u20$for$u20$pyo3..impl_..pyclass..PyClassImplCollector$LT$avap_isa..PyAvapISA$GT$$GT$10py_methods17h96d061e524de598fE', symObjAddr: 0x0, symBinAddr: 0x24FD0, symSize: 0x14 }
  - { offset: 0xB2CA8, size: 0x8, addend: 0x0, symName: '__ZN8avap_isa1_158_$LT$impl$u20$pyo3..impl_..pyclass..PyMethods$LT$avap_isa..PyAvapISA$GT$$u20$for$u20$pyo3..impl_..pyclass..PyClassImplCollector$LT$avap_isa..PyAvapISA$GT$$GT$10py_methods17h96d061e524de598fE', symObjAddr: 0x0, symBinAddr: 0x24FD0, symSize: 0x14 }
  - { offset: 0xB2CF6, size: 0x8, addend: 0x0, symName: '__ZN8avap_isa1_158_$LT$impl$u20$pyo3..impl_..pyclass..PyMethods$LT$avap_isa..PyAvapISA$GT$$u20$for$u20$pyo3..impl_..pyclass..PyClassImplCollector$LT$avap_isa..PyAvapISA$GT$$GT$10py_methods5ITEMS10trampoline172_$LT$impl$u20$pyo3..impl_..pyclass..PyClassNewTextSignature$LT$avap_isa..PyAvapISA$GT$$u20$for$u20$pyo3..impl_..pyclass..PyClassImplCollector$LT$avap_isa..PyAvapISA$GT$$GT$18new_text_signature17h7f93a5fa7148056fE', symObjAddr: 0x14, symBinAddr: 0x24FE4, symSize: 0x1C }
  - { offset: 0xB4032, size: 0x8, addend: 0x0, symName: '__ZN118_$LT$pyo3..impl_..pyclass..SendablePyClass$LT$T$GT$$u20$as$u20$pyo3..impl_..pyclass..PyClassThreadChecker$LT$T$GT$$GT$3new17h5d1d7568ebad77c4E', symObjAddr: 0x0, symBinAddr: 0x25000, symSize: 0x4 }
  - { offset: 0xB53B6, size: 0x8, addend: 0x0, symName: '__ZN118_$LT$pyo3..impl_..pyclass..SendablePyClass$LT$T$GT$$u20$as$u20$pyo3..impl_..pyclass..PyClassThreadChecker$LT$T$GT$$GT$3new17h5d1d7568ebad77c4E', symObjAddr: 0x0, symBinAddr: 0x25000, symSize: 0x4 }
  - { offset: 0xB53DA, size: 0x8, addend: 0x0, symName: '__ZN118_$LT$pyo3..impl_..pyclass..SendablePyClass$LT$T$GT$$u20$as$u20$pyo3..impl_..pyclass..PyClassThreadChecker$LT$T$GT$$GT$6ensure17hb97718b8e18c0223E', symObjAddr: 0x4, symBinAddr: 0x25004, symSize: 0x10 }
  - { offset: 0xB540D, size: 0x8, addend: 0x0, symName: '__ZN118_$LT$pyo3..impl_..pyclass..SendablePyClass$LT$T$GT$$u20$as$u20$pyo3..impl_..pyclass..PyClassThreadChecker$LT$T$GT$$GT$8can_drop17h68911339b49c9ec1E', symObjAddr: 0x14, symBinAddr: 0x25014, symSize: 0x18 }
  - { offset: 0xB5460, size: 0x8, addend: 0x0, symName: __ZN4pyo35impl_7pyclass10tp_dealloc17h786ce17d038be24bE, symObjAddr: 0x2C, symBinAddr: 0x2502C, symSize: 0x34 }
  - { offset: 0xB5498, size: 0x8, addend: 0x0, symName: __ZN4pyo35impl_7pyclass11PyClassDict10clear_dict17h5dac3a04e24c00b3E, symObjAddr: 0x60, symBinAddr: 0x25060, symSize: 0x10 }
  - { offset: 0xB54E8, size: 0x8, addend: 0x0, symName: __ZN4pyo35impl_7pyclass14PyClassWeakRef14clear_weakrefs17h3c3ccc9d177217cfE, symObjAddr: 0x70, symBinAddr: 0x25070, symSize: 0x14 }
  - { offset: 0xB5541, size: 0x8, addend: 0x0, symName: __ZN4pyo35impl_7pyclass18tp_dealloc_with_gc17hf5517c52474784b6E, symObjAddr: 0x84, symBinAddr: 0x25084, symSize: 0x4C }
  - { offset: 0xB628F, size: 0x8, addend: 0x0, symName: '__ZN4pyo35impl_7pyclass29PyClassImplCollector$LT$T$GT$3new17ha979e690850a026fE', symObjAddr: 0xD0, symBinAddr: 0x250D0, symSize: 0x4 }
  - { offset: 0xB631C, size: 0x8, addend: 0x0, symName: '__ZN4core3ptr7mut_ptr31_$LT$impl$u20$$BP$mut$u20$T$GT$7is_null17h3b83cea109ad4124E', symObjAddr: 0x0, symBinAddr: 0x250D4, symSize: 0x18 }
  - { offset: 0xB637A, size: 0x8, addend: 0x0, symName: '__ZN4core3ptr7mut_ptr31_$LT$impl$u20$$BP$mut$u20$T$GT$7is_null17h3b83cea109ad4124E', symObjAddr: 0x0, symBinAddr: 0x250D4, symSize: 0x18 }
  - { offset: 0xB6416, size: 0x8, addend: 0x0, symName: '__ZN49_$LT$F$u20$as$u20$core..str..pattern..Pattern$GT$13into_searcher17h639cfeaf7721f41cE', symObjAddr: 0x0, symBinAddr: 0x250EC, symSize: 0x48 }
  - { offset: 0xB6437, size: 0x8, addend: 0x0, symName: '__ZN49_$LT$F$u20$as$u20$core..str..pattern..Pattern$GT$13into_searcher17h639cfeaf7721f41cE', symObjAddr: 0x0, symBinAddr: 0x250EC, symSize: 0x48 }
  - { offset: 0xB6483, size: 0x8, addend: 0x0, symName: '__ZN53_$LT$F$u20$as$u20$core..str..pattern..MultiCharEq$GT$7matches17hc9867505336401f9E', symObjAddr: 0x48, symBinAddr: 0x25134, symSize: 0x28 }
  - { offset: 0xB6681, size: 0x8, addend: 0x0, symName: '__ZN107_$LT$alloc..vec..Vec$LT$T$C$A$GT$..retain_mut..PanicGuard$LT$T$C$A$GT$$u20$as$u20$core..ops..drop..Drop$GT$4drop17he614ee6aa1ceec9fE', symObjAddr: 0x0, symBinAddr: 0xA2524, symSize: 0x184 }
  - { offset: 0xB759B, size: 0x8, addend: 0x0, symName: '__ZN4core3ptr100drop_in_place$LT$alloc..raw_vec..RawVec$LT$pyo3..instance..Py$LT$pyo3..types..any..PyAny$GT$$GT$$GT$17ha82294029ac5a8baE', symObjAddr: 0x554, symBinAddr: 0x2552C, symSize: 0x24 }
  - { offset: 0xB75CA, size: 0x8, addend: 0x0, symName: '__ZN4core3ptr107drop_in_place$LT$core..result..Result$LT$$RF$pyo3..types..dict..PyDict$C$pyo3..err..PyDowncastError$GT$$GT$17he8aa4bb606c083b4E', symObjAddr: 0x5E4, symBinAddr: 0x25550, symSize: 0x48 }
  - { offset: 0xB75F9, size: 0x8, addend: 0x0, symName: '__ZN4core3ptr108drop_in_place$LT$core..result..Result$LT$$LP$$RP$$C$alloc..borrow..Cow$LT$core..ffi..c_str..CStr$GT$$GT$$GT$17h56cabe5009d44a2cE', symObjAddr: 0x650, symBinAddr: 0x25598, symSize: 0x44 }
  - { offset: 0xB7628, size: 0x8, addend: 0x0, symName: '__ZN4core3ptr110drop_in_place$LT$alloc..vec..into_iter..IntoIter$LT$$LP$alloc..string..String$C$platon_core..Value$RP$$GT$$GT$17h37a36bfea46680c2E', symObjAddr: 0x694, symBinAddr: 0x255DC, symSize: 0x24 }
  - { offset: 0xB7657, size: 0x8, addend: 0x0, symName: '__ZN4core3ptr114drop_in_place$LT$hashbrown..map..HashMap$LT$u8$C$platon_core..Instruction$C$std..hash..random..RandomState$GT$$GT$17h91a9146ddf9c27f2E', symObjAddr: 0x6B8, symBinAddr: 0x25600, symSize: 0x24 }
  - { offset: 0xB7686, size: 0x8, addend: 0x0, symName: '__ZN4core3ptr116drop_in_place$LT$core..cell..RefMut$LT$core..option..Option$LT$alloc..sync..Arc$LT$avap_isa..AvapISA$GT$$GT$$GT$$GT$17h92e5fb08f51f4c00E', symObjAddr: 0x6DC, symBinAddr: 0x25624, symSize: 0x24 }
  - { offset: 0xB76B5, size: 0x8, addend: 0x0, symName: '__ZN4core3ptr117drop_in_place$LT$core..cell..RefCell$LT$core..option..Option$LT$alloc..sync..Arc$LT$avap_isa..AvapISA$GT$$GT$$GT$$GT$17h1f4760b58f1044c2E', symObjAddr: 0x700, symBinAddr: 0x25648, symSize: 0x24 }
  - { offset: 0xB76E4, size: 0x8, addend: 0x0, symName: '__ZN4core3ptr118drop_in_place$LT$core..result..Result$LT$alloc..vec..Vec$LT$$RF$pyo3..types..any..PyAny$GT$$C$pyo3..err..PyErr$GT$$GT$17h4a86f066256b59b8E', symObjAddr: 0x724, symBinAddr: 0x2566C, symSize: 0x50 }
  - { offset: 0xB7713, size: 0x8, addend: 0x0, symName: '__ZN4core3ptr120drop_in_place$LT$core..cell..UnsafeCell$LT$core..option..Option$LT$alloc..sync..Arc$LT$avap_isa..AvapISA$GT$$GT$$GT$$GT$17h47e7b98dfc1d2681E', symObjAddr: 0x774, symBinAddr: 0x256BC, symSize: 0x24 }
  - { offset: 0xB7742, size: 0x8, addend: 0x0, symName: '__ZN4core3ptr126drop_in_place$LT$core..option..Option$LT$core..result..Result$LT$core..convert..Infallible$C$alloc..string..String$GT$$GT$$GT$17h78a37c4e23aa6613E', symObjAddr: 0x798, symBinAddr: 0x256E0, symSize: 0x48 }
  - { offset: 0xB7771, size: 0x8, addend: 0x0, symName: '__ZN4core3ptr154drop_in_place$LT$alloc..vec..Vec$LT$T$C$A$GT$..retain_mut..PanicGuard$LT$$LP$alloc..string..String$C$platon_core..Value$RP$$C$alloc..alloc..Global$GT$$GT$17h1ec88bed5173277fE', symObjAddr: 0x870, symBinAddr: 0x25728, symSize: 0x24 }
  - { offset: 0xB77A0, size: 0x8, addend: 0x0, symName: '__ZN4core3ptr172drop_in_place$LT$$LT$alloc..vec..into_iter..IntoIter$LT$T$C$A$GT$$u20$as$u20$core..ops..drop..Drop$GT$..drop..DropGuard$LT$platon_core..Value$C$alloc..alloc..Global$GT$$GT$17h040b170e3b1b3e06E', symObjAddr: 0x894, symBinAddr: 0x2574C, symSize: 0x24 }
  - { offset: 0xB77CF, size: 0x8, addend: 0x0, symName: '__ZN4core3ptr181drop_in_place$LT$$LT$alloc..vec..into_iter..IntoIter$LT$T$C$A$GT$$u20$as$u20$core..ops..drop..Drop$GT$..drop..DropGuard$LT$$RF$pyo3..types..any..PyAny$C$alloc..alloc..Global$GT$$GT$17h45897cbafa63e375E', symObjAddr: 0x8B8, symBinAddr: 0x25770, symSize: 0x24 }
  - { offset: 0xB77FE, size: 0x8, addend: 0x0, symName: '__ZN4core3ptr204drop_in_place$LT$$LT$alloc..vec..into_iter..IntoIter$LT$T$C$A$GT$$u20$as$u20$core..ops..drop..Drop$GT$..drop..DropGuard$LT$$LP$alloc..string..String$C$platon_core..Value$RP$$C$alloc..alloc..Global$GT$$GT$17h7122aa65219d0e9aE', symObjAddr: 0x8DC, symBinAddr: 0x25794, symSize: 0x24 }
  - { offset: 0xB782D, size: 0x8, addend: 0x0, symName: '__ZN4core3ptr227drop_in_place$LT$alloc..vec..Vec$LT$u8$GT$..extend_trusted$LT$core..iter..adapters..map..Map$LT$core..slice..iter..Iter$LT$u8$GT$$C$alloc..str..replace_ascii..$u7b$$u7b$closure$u7d$$u7d$$GT$$GT$..$u7b$$u7b$closure$u7d$$u7d$$GT$17h73e6336862d4b4e4E', symObjAddr: 0x900, symBinAddr: 0x257B8, symSize: 0x24 }
  - { offset: 0xB785C, size: 0x8, addend: 0x0, symName: '__ZN4core3ptr259drop_in_place$LT$alloc..vec..Vec$LT$alloc..string..String$GT$..extend_trusted$LT$core..iter..adapters..map..Map$LT$core..slice..iter..Iter$LT$platon_core..Value$GT$$C$avap_isa..call_builtin..$u7b$$u7b$closure$u7d$$u7d$$GT$$GT$..$u7b$$u7b$closure$u7d$$u7d$$GT$17hfb382d2ab5f85ea5E', symObjAddr: 0x924, symBinAddr: 0x257DC, symSize: 0x24 }
  - { offset: 0xB788B, size: 0x8, addend: 0x0, symName: '__ZN4core3ptr264drop_in_place$LT$alloc..vec..Vec$LT$$RF$pyo3..types..any..PyAny$GT$..extend_trusted$LT$core..iter..adapters..map..Map$LT$core..slice..iter..Iter$LT$platon_core..Value$GT$$C$avap_isa..value_to_py..$u7b$$u7b$closure$u7d$$u7d$$GT$$GT$..$u7b$$u7b$closure$u7d$$u7d$$GT$17h167aa12e9bdc9719E', symObjAddr: 0x948, symBinAddr: 0x25800, symSize: 0x24 }
  - { offset: 0xB78BA, size: 0x8, addend: 0x0, symName: '__ZN4core3ptr264drop_in_place$LT$alloc..vec..Vec$LT$$RF$pyo3..types..any..PyAny$GT$..extend_trusted$LT$core..iter..adapters..map..Map$LT$core..slice..iter..Iter$LT$platon_core..Value$GT$$C$avap_isa..value_to_py..$u7b$$u7b$closure$u7d$$u7d$$GT$$GT$..$u7b$$u7b$closure$u7d$$u7d$$GT$17h59f5a8dc39d495d8E', symObjAddr: 0x96C, symBinAddr: 0x25824, symSize: 0x24 }
  - { offset: 0xB78E9, size: 0x8, addend: 0x0, symName: '__ZN4core3ptr287drop_in_place$LT$alloc..vec..Vec$LT$platon_core..Value$GT$..extend_trusted$LT$core..iter..adapters..map..Map$LT$core..slice..iter..Iter$LT$$LP$alloc..string..String$C$platon_core..Value$RP$$GT$$C$avap_isa..call_method..$u7b$$u7b$closure$u7d$$u7d$$GT$$GT$..$u7b$$u7b$closure$u7d$$u7d$$GT$17h290337d67058573eE', symObjAddr: 0x990, symBinAddr: 0x25848, symSize: 0x24 }
  - { offset: 0xB7918, size: 0x8, addend: 0x0, symName: '__ZN4core3ptr287drop_in_place$LT$alloc..vec..Vec$LT$platon_core..Value$GT$..extend_trusted$LT$core..iter..adapters..map..Map$LT$core..slice..iter..Iter$LT$$LP$alloc..string..String$C$platon_core..Value$RP$$GT$$C$avap_isa..call_method..$u7b$$u7b$closure$u7d$$u7d$$GT$$GT$..$u7b$$u7b$closure$u7d$$u7d$$GT$17h3668fc5e4f0af0c7E', symObjAddr: 0x9B4, symBinAddr: 0x2586C, symSize: 0x24 }
  - { offset: 0xB7947, size: 0x8, addend: 0x0, symName: '__ZN4core3ptr287drop_in_place$LT$alloc..vec..Vec$LT$platon_core..Value$GT$..extend_trusted$LT$core..iter..adapters..map..Map$LT$core..slice..iter..Iter$LT$$LP$alloc..string..String$C$platon_core..Value$RP$$GT$$C$avap_isa..call_method..$u7b$$u7b$closure$u7d$$u7d$$GT$$GT$..$u7b$$u7b$closure$u7d$$u7d$$GT$17h47813fdba4102248E', symObjAddr: 0x9D8, symBinAddr: 0x25890, symSize: 0x24 }
  - { offset: 0xB7976, size: 0x8, addend: 0x0, symName: '__ZN4core3ptr314drop_in_place$LT$alloc..vec..Vec$LT$pyo3..instance..Py$LT$pyo3..types..any..PyAny$GT$$GT$..extend_trusted$LT$core..iter..adapters..map..Map$LT$core..slice..iter..Iter$LT$platon_core..Value$GT$$C$avap_isa..h_call_ext..$u7b$$u7b$closure$u7d$$u7d$..$u7b$$u7b$closure$u7d$$u7d$$GT$$GT$..$u7b$$u7b$closure$u7d$$u7d$$GT$17hf89b935a42a749aeE', symObjAddr: 0x9FC, symBinAddr: 0x258B4, symSize: 0x24 }
  - { offset: 0xB79A5, size: 0x8, addend: 0x0, symName: '__ZN4core3ptr323drop_in_place$LT$core..iter..traits..iterator..Iterator..for_each..call$LT$u8$C$alloc..vec..Vec$LT$u8$GT$..extend_trusted$LT$core..iter..adapters..map..Map$LT$core..slice..iter..Iter$LT$u8$GT$$C$alloc..str..replace_ascii..$u7b$$u7b$closure$u7d$$u7d$$GT$$GT$..$u7b$$u7b$closure$u7d$$u7d$$GT$..$u7b$$u7b$closure$u7d$$u7d$$GT$17h30ae9de2397f94deE', symObjAddr: 0xA20, symBinAddr: 0x258D8, symSize: 0x24 }
  - { offset: 0xB79D4, size: 0x8, addend: 0x0, symName: '__ZN4core3ptr344drop_in_place$LT$core..iter..adapters..map..Map$LT$alloc..vec..into_iter..IntoIter$LT$$RF$pyo3..types..any..PyAny$GT$$C$pyo3..types..list..PyList..new$LT$$RF$pyo3..types..any..PyAny$C$alloc..vec..into_iter..IntoIter$LT$$RF$pyo3..types..any..PyAny$GT$$C$alloc..vec..Vec$LT$$RF$pyo3..types..any..PyAny$GT$$GT$..$u7b$$u7b$closure$u7d$$u7d$$GT$$GT$17h3160aea047a3b6edE', symObjAddr: 0xA44, symBinAddr: 0x258FC, symSize: 0x24 }
  - { offset: 0xB7A03, size: 0x8, addend: 0x0, symName: '__ZN4core3ptr374drop_in_place$LT$core..iter..traits..iterator..Iterator..for_each..call$LT$alloc..string..String$C$alloc..vec..Vec$LT$alloc..string..String$GT$..extend_trusted$LT$core..iter..adapters..map..Map$LT$core..slice..iter..Iter$LT$platon_core..Value$GT$$C$avap_isa..call_builtin..$u7b$$u7b$closure$u7d$$u7d$$GT$$GT$..$u7b$$u7b$closure$u7d$$u7d$$GT$..$u7b$$u7b$closure$u7d$$u7d$$GT$17h60d8234d71c21b01E', symObjAddr: 0xA68, symBinAddr: 0x25920, symSize: 0x24 }
  - { offset: 0xB7A32, size: 0x8, addend: 0x0, symName: '__ZN4core3ptr385drop_in_place$LT$core..iter..traits..iterator..Iterator..for_each..call$LT$$RF$pyo3..types..any..PyAny$C$alloc..vec..Vec$LT$$RF$pyo3..types..any..PyAny$GT$..extend_trusted$LT$core..iter..adapters..map..Map$LT$core..slice..iter..Iter$LT$platon_core..Value$GT$$C$avap_isa..value_to_py..$u7b$$u7b$closure$u7d$$u7d$$GT$$GT$..$u7b$$u7b$closure$u7d$$u7d$$GT$..$u7b$$u7b$closure$u7d$$u7d$$GT$17h0b80bc61f4132ee9E', symObjAddr: 0xA8C, symBinAddr: 0x25944, symSize: 0x24 }
  - { offset: 0xB7A61, size: 0x8, addend: 0x0, symName: '__ZN4core3ptr385drop_in_place$LT$core..iter..traits..iterator..Iterator..for_each..call$LT$$RF$pyo3..types..any..PyAny$C$alloc..vec..Vec$LT$$RF$pyo3..types..any..PyAny$GT$..extend_trusted$LT$core..iter..adapters..map..Map$LT$core..slice..iter..Iter$LT$platon_core..Value$GT$$C$avap_isa..value_to_py..$u7b$$u7b$closure$u7d$$u7d$$GT$$GT$..$u7b$$u7b$closure$u7d$$u7d$$GT$..$u7b$$u7b$closure$u7d$$u7d$$GT$17h1a9741efa8fbdb5dE', symObjAddr: 0xAB0, symBinAddr: 0x25968, symSize: 0x24 }
  - { offset: 0xB7A90, size: 0x8, addend: 0x0, symName: '__ZN4core3ptr38drop_in_place$LT$avap_isa..AvapISA$GT$17h016e110ebd536526E', symObjAddr: 0xAD4, symBinAddr: 0x2598C, symSize: 0x24 }
  - { offset: 0xB7ABF, size: 0x8, addend: 0x0, symName: '__ZN4core3ptr399drop_in_place$LT$core..iter..traits..iterator..Iterator..for_each..call$LT$platon_core..Value$C$alloc..vec..Vec$LT$platon_core..Value$GT$..extend_trusted$LT$core..iter..adapters..map..Map$LT$core..slice..iter..Iter$LT$$LP$alloc..string..String$C$platon_core..Value$RP$$GT$$C$avap_isa..call_method..$u7b$$u7b$closure$u7d$$u7d$$GT$$GT$..$u7b$$u7b$closure$u7d$$u7d$$GT$..$u7b$$u7b$closure$u7d$$u7d$$GT$17h164647ba2b54263eE', symObjAddr: 0xAF8, symBinAddr: 0x259B0, symSize: 0x24 }
  - { offset: 0xB7AEE, size: 0x8, addend: 0x0, symName: '__ZN4core3ptr399drop_in_place$LT$core..iter..traits..iterator..Iterator..for_each..call$LT$platon_core..Value$C$alloc..vec..Vec$LT$platon_core..Value$GT$..extend_trusted$LT$core..iter..adapters..map..Map$LT$core..slice..iter..Iter$LT$$LP$alloc..string..String$C$platon_core..Value$RP$$GT$$C$avap_isa..call_method..$u7b$$u7b$closure$u7d$$u7d$$GT$$GT$..$u7b$$u7b$closure$u7d$$u7d$$GT$..$u7b$$u7b$closure$u7d$$u7d$$GT$17h779d23b3de523960E', symObjAddr: 0xB1C, symBinAddr: 0x259D4, symSize: 0x24 }
  - { offset: 0xB7B1D, size: 0x8, addend: 0x0, symName: '__ZN4core3ptr399drop_in_place$LT$core..iter..traits..iterator..Iterator..for_each..call$LT$platon_core..Value$C$alloc..vec..Vec$LT$platon_core..Value$GT$..extend_trusted$LT$core..iter..adapters..map..Map$LT$core..slice..iter..Iter$LT$$LP$alloc..string..String$C$platon_core..Value$RP$$GT$$C$avap_isa..call_method..$u7b$$u7b$closure$u7d$$u7d$$GT$$GT$..$u7b$$u7b$closure$u7d$$u7d$$GT$..$u7b$$u7b$closure$u7d$$u7d$$GT$17hc8626f498297b6ccE', symObjAddr: 0xB40, symBinAddr: 0x259F8, symSize: 0x24 }
  - { offset: 0xB7B4C, size: 0x8, addend: 0x0, symName: '__ZN4core3ptr40drop_in_place$LT$avap_isa..PyAvapISA$GT$17h5fdb48a835e31720E', symObjAddr: 0xB64, symBinAddr: 0x25A1C, symSize: 0x24 }
  - { offset: 0xB7B7B, size: 0x8, addend: 0x0, symName: '__ZN4core3ptr457drop_in_place$LT$core..iter..traits..iterator..Iterator..for_each..call$LT$pyo3..instance..Py$LT$pyo3..types..any..PyAny$GT$$C$alloc..vec..Vec$LT$pyo3..instance..Py$LT$pyo3..types..any..PyAny$GT$$GT$..extend_trusted$LT$core..iter..adapters..map..Map$LT$core..slice..iter..Iter$LT$platon_core..Value$GT$$C$avap_isa..h_call_ext..$u7b$$u7b$closure$u7d$$u7d$..$u7b$$u7b$closure$u7d$$u7d$$GT$$GT$..$u7b$$u7b$closure$u7d$$u7d$$GT$..$u7b$$u7b$closure$u7d$$u7d$$GT$17h06adf0ed6bd73e42E', symObjAddr: 0xB88, symBinAddr: 0x25A40, symSize: 0x24 }
  - { offset: 0xB7BAA, size: 0x8, addend: 0x0, symName: '__ZN4core3ptr477drop_in_place$LT$core..iter..adapters..map..map_fold$LT$$RF$u8$C$u8$C$$LP$$RP$$C$alloc..str..replace_ascii..$u7b$$u7b$closure$u7d$$u7d$$C$core..iter..traits..iterator..Iterator..for_each..call$LT$u8$C$alloc..vec..Vec$LT$u8$GT$..extend_trusted$LT$core..iter..adapters..map..Map$LT$core..slice..iter..Iter$LT$u8$GT$$C$alloc..str..replace_ascii..$u7b$$u7b$closure$u7d$$u7d$$GT$$GT$..$u7b$$u7b$closure$u7d$$u7d$$GT$..$u7b$$u7b$closure$u7d$$u7d$$GT$..$u7b$$u7b$closure$u7d$$u7d$$GT$17h5092e81133873afcE', symObjAddr: 0xBAC, symBinAddr: 0x25A64, symSize: 0x24 }
  - { offset: 0xB7BD9, size: 0x8, addend: 0x0, symName: '__ZN4core3ptr48drop_in_place$LT$platon_core..InstructionSet$GT$17h2760063412bb8ce4E', symObjAddr: 0xBD0, symBinAddr: 0x25A88, symSize: 0x24 }
  - { offset: 0xB7C08, size: 0x8, addend: 0x0, symName: '__ZN4core3ptr560drop_in_place$LT$core..iter..adapters..map..map_fold$LT$$RF$platon_core..Value$C$alloc..string..String$C$$LP$$RP$$C$avap_isa..call_builtin..$u7b$$u7b$closure$u7d$$u7d$$C$core..iter..traits..iterator..Iterator..for_each..call$LT$alloc..string..String$C$alloc..vec..Vec$LT$alloc..string..String$GT$..extend_trusted$LT$core..iter..adapters..map..Map$LT$core..slice..iter..Iter$LT$platon_core..Value$GT$$C$avap_isa..call_builtin..$u7b$$u7b$closure$u7d$$u7d$$GT$$GT$..$u7b$$u7b$closure$u7d$$u7d$$GT$..$u7b$$u7b$closure$u7d$$u7d$$GT$..$u7b$$u7b$closure$u7d$$u7d$$GT$17h46c4d5e13baec55eE', symObjAddr: 0xC18, symBinAddr: 0x25AAC, symSize: 0x24 }
  - { offset: 0xB7C37, size: 0x8, addend: 0x0, symName: '__ZN4core3ptr576drop_in_place$LT$core..iter..adapters..map..map_fold$LT$$RF$platon_core..Value$C$$RF$pyo3..types..any..PyAny$C$$LP$$RP$$C$avap_isa..value_to_py..$u7b$$u7b$closure$u7d$$u7d$$C$core..iter..traits..iterator..Iterator..for_each..call$LT$$RF$pyo3..types..any..PyAny$C$alloc..vec..Vec$LT$$RF$pyo3..types..any..PyAny$GT$..extend_trusted$LT$core..iter..adapters..map..Map$LT$core..slice..iter..Iter$LT$platon_core..Value$GT$$C$avap_isa..value_to_py..$u7b$$u7b$closure$u7d$$u7d$$GT$$GT$..$u7b$$u7b$closure$u7d$$u7d$$GT$..$u7b$$u7b$closure$u7d$$u7d$$GT$..$u7b$$u7b$closure$u7d$$u7d$$GT$17h249402159564777cE', symObjAddr: 0xC3C, symBinAddr: 0x25AD0, symSize: 0x24 }
  - { offset: 0xB7C66, size: 0x8, addend: 0x0, symName: '__ZN4core3ptr576drop_in_place$LT$core..iter..adapters..map..map_fold$LT$$RF$platon_core..Value$C$$RF$pyo3..types..any..PyAny$C$$LP$$RP$$C$avap_isa..value_to_py..$u7b$$u7b$closure$u7d$$u7d$$C$core..iter..traits..iterator..Iterator..for_each..call$LT$$RF$pyo3..types..any..PyAny$C$alloc..vec..Vec$LT$$RF$pyo3..types..any..PyAny$GT$..extend_trusted$LT$core..iter..adapters..map..Map$LT$core..slice..iter..Iter$LT$platon_core..Value$GT$$C$avap_isa..value_to_py..$u7b$$u7b$closure$u7d$$u7d$$GT$$GT$..$u7b$$u7b$closure$u7d$$u7d$$GT$..$u7b$$u7b$closure$u7d$$u7d$$GT$..$u7b$$u7b$closure$u7d$$u7d$$GT$17hcaf9a73fb117f234E', symObjAddr: 0xC60, symBinAddr: 0x25AF4, symSize: 0x24 }
  - { offset: 0xB7C95, size: 0x8, addend: 0x0, symName: '__ZN4core3ptr613drop_in_place$LT$core..iter..adapters..map..map_fold$LT$$RF$$LP$alloc..string..String$C$platon_core..Value$RP$$C$platon_core..Value$C$$LP$$RP$$C$avap_isa..call_method..$u7b$$u7b$closure$u7d$$u7d$$C$core..iter..traits..iterator..Iterator..for_each..call$LT$platon_core..Value$C$alloc..vec..Vec$LT$platon_core..Value$GT$..extend_trusted$LT$core..iter..adapters..map..Map$LT$core..slice..iter..Iter$LT$$LP$alloc..string..String$C$platon_core..Value$RP$$GT$$C$avap_isa..call_method..$u7b$$u7b$closure$u7d$$u7d$$GT$$GT$..$u7b$$u7b$closure$u7d$$u7d$$GT$..$u7b$$u7b$closure$u7d$$u7d$$GT$..$u7b$$u7b$closure$u7d$$u7d$$GT$17h5416eaf8fc6bd1c2E', symObjAddr: 0xC84, symBinAddr: 0x25B18, symSize: 0x24 }
  - { offset: 0xB7CC4, size: 0x8, addend: 0x0, symName: '__ZN4core3ptr613drop_in_place$LT$core..iter..adapters..map..map_fold$LT$$RF$$LP$alloc..string..String$C$platon_core..Value$RP$$C$platon_core..Value$C$$LP$$RP$$C$avap_isa..call_method..$u7b$$u7b$closure$u7d$$u7d$$C$core..iter..traits..iterator..Iterator..for_each..call$LT$platon_core..Value$C$alloc..vec..Vec$LT$platon_core..Value$GT$..extend_trusted$LT$core..iter..adapters..map..Map$LT$core..slice..iter..Iter$LT$$LP$alloc..string..String$C$platon_core..Value$RP$$GT$$C$avap_isa..call_method..$u7b$$u7b$closure$u7d$$u7d$$GT$$GT$..$u7b$$u7b$closure$u7d$$u7d$$GT$..$u7b$$u7b$closure$u7d$$u7d$$GT$..$u7b$$u7b$closure$u7d$$u7d$$GT$17h76b792542576fdbeE', symObjAddr: 0xCA8, symBinAddr: 0x25B3C, symSize: 0x24 }
  - { offset: 0xB7CF3, size: 0x8, addend: 0x0, symName: '__ZN4core3ptr613drop_in_place$LT$core..iter..adapters..map..map_fold$LT$$RF$$LP$alloc..string..String$C$platon_core..Value$RP$$C$platon_core..Value$C$$LP$$RP$$C$avap_isa..call_method..$u7b$$u7b$closure$u7d$$u7d$$C$core..iter..traits..iterator..Iterator..for_each..call$LT$platon_core..Value$C$alloc..vec..Vec$LT$platon_core..Value$GT$..extend_trusted$LT$core..iter..adapters..map..Map$LT$core..slice..iter..Iter$LT$$LP$alloc..string..String$C$platon_core..Value$RP$$GT$$C$avap_isa..call_method..$u7b$$u7b$closure$u7d$$u7d$$GT$$GT$..$u7b$$u7b$closure$u7d$$u7d$$GT$..$u7b$$u7b$closure$u7d$$u7d$$GT$..$u7b$$u7b$closure$u7d$$u7d$$GT$17ha0cb980fcc6991e7E', symObjAddr: 0xCCC, symBinAddr: 0x25B60, symSize: 0x24 }
  - { offset: 0xB7D22, size: 0x8, addend: 0x0, symName: '__ZN4core3ptr62drop_in_place$LT$alloc..sync..Arc$LT$avap_isa..AvapISA$GT$$GT$17he9c382f69e68076eE', symObjAddr: 0xCF0, symBinAddr: 0x25B84, symSize: 0x24 }
  - { offset: 0xB7D51, size: 0x8, addend: 0x0, symName: '__ZN4core3ptr66drop_in_place$LT$pyo3..instance..Py$LT$avap_isa..PyAvapISA$GT$$GT$17h6b9ae1c2a5eb5e41E', symObjAddr: 0xD14, symBinAddr: 0x25BA8, symSize: 0x24 }
  - { offset: 0xB7D80, size: 0x8, addend: 0x0, symName: '__ZN4core3ptr67drop_in_place$LT$alloc..sync..ArcInner$LT$avap_isa..AvapISA$GT$$GT$17hff02821ff3a6a3c2E', symObjAddr: 0xD38, symBinAddr: 0x25BCC, symSize: 0x24 }
  - { offset: 0xB7DAF, size: 0x8, addend: 0x0, symName: '__ZN4core3ptr67drop_in_place$LT$pyo3..pycell..PyRef$LT$avap_isa..PyAvapISA$GT$$GT$17h0ce93c957ca59526E', symObjAddr: 0xD5C, symBinAddr: 0x25BF0, symSize: 0x24 }
  - { offset: 0xB7DDE, size: 0x8, addend: 0x0, symName: '__ZN4core3ptr68drop_in_place$LT$$LP$platon_core..Value$C$platon_core..Value$RP$$GT$17h11ecf8402ad4ca8eE', symObjAddr: 0xD80, symBinAddr: 0x25C14, symSize: 0x60 }
  - { offset: 0xB7E0D, size: 0x8, addend: 0x0, symName: '__ZN4core3ptr698drop_in_place$LT$core..iter..adapters..map..map_fold$LT$$RF$platon_core..Value$C$pyo3..instance..Py$LT$pyo3..types..any..PyAny$GT$$C$$LP$$RP$$C$avap_isa..h_call_ext..$u7b$$u7b$closure$u7d$$u7d$..$u7b$$u7b$closure$u7d$$u7d$$C$core..iter..traits..iterator..Iterator..for_each..call$LT$pyo3..instance..Py$LT$pyo3..types..any..PyAny$GT$$C$alloc..vec..Vec$LT$pyo3..instance..Py$LT$pyo3..types..any..PyAny$GT$$GT$..extend_trusted$LT$core..iter..adapters..map..Map$LT$core..slice..iter..Iter$LT$platon_core..Value$GT$$C$avap_isa..h_call_ext..$u7b$$u7b$closure$u7d$$u7d$..$u7b$$u7b$closure$u7d$$u7d$$GT$$GT$..$u7b$$u7b$closure$u7d$$u7d$$GT$..$u7b$$u7b$closure$u7d$$u7d$$GT$..$u7b$$u7b$closure$u7d$$u7d$$GT$17h189d3e281863955eE', symObjAddr: 0xDE0, symBinAddr: 0x25C74, symSize: 0x24 }
  - { offset: 0xB7E3C, size: 0x8, addend: 0x0, symName: '__ZN4core3ptr70drop_in_place$LT$core..cell..UnsafeCell$LT$avap_isa..PyAvapISA$GT$$GT$17h0422c88fca7208d4E', symObjAddr: 0xE04, symBinAddr: 0x25C98, symSize: 0x24 }
  - { offset: 0xB7E6B, size: 0x8, addend: 0x0, symName: '__ZN4core3ptr71drop_in_place$LT$alloc..vec..Vec$LT$$RF$pyo3..types..any..PyAny$GT$$GT$17heaba2bb233f282b2E', symObjAddr: 0xE28, symBinAddr: 0x25CBC, symSize: 0x5C }
  - { offset: 0xB7E9A, size: 0x8, addend: 0x0, symName: '__ZN4core3ptr71drop_in_place$LT$core..result..Result$LT$f64$C$pyo3..err..PyErr$GT$$GT$17h163cc5dba8b363acE', symObjAddr: 0xE84, symBinAddr: 0x25D18, symSize: 0x40 }
  - { offset: 0xB7EC9, size: 0x8, addend: 0x0, symName: '__ZN4core3ptr72drop_in_place$LT$pyo3..instance..Py$LT$pyo3..types..dict..PyDict$GT$$GT$17h06a53b72d4172f6dE', symObjAddr: 0xEC4, symBinAddr: 0x25D58, symSize: 0x24 }
  - { offset: 0xB7EF8, size: 0x8, addend: 0x0, symName: '__ZN4core3ptr72drop_in_place$LT$pyo3..instance..Py$LT$pyo3..types..list..PyList$GT$$GT$17h26b4f5611abbe388E', symObjAddr: 0xEE8, symBinAddr: 0x25D7C, symSize: 0x24 }
  - { offset: 0xB7F27, size: 0x8, addend: 0x0, symName: '__ZN4core3ptr73drop_in_place$LT$core..result..Result$LT$usize$C$pyo3..err..PyErr$GT$$GT$17h31bb93978946cf1aE', symObjAddr: 0xF0C, symBinAddr: 0x25DA0, symSize: 0x40 }
  - { offset: 0xB7F56, size: 0x8, addend: 0x0, symName: '__ZN4core3ptr78drop_in_place$LT$alloc..raw_vec..RawVec$LT$$RF$pyo3..types..any..PyAny$GT$$GT$17h0e85d0f5bfa13d45E', symObjAddr: 0xF4C, symBinAddr: 0x25DE0, symSize: 0x24 }
  - { offset: 0xB7F85, size: 0x8, addend: 0x0, symName: '__ZN4core3ptr78drop_in_place$LT$alloc..vec..into_iter..IntoIter$LT$platon_core..Value$GT$$GT$17h8c8c69a1735e0335E', symObjAddr: 0xF70, symBinAddr: 0x25E04, symSize: 0x24 }
  - { offset: 0xB7FB4, size: 0x8, addend: 0x0, symName: '__ZN4core3ptr83drop_in_place$LT$core..ops..control_flow..ControlFlow$LT$platon_core..Value$GT$$GT$17hc1bbfc23647792ceE', symObjAddr: 0xFF4, symBinAddr: 0x25E28, symSize: 0x48 }
  - { offset: 0xB7FE3, size: 0x8, addend: 0x0, symName: '__ZN4core3ptr86drop_in_place$LT$pyo3..pyclass_init..PyClassInitializer$LT$avap_isa..PyAvapISA$GT$$GT$17h0429a74df3711dacE', symObjAddr: 0x103C, symBinAddr: 0x25E70, symSize: 0x24 }
  - { offset: 0xB8012, size: 0x8, addend: 0x0, symName: '__ZN4core3ptr87drop_in_place$LT$alloc..vec..into_iter..IntoIter$LT$$RF$pyo3..types..any..PyAny$GT$$GT$17h38c00f77f071bdedE', symObjAddr: 0x1060, symBinAddr: 0x25E94, symSize: 0x24 }
  - { offset: 0xB8041, size: 0x8, addend: 0x0, symName: '__ZN4core3ptr89drop_in_place$LT$core..result..Result$LT$alloc..string..String$C$pyo3..err..PyErr$GT$$GT$17hf1cac6c9c0ac4242E', symObjAddr: 0x1084, symBinAddr: 0x25EB8, symSize: 0x50 }
  - { offset: 0xB8070, size: 0x8, addend: 0x0, symName: '__ZN4core3ptr90drop_in_place$LT$alloc..sync..Weak$LT$avap_isa..AvapISA$C$$RF$alloc..alloc..Global$GT$$GT$17hd42d9fab0a6b719eE', symObjAddr: 0x10D4, symBinAddr: 0x25F08, symSize: 0x24 }
  - { offset: 0xB809F, size: 0x8, addend: 0x0, symName: '__ZN4core3ptr90drop_in_place$LT$core..option..Option$LT$alloc..sync..Arc$LT$avap_isa..AvapISA$GT$$GT$$GT$17heb101271c0cd2e22E', symObjAddr: 0x10F8, symBinAddr: 0x25F2C, symSize: 0x44 }
  - { offset: 0xB80CE, size: 0x8, addend: 0x0, symName: '__ZN4core3ptr90drop_in_place$LT$hashbrown..raw..RawTable$LT$$LP$u8$C$platon_core..Instruction$RP$$GT$$GT$17h7fc2767a62c17d4fE', symObjAddr: 0x113C, symBinAddr: 0x25F70, symSize: 0x24 }
  - { offset: 0xB80FD, size: 0x8, addend: 0x0, symName: '__ZN4core3ptr90drop_in_place$LT$pyo3..pyclass_init..PyClassInitializerImpl$LT$avap_isa..PyAvapISA$GT$$GT$17h02ab333a8f414fb2E', symObjAddr: 0x1160, symBinAddr: 0x25F94, symSize: 0x50 }
  - { offset: 0xB812C, size: 0x8, addend: 0x0, symName: '__ZN4core3ptr91drop_in_place$LT$core..result..Result$LT$platon_core..Value$C$alloc..string..String$GT$$GT$17h79b37cc34ecd4698E', symObjAddr: 0x11B0, symBinAddr: 0x25FE4, symSize: 0x5C }
  - { offset: 0xB815B, size: 0x8, addend: 0x0, symName: '__ZN4core3ptr93drop_in_place$LT$alloc..vec..Vec$LT$pyo3..instance..Py$LT$pyo3..types..any..PyAny$GT$$GT$$GT$17h75cd988112c04f95E', symObjAddr: 0x120C, symBinAddr: 0x26040, symSize: 0x5C }
  - { offset: 0xB818A, size: 0x8, addend: 0x0, symName: '__ZN4core3ptr94drop_in_place$LT$std..collections..hash..map..HashMap$LT$u8$C$platon_core..Instruction$GT$$GT$17h65c565751a54d6e4E', symObjAddr: 0x1268, symBinAddr: 0x2609C, symSize: 0x24 }
  - { offset: 0xB81B9, size: 0x8, addend: 0x0, symName: '__ZN4core3ptr95drop_in_place$LT$core..option..Option$LT$pyo3..pycell..PyRef$LT$avap_isa..PyAvapISA$GT$$GT$$GT$17hf25c06b65b64a866E', symObjAddr: 0x128C, symBinAddr: 0x260C0, symSize: 0x44 }
  - { offset: 0xB81E8, size: 0x8, addend: 0x0, symName: '__ZN4core3ptr97drop_in_place$LT$core..result..Result$LT$$RF$pyo3..types..dict..PyDict$C$pyo3..err..PyErr$GT$$GT$17h0b6911f5f93c4199E', symObjAddr: 0x12F4, symBinAddr: 0x26104, symSize: 0x40 }
  - { offset: 0xB8217, size: 0x8, addend: 0x0, symName: '__ZN4core3ptr98drop_in_place$LT$core..result..Result$LT$core..convert..Infallible$C$alloc..string..String$GT$$GT$17h38fbac80af148939E', symObjAddr: 0x1334, symBinAddr: 0x26144, symSize: 0x30 }
  - { offset: 0xB9439, size: 0x8, addend: 0x0, symName: __ZN4core3ops8function5FnMut8call_mut17h30a6befcb7800a0eE, symObjAddr: 0x2C8, symBinAddr: 0x252A0, symSize: 0x28 }
  - { offset: 0xB947D, size: 0x8, addend: 0x0, symName: __ZN4core3ops8function5FnMut8call_mut17he017330f0eacc5e7E, symObjAddr: 0x2F0, symBinAddr: 0x252C8, symSize: 0x38 }
  - { offset: 0xB94C7, size: 0x8, addend: 0x0, symName: __ZN4core3ops8function6FnOnce9call_once17h0b282f065b5cfc02E, symObjAddr: 0x328, symBinAddr: 0x25300, symSize: 0x3C }
  - { offset: 0xB950B, size: 0x8, addend: 0x0, symName: __ZN4core3ops8function6FnOnce9call_once17h0da7db2483913116E, symObjAddr: 0x364, symBinAddr: 0x2533C, symSize: 0x24 }
  - { offset: 0xB954F, size: 0x8, addend: 0x0, symName: __ZN4core3ops8function6FnOnce9call_once17h162508b7e4058e8cE, symObjAddr: 0x388, symBinAddr: 0x25360, symSize: 0x24 }
  - { offset: 0xB9593, size: 0x8, addend: 0x0, symName: __ZN4core3ops8function6FnOnce9call_once17h8e82b03960c3f500E, symObjAddr: 0x3AC, symBinAddr: 0x25384, symSize: 0x24 }
  - { offset: 0xB95D7, size: 0x8, addend: 0x0, symName: __ZN4core3ops8function6FnOnce9call_once17h9363c3846eb4e422E, symObjAddr: 0x3D0, symBinAddr: 0x253A8, symSize: 0x1C }
  - { offset: 0xB961B, size: 0x8, addend: 0x0, symName: __ZN4core3ops8function6FnOnce9call_once17hafa353f65e8e4a5fE, symObjAddr: 0x3EC, symBinAddr: 0x253C4, symSize: 0x4C }
  - { offset: 0xB965F, size: 0x8, addend: 0x0, symName: __ZN4core3ops8function6FnOnce9call_once17hb287069c570599f2E, symObjAddr: 0x438, symBinAddr: 0x25410, symSize: 0x4C }
  - { offset: 0xB96A3, size: 0x8, addend: 0x0, symName: __ZN4core3ops8function6FnOnce9call_once17hb349da53395992beE, symObjAddr: 0x484, symBinAddr: 0x2545C, symSize: 0x24 }
  - { offset: 0xB96E7, size: 0x8, addend: 0x0, symName: __ZN4core3ops8function6FnOnce9call_once17hd95269eabd2d2679E, symObjAddr: 0x4A8, symBinAddr: 0x25480, symSize: 0x3C }
  - { offset: 0xB972B, size: 0x8, addend: 0x0, symName: __ZN4core3ops8function6FnOnce9call_once17hdf820f3a4425ee10E, symObjAddr: 0x4E4, symBinAddr: 0x254BC, symSize: 0x24 }
  - { offset: 0xB976F, size: 0x8, addend: 0x0, symName: __ZN4core3ops8function6FnOnce9call_once17he00e83bb7f4e0ac2E, symObjAddr: 0x508, symBinAddr: 0x254E0, symSize: 0x4C }
  - { offset: 0xBA66B, size: 0x8, addend: 0x0, symName: '__ZN77_$LT$alloc..raw_vec..RawVec$LT$T$C$A$GT$$u20$as$u20$core..ops..drop..Drop$GT$4drop17h1103fbebc609ce7aE', symObjAddr: 0x16F8, symBinAddr: 0x264E4, symSize: 0x30 }
  - { offset: 0xBA6A7, size: 0x8, addend: 0x0, symName: '__ZN77_$LT$alloc..raw_vec..RawVec$LT$T$C$A$GT$$u20$as$u20$core..ops..drop..Drop$GT$4drop17h392c26f0ad3378e3E', symObjAddr: 0x1728, symBinAddr: 0x26514, symSize: 0x30 }
  - { offset: 0xBA88F, size: 0x8, addend: 0x0, symName: '__ZN107_$LT$alloc..vec..Vec$LT$T$C$A$GT$..retain_mut..PanicGuard$LT$T$C$A$GT$$u20$as$u20$core..ops..drop..Drop$GT$4drop17he614ee6aa1ceec9fE', symObjAddr: 0x0, symBinAddr: 0xA2524, symSize: 0x184 }
  - { offset: 0xBAAF8, size: 0x8, addend: 0x0, symName: '__ZN157_$LT$$LT$alloc..vec..into_iter..IntoIter$LT$T$C$A$GT$$u20$as$u20$core..ops..drop..Drop$GT$..drop..DropGuard$LT$T$C$A$GT$$u20$as$u20$core..ops..drop..Drop$GT$4drop17h025695a14e31f32aE', symObjAddr: 0x184, symBinAddr: 0x2515C, symSize: 0x6C }
  - { offset: 0xBAC3B, size: 0x8, addend: 0x0, symName: '__ZN157_$LT$$LT$alloc..vec..into_iter..IntoIter$LT$T$C$A$GT$$u20$as$u20$core..ops..drop..Drop$GT$..drop..DropGuard$LT$T$C$A$GT$$u20$as$u20$core..ops..drop..Drop$GT$4drop17haf775286bba96dedE', symObjAddr: 0x1F0, symBinAddr: 0x251C8, symSize: 0x6C }
  - { offset: 0xBAD7E, size: 0x8, addend: 0x0, symName: '__ZN157_$LT$$LT$alloc..vec..into_iter..IntoIter$LT$T$C$A$GT$$u20$as$u20$core..ops..drop..Drop$GT$..drop..DropGuard$LT$T$C$A$GT$$u20$as$u20$core..ops..drop..Drop$GT$4drop17hf797ea7ed12c1f82E', symObjAddr: 0x25C, symBinAddr: 0x25234, symSize: 0x6C }
  - { offset: 0xBAF38, size: 0x8, addend: 0x0, symName: '__ZN86_$LT$alloc..vec..into_iter..IntoIter$LT$T$C$A$GT$$u20$as$u20$core..ops..drop..Drop$GT$4drop17ha36aef47a7b11172E', symObjAddr: 0x1794, symBinAddr: 0x26580, symSize: 0x78 }
  - { offset: 0xBAF8A, size: 0x8, addend: 0x0, symName: '__ZN86_$LT$alloc..vec..into_iter..IntoIter$LT$T$C$A$GT$$u20$as$u20$core..ops..drop..Drop$GT$4drop17hded705a2e3c11f26E', symObjAddr: 0x180C, symBinAddr: 0x265F8, symSize: 0x78 }
  - { offset: 0xBAFDC, size: 0x8, addend: 0x0, symName: '__ZN86_$LT$alloc..vec..into_iter..IntoIter$LT$T$C$A$GT$$u20$as$u20$core..ops..drop..Drop$GT$4drop17hfc43e7f1e24b80a1E', symObjAddr: 0x1884, symBinAddr: 0x26670, symSize: 0x64 }
  - { offset: 0xBB1B9, size: 0x8, addend: 0x0, symName: '__ZN70_$LT$alloc..vec..Vec$LT$T$C$A$GT$$u20$as$u20$core..ops..drop..Drop$GT$4drop17h20ba9a8591eeee2eE', symObjAddr: 0x1400, symBinAddr: 0x261EC, symSize: 0x24 }
  - { offset: 0xBB269, size: 0x8, addend: 0x0, symName: '__ZN70_$LT$alloc..vec..Vec$LT$T$C$A$GT$$u20$as$u20$core..ops..drop..Drop$GT$4drop17h22e13b7e7e585fd5E', symObjAddr: 0x1424, symBinAddr: 0x26210, symSize: 0x38 }
  - { offset: 0xBB5A6, size: 0x8, addend: 0x0, symName: '__ZN71_$LT$alloc..sync..Arc$LT$T$C$A$GT$$u20$as$u20$core..ops..drop..Drop$GT$4drop17h86ff714d771c6d16E', symObjAddr: 0x1488, symBinAddr: 0x26274, symSize: 0x7C }
  - { offset: 0xBB701, size: 0x8, addend: 0x0, symName: '__ZN72_$LT$alloc..sync..Weak$LT$T$C$A$GT$$u20$as$u20$core..ops..drop..Drop$GT$4drop17hd831ab41457a3638E', symObjAddr: 0x15B4, symBinAddr: 0x263A0, symSize: 0x144 }
  - { offset: 0xBB8DD, size: 0x8, addend: 0x0, symName: '__ZN72_$LT$alloc..boxed..Box$LT$T$C$A$GT$$u20$as$u20$core..ops..drop..Drop$GT$4drop17hfff1a659cb662c5fE', symObjAddr: 0x1504, symBinAddr: 0x262F0, symSize: 0xB0 }
  - { offset: 0xBC1DB, size: 0x8, addend: 0x0, symName: '__ZN69_$LT$pyo3..instance..Py$LT$T$GT$$u20$as$u20$core..ops..drop..Drop$GT$4drop17h90e916185ce3c325E', symObjAddr: 0x1388, symBinAddr: 0x26174, symSize: 0x28 }
  - { offset: 0xBC20E, size: 0x8, addend: 0x0, symName: '__ZN69_$LT$pyo3..instance..Py$LT$T$GT$$u20$as$u20$core..ops..drop..Drop$GT$4drop17h96de1ab158b1aa38E', symObjAddr: 0x13B0, symBinAddr: 0x2619C, symSize: 0x28 }
  - { offset: 0xBC241, size: 0x8, addend: 0x0, symName: '__ZN69_$LT$pyo3..instance..Py$LT$T$GT$$u20$as$u20$core..ops..drop..Drop$GT$4drop17hcdea19b57205f538E', symObjAddr: 0x13D8, symBinAddr: 0x261C4, symSize: 0x28 }
  - { offset: 0xBC3D0, size: 0x8, addend: 0x0, symName: '__ZN70_$LT$pyo3..pycell..PyRef$LT$T$GT$$u20$as$u20$core..ops..drop..Drop$GT$4drop17h9332ea0c4c844b5aE', symObjAddr: 0x145C, symBinAddr: 0x26248, symSize: 0x2C }
  - { offset: 0xBD19B, size: 0x8, addend: 0x0, symName: '__ZN79_$LT$hashbrown..raw..RawTable$LT$T$C$A$GT$$u20$as$u20$core..ops..drop..Drop$GT$4drop17h221a6a619d97c7c6E', symObjAddr: 0x1758, symBinAddr: 0x26544, symSize: 0x3C }
  - { offset: 0xBDCC3, size: 0x8, addend: 0x0, symName: __ZN4core4iter6traits8iterator8Iterator4take17h178b218af9a87ed6E, symObjAddr: 0x0, symBinAddr: 0x266D4, symSize: 0x24 }
  - { offset: 0xBE4D8, size: 0x8, addend: 0x0, symName: __ZN4core4iter6traits8iterator8Iterator4take17h178b218af9a87ed6E, symObjAddr: 0x0, symBinAddr: 0x266D4, symSize: 0x24 }
  - { offset: 0xBEFF4, size: 0x8, addend: 0x0, symName: '__ZN4pyo35types5tuple127_$LT$impl$u20$pyo3..conversion..IntoPy$LT$pyo3..instance..Py$LT$pyo3..types..any..PyAny$GT$$GT$$u20$for$u20$$LP$T0$C$T1$RP$$GT$7into_py17h6b2fd18a3dc5eb3aE', symObjAddr: 0x7C, symBinAddr: 0x26750, symSize: 0xDC }
  - { offset: 0xBF077, size: 0x8, addend: 0x0, symName: __ZN4pyo310conversion13FromPyPointer17from_borrowed_ptr17h08e1588d74f8fc9bE, symObjAddr: 0x24, symBinAddr: 0x266F8, symSize: 0x24 }
  - { offset: 0xBF0C9, size: 0x8, addend: 0x0, symName: __ZN4pyo310conversion13FromPyPointer26from_borrowed_ptr_or_panic17hd63a4965a283b977E, symObjAddr: 0x48, symBinAddr: 0x2671C, symSize: 0x34 }
  - { offset: 0xBF121, size: 0x8, addend: 0x0, symName: '__ZN53_$LT$T$u20$as$u20$pyo3..conversion..FromPyPointer$GT$24from_borrowed_ptr_or_opt17hb30428abb11513c0E', symObjAddr: 0x158, symBinAddr: 0x2682C, symSize: 0x28 }
  - { offset: 0xBF705, size: 0x8, addend: 0x0, symName: __ZN4core4char7convert18from_u32_unchecked18precondition_check17ha36197f9f8126ff0E, symObjAddr: 0x0, symBinAddr: 0x26854, symSize: 0x7C }
  - { offset: 0xBF790, size: 0x8, addend: 0x0, symName: __ZN4core4char7convert18from_u32_unchecked18precondition_check17ha36197f9f8126ff0E, symObjAddr: 0x0, symBinAddr: 0x26854, symSize: 0x7C }
  - { offset: 0xBF904, size: 0x8, addend: 0x0, symName: '__ZN4pyo311conversions3std6string80_$LT$impl$u20$pyo3..conversion..ToPyObject$u20$for$u20$alloc..string..String$GT$9to_object17hfb255e0224772c60E', symObjAddr: 0x0, symBinAddr: 0x268D0, symSize: 0x34 }
  - { offset: 0xC1048, size: 0x8, addend: 0x0, symName: '__ZN4pyo311conversions3std6string80_$LT$impl$u20$pyo3..conversion..ToPyObject$u20$for$u20$alloc..string..String$GT$9to_object17hfb255e0224772c60E', symObjAddr: 0x0, symBinAddr: 0x268D0, symSize: 0x34 }
  - { offset: 0xC1418, size: 0x8, addend: 0x0, symName: '__ZN62_$LT$alloc..string..String$u20$as$u20$core..cmp..PartialEq$GT$2eq17h1a92fb726ac798f8E', symObjAddr: 0x8C, symBinAddr: 0x2695C, symSize: 0x2C }
  - { offset: 0xC145B, size: 0x8, addend: 0x0, symName: '__ZN65_$LT$alloc..string..String$u20$as$u20$core..ops..deref..Deref$GT$5deref17hf27457095b79ef02E', symObjAddr: 0xB8, symBinAddr: 0x26988, symSize: 0x20 }
  - { offset: 0xC1588, size: 0x8, addend: 0x0, symName: '__ZN73_$LT$alloc..string..String$u20$as$u20$core..cmp..PartialEq$LT$str$GT$$GT$2eq17ha28572f9b7176749E', symObjAddr: 0xD8, symBinAddr: 0x269A8, symSize: 0x64 }
  - { offset: 0xC172C, size: 0x8, addend: 0x0, symName: '__ZN76_$LT$alloc..string..String$u20$as$u20$core..convert..From$LT$$RF$str$GT$$GT$4from17h2ba783084d8d7b18E', symObjAddr: 0x13C, symBinAddr: 0x26A0C, symSize: 0x50 }
  - { offset: 0xC1819, size: 0x8, addend: 0x0, symName: '__ZN77_$LT$alloc..string..String$u20$as$u20$core..cmp..PartialEq$LT$$RF$str$GT$$GT$2eq17h9e0529355d95db38E', symObjAddr: 0x18C, symBinAddr: 0x26A5C, symSize: 0x64 }
  - { offset: 0xC19BD, size: 0x8, addend: 0x0, symName: '__ZN78_$LT$alloc..string..String$u20$as$u20$core..ops..arith..Add$LT$$RF$str$GT$$GT$3add17h50a5e6ab47a7d180E', symObjAddr: 0x1F0, symBinAddr: 0x26AC0, symSize: 0x130 }
  - { offset: 0xC1E0C, size: 0x8, addend: 0x0, symName: __ZN5alloc6string6String3len17hba51909940eae12cE, symObjAddr: 0x34, symBinAddr: 0x26904, symSize: 0x18 }
  - { offset: 0xC1F2D, size: 0x8, addend: 0x0, symName: __ZN5alloc6string6String6as_str17h1251371e678e1516E, symObjAddr: 0x4C, symBinAddr: 0x2691C, symSize: 0x20 }
  - { offset: 0xC1FF0, size: 0x8, addend: 0x0, symName: __ZN5alloc6string6String8is_empty17h955adc4d6e2707f8E, symObjAddr: 0x6C, symBinAddr: 0x2693C, symSize: 0x20 }
  - { offset: 0xC287B, size: 0x8, addend: 0x0, symName: '__ZN4core3ptr8non_null16NonNull$LT$T$GT$13new_unchecked18precondition_check17h682ebe18d0b0fa69E', symObjAddr: 0x0, symBinAddr: 0x26BF0, symSize: 0x58 }
  - { offset: 0xC28A1, size: 0x8, addend: 0x0, symName: '__ZN4core3ptr8non_null16NonNull$LT$T$GT$13new_unchecked18precondition_check17h682ebe18d0b0fa69E', symObjAddr: 0x0, symBinAddr: 0x26BF0, symSize: 0x58 }
  - { offset: 0xC2952, size: 0x8, addend: 0x0, symName: __ZN4pyo35types4none6PyNone3get17h40474e06eefe04d6E, symObjAddr: 0x0, symBinAddr: 0x26C48, symSize: 0x20 }
  - { offset: 0xC4021, size: 0x8, addend: 0x0, symName: __ZN4pyo35types4none6PyNone3get17h40474e06eefe04d6E, symObjAddr: 0x0, symBinAddr: 0x26C48, symSize: 0x20 }
  - { offset: 0xC406C, size: 0x8, addend: 0x0, symName: __ZN4pyo35types6string8PyString6to_str17h1a1276b2cc1986b5E, symObjAddr: 0x0, symBinAddr: 0x26C68, symSize: 0xD0 }
  - { offset: 0xC535C, size: 0x8, addend: 0x0, symName: '__ZN73_$LT$pyo3..types..string..PyString$u20$as$u20$core..ops..deref..Deref$GT$5deref17h71c9e8988af0f1ccE', symObjAddr: 0xD0, symBinAddr: 0x26D38, symSize: 0x14 }
  - { offset: 0xC538E, size: 0x8, addend: 0x0, symName: '__ZN79_$LT$pyo3..types..string..PyString$u20$as$u20$pyo3..type_object..PyTypeInfo$GT$10is_type_of17h88691c9d16aaffceE', symObjAddr: 0xE4, symBinAddr: 0x26D4C, symSize: 0x30 }
  - { offset: 0xC5A91, size: 0x8, addend: 0x0, symName: __ZN4pyo35types6string8PyString6to_str17h1a1276b2cc1986b5E, symObjAddr: 0x0, symBinAddr: 0x26C68, symSize: 0xD0 }
  - { offset: 0xC5B57, size: 0x8, addend: 0x0, symName: __ZN4core5slice3raw14from_raw_parts18precondition_check17h5b3cd6c23a8602a7E, symObjAddr: 0x0, symBinAddr: 0x26D7C, symSize: 0x10C }
  - { offset: 0xC5CF6, size: 0x8, addend: 0x0, symName: __ZN4core5slice3raw14from_raw_parts18precondition_check17h5b3cd6c23a8602a7E, symObjAddr: 0x0, symBinAddr: 0x26D7C, symSize: 0x10C }
  - { offset: 0xC5E12, size: 0x8, addend: 0x0, symName: __ZN4core5slice3raw18from_raw_parts_mut18precondition_check17h503bc2fdf7f75d6bE, symObjAddr: 0x10C, symBinAddr: 0x26E88, symSize: 0x10C }
  - { offset: 0xC5FA7, size: 0x8, addend: 0x0, symName: __ZN4pyo35types8sequence16extract_sequence17h821bbdbcae0d1b92E, symObjAddr: 0x0, symBinAddr: 0x26F94, symSize: 0x320 }
  - { offset: 0xC73FE, size: 0x8, addend: 0x0, symName: __ZN4pyo35types8sequence16extract_sequence17h821bbdbcae0d1b92E, symObjAddr: 0x0, symBinAddr: 0x26F94, symSize: 0x320 }
  - { offset: 0xC7CB7, size: 0x8, addend: 0x0, symName: '__ZN4core3str4iter22SplitInternal$LT$P$GT$4next17he9a40b8bca3e5233E', symObjAddr: 0x0, symBinAddr: 0x272B4, symSize: 0x13C }
  - { offset: 0xC7EE3, size: 0x8, addend: 0x0, symName: '__ZN4core3str4iter29MatchIndicesInternal$LT$P$GT$4next28_$u7b$$u7b$closure$u7d$$u7d$17hed009a1661fe97e6E', symObjAddr: 0x260, symBinAddr: 0x27514, symSize: 0xA8 }
  - { offset: 0xC804C, size: 0x8, addend: 0x0, symName: '__ZN90_$LT$core..str..iter..Split$LT$P$GT$$u20$as$u20$core..iter..traits..iterator..Iterator$GT$4next17h50087587124302afE', symObjAddr: 0x4D4, symBinAddr: 0x27788, symSize: 0x24 }
  - { offset: 0xC855E, size: 0x8, addend: 0x0, symName: __ZN4core4iter6traits8iterator8Iterator3all17h1fd2ba00dc55a843E, symObjAddr: 0x308, symBinAddr: 0x275BC, symSize: 0x3C }
  - { offset: 0xC85AD, size: 0x8, addend: 0x0, symName: __ZN4core4iter6traits8iterator8Iterator3map17ha31b26c1c186ee2eE, symObjAddr: 0x344, symBinAddr: 0x275F8, symSize: 0x30 }
  - { offset: 0xC861B, size: 0x8, addend: 0x0, symName: __ZN4core4iter6traits8iterator8Iterator8try_fold17h1c7cf20c73929161E, symObjAddr: 0x374, symBinAddr: 0x27628, symSize: 0x12C }
  - { offset: 0xC86CD, size: 0x8, addend: 0x0, symName: __ZN4core4iter6traits8iterator8Iterator9size_hint17hff9a71950b28318aE, symObjAddr: 0x4A0, symBinAddr: 0x27754, symSize: 0x34 }
  - { offset: 0xC88EB, size: 0x8, addend: 0x0, symName: '__ZN4core3str4iter22SplitInternal$LT$P$GT$4next17he9a40b8bca3e5233E', symObjAddr: 0x0, symBinAddr: 0x272B4, symSize: 0x13C }
  - { offset: 0xC8A2F, size: 0x8, addend: 0x0, symName: '__ZN4core3str4iter22SplitInternal$LT$P$GT$7get_end17h640cf628edf62ae6E', symObjAddr: 0x13C, symBinAddr: 0x273F0, symSize: 0x124 }
  - { offset: 0xC8F54, size: 0x8, addend: 0x0, symName: __ZN9hashbrown3raw13RawTableInner13drop_elements17heb70730f4f5c52eeE, symObjAddr: 0x0, symBinAddr: 0x277AC, symSize: 0x30 }
  - { offset: 0xC9E5E, size: 0x8, addend: 0x0, symName: __ZN9hashbrown3raw13RawTableInner13drop_elements17heb70730f4f5c52eeE, symObjAddr: 0x0, symBinAddr: 0x277AC, symSize: 0x30 }
  - { offset: 0xCA11F, size: 0x8, addend: 0x0, symName: __ZN9hashbrown3raw13RawTableInner16drop_inner_table17h35c9af4260d65143E, symObjAddr: 0x30, symBinAddr: 0x277DC, symSize: 0xB0 }
  - { offset: 0xCA2CB, size: 0x8, addend: 0x0, symName: '__ZN75_$LT$usize$u20$as$u20$core..slice..index..SliceIndex$LT$$u5b$T$u5d$$GT$$GT$5index17h074aff10217c15edE', symObjAddr: 0x0, symBinAddr: 0x2788C, symSize: 0x5C }
  - { offset: 0xCA2EC, size: 0x8, addend: 0x0, symName: '__ZN75_$LT$usize$u20$as$u20$core..slice..index..SliceIndex$LT$$u5b$T$u5d$$GT$$GT$5index17h074aff10217c15edE', symObjAddr: 0x0, symBinAddr: 0x2788C, symSize: 0x5C }
  - { offset: 0xCB85D, size: 0x8, addend: 0x0, symName: '__ZN70_$LT$pyo3..exceptions..PyBaseException$u20$as$u20$core..fmt..Debug$GT$3fmt17hae94dbdf6cb0c536E', symObjAddr: 0xA8BC, symBinAddr: 0x27B74, symSize: 0xFC }
  - { offset: 0xCB8CF, size: 0x8, addend: 0x0, symName: '__ZN77_$LT$pyo3..exceptions..PyBaseException$u20$as$u20$core..ops..deref..Deref$GT$5deref17h8f4a7c41adba0610E', symObjAddr: 0x14AB8, symBinAddr: 0x27C70, symSize: 0x14 }
  - { offset: 0xCB901, size: 0x8, addend: 0x0, symName: '__ZN79_$LT$pyo3..exceptions..PyTypeError$u20$as$u20$pyo3..type_object..PyTypeInfo$GT$15type_object_raw17heafc213104a4215cE', symObjAddr: 0x174E0, symBinAddr: 0x27C84, symSize: 0x24 }
  - { offset: 0xCB93D, size: 0x8, addend: 0x0, symName: '__ZN79_$LT$pyo3..exceptions..PyTypeError$u20$as$u20$pyo3..type_object..PyTypeInfo$GT$15type_object_raw28_$u7b$$u7b$closure$u7d$$u7d$17h13eaf53c785ec233E', symObjAddr: 0x17504, symBinAddr: 0x27CA8, symSize: 0x4C }
  - { offset: 0xCB990, size: 0x8, addend: 0x0, symName: '__ZN80_$LT$pyo3..exceptions..PyValueError$u20$as$u20$pyo3..type_object..PyTypeInfo$GT$15type_object_raw17he872526ef42f8a43E', symObjAddr: 0x17964, symBinAddr: 0x27CF4, symSize: 0x24 }
  - { offset: 0xCB9CC, size: 0x8, addend: 0x0, symName: '__ZN80_$LT$pyo3..exceptions..PyValueError$u20$as$u20$pyo3..type_object..PyTypeInfo$GT$15type_object_raw28_$u7b$$u7b$closure$u7d$$u7d$17h53ae1ccf38019034E', symObjAddr: 0x17988, symBinAddr: 0x27D18, symSize: 0x4C }
  - { offset: 0xCBA1F, size: 0x8, addend: 0x0, symName: '__ZN81_$LT$pyo3..exceptions..PyImportError$u20$as$u20$pyo3..type_object..PyTypeInfo$GT$15type_object_raw17h171e775ee45796a9E', symObjAddr: 0x18084, symBinAddr: 0x27D64, symSize: 0x24 }
  - { offset: 0xCBA5B, size: 0x8, addend: 0x0, symName: '__ZN81_$LT$pyo3..exceptions..PyImportError$u20$as$u20$pyo3..type_object..PyTypeInfo$GT$15type_object_raw28_$u7b$$u7b$closure$u7d$$u7d$17h25a516e8cebe9521E', symObjAddr: 0x180A8, symBinAddr: 0x27D88, symSize: 0x4C }
  - { offset: 0xCBAAE, size: 0x8, addend: 0x0, symName: '__ZN82_$LT$pyo3..exceptions..PyRuntimeError$u20$as$u20$pyo3..type_object..PyTypeInfo$GT$15type_object_raw17he955fc2aacdca43aE', symObjAddr: 0x185F8, symBinAddr: 0x27DD4, symSize: 0x24 }
  - { offset: 0xCBAEA, size: 0x8, addend: 0x0, symName: '__ZN82_$LT$pyo3..exceptions..PyRuntimeError$u20$as$u20$pyo3..type_object..PyTypeInfo$GT$15type_object_raw28_$u7b$$u7b$closure$u7d$$u7d$17hb7d695dca7517b68E', symObjAddr: 0x1861C, symBinAddr: 0x27DF8, symSize: 0x4C }
  - { offset: 0xCBB3D, size: 0x8, addend: 0x0, symName: '__ZN83_$LT$pyo3..exceptions..PyBaseException$u20$as$u20$pyo3..type_object..PyTypeInfo$GT$15type_object_raw17hf3b829779d6a808cE', symObjAddr: 0x1882C, symBinAddr: 0x27E44, symSize: 0x24 }
  - { offset: 0xCBB79, size: 0x8, addend: 0x0, symName: '__ZN83_$LT$pyo3..exceptions..PyBaseException$u20$as$u20$pyo3..type_object..PyTypeInfo$GT$15type_object_raw28_$u7b$$u7b$closure$u7d$$u7d$17hc899bcd899e04103E', symObjAddr: 0x18850, symBinAddr: 0x27E68, symSize: 0x4C }
  - { offset: 0xCBBCC, size: 0x8, addend: 0x0, symName: '__ZN84_$LT$pyo3..exceptions..PyAttributeError$u20$as$u20$pyo3..type_object..PyTypeInfo$GT$15type_object_raw17h5e0452707e7adddeE', symObjAddr: 0x18C88, symBinAddr: 0x27EB4, symSize: 0x24 }
  - { offset: 0xCBC08, size: 0x8, addend: 0x0, symName: '__ZN84_$LT$pyo3..exceptions..PyAttributeError$u20$as$u20$pyo3..type_object..PyTypeInfo$GT$15type_object_raw28_$u7b$$u7b$closure$u7d$$u7d$17hc35408e784907f3dE', symObjAddr: 0x18CAC, symBinAddr: 0x27ED8, symSize: 0x4C }
  - { offset: 0xCBE96, size: 0x8, addend: 0x0, symName: __ZN4pyo38instance12PyNativeType18unchecked_downcast17hd4717e9970d7ca00E, symObjAddr: 0x6B14, symBinAddr: 0x27B04, symSize: 0x70 }
  - { offset: 0xCBF5B, size: 0x8, addend: 0x0, symName: __ZN4pyo311type_object10PyTypeInfo11type_object17h73509bfb2d61e6d7E, symObjAddr: 0x50C4, symBinAddr: 0x27A44, symSize: 0x20 }
  - { offset: 0xCBF9B, size: 0x8, addend: 0x0, symName: __ZN4pyo311type_object10PyTypeInfo11type_object17h9dba5b62b8067cb6E, symObjAddr: 0x5124, symBinAddr: 0x27A64, symSize: 0x20 }
  - { offset: 0xCBFDB, size: 0x8, addend: 0x0, symName: __ZN4pyo311type_object10PyTypeInfo11type_object17habb7932ca1c18f0fE, symObjAddr: 0x5144, symBinAddr: 0x27A84, symSize: 0x20 }
  - { offset: 0xCC01B, size: 0x8, addend: 0x0, symName: __ZN4pyo311type_object10PyTypeInfo11type_object17hc6f149d879a9d5daE, symObjAddr: 0x5204, symBinAddr: 0x27AA4, symSize: 0x20 }
  - { offset: 0xCC05B, size: 0x8, addend: 0x0, symName: __ZN4pyo311type_object10PyTypeInfo11type_object17hc957f99c8ed786dfE, symObjAddr: 0x5224, symBinAddr: 0x27AC4, symSize: 0x20 }
  - { offset: 0xCC09B, size: 0x8, addend: 0x0, symName: __ZN4pyo311type_object10PyTypeInfo11type_object17hd5154bbd65fc65beE, symObjAddr: 0x5244, symBinAddr: 0x27AE4, symSize: 0x20 }
  - { offset: 0xCCD16, size: 0x8, addend: 0x0, symName: __ZN4pyo310exceptions11PyTypeError7new_err17h70e26e86e3895600E, symObjAddr: 0x34AC, symBinAddr: 0x278FC, symSize: 0x28 }
  - { offset: 0xCCECC, size: 0x8, addend: 0x0, symName: __ZN4pyo310exceptions11PyTypeError7new_err17hbd28f6ed89545aa2E, symObjAddr: 0x34D4, symBinAddr: 0x27924, symSize: 0x34 }
  - { offset: 0xCCEF8, size: 0x8, addend: 0x0, symName: __ZN4pyo310exceptions11PyTypeError7new_err17hf874ede08eece802E, symObjAddr: 0x3508, symBinAddr: 0x27958, symSize: 0x34 }
  - { offset: 0xCCF24, size: 0x8, addend: 0x0, symName: __ZN4pyo310exceptions12PyValueError7new_err17h04ca2a85188fc2b4E, symObjAddr: 0x353C, symBinAddr: 0x2798C, symSize: 0x28 }
  - { offset: 0xCCF4F, size: 0x8, addend: 0x0, symName: __ZN4pyo310exceptions12PyValueError7new_err17h957099e8ea6104eeE, symObjAddr: 0x3610, symBinAddr: 0x279B4, symSize: 0x34 }
  - { offset: 0xCCF7B, size: 0x8, addend: 0x0, symName: __ZN4pyo310exceptions13PyImportError7new_err17h370124d4f1fd6014E, symObjAddr: 0x3680, symBinAddr: 0x279E8, symSize: 0x28 }
  - { offset: 0xCCFA6, size: 0x8, addend: 0x0, symName: __ZN4pyo310exceptions14PyRuntimeError7new_err17h9e0f410e7f819281E, symObjAddr: 0x36A8, symBinAddr: 0x27A10, symSize: 0x34 }
  - { offset: 0xCD10D, size: 0x8, addend: 0x0, symName: '__ZN136_$LT$core..result..Result$LT$V$C$E$GT$$u20$as$u20$core..iter..traits..collect..FromIterator$LT$core..result..Result$LT$A$C$E$GT$$GT$$GT$9from_iter17hd91f010fbaef62d4E', symObjAddr: 0x0, symBinAddr: 0x27F24, symSize: 0x34 }
  - { offset: 0xCE915, size: 0x8, addend: 0x0, symName: '__ZN136_$LT$core..result..Result$LT$V$C$E$GT$$u20$as$u20$core..iter..traits..collect..FromIterator$LT$core..result..Result$LT$A$C$E$GT$$GT$$GT$9from_iter17hd91f010fbaef62d4E', symObjAddr: 0x0, symBinAddr: 0x27F24, symSize: 0x34 }
  - { offset: 0xCE96D, size: 0x8, addend: 0x0, symName: '__ZN136_$LT$core..result..Result$LT$V$C$E$GT$$u20$as$u20$core..iter..traits..collect..FromIterator$LT$core..result..Result$LT$A$C$E$GT$$GT$$GT$9from_iter28_$u7b$$u7b$closure$u7d$$u7d$17haef2afb4ec132c07E', symObjAddr: 0x34, symBinAddr: 0x27F58, symSize: 0x28 }
  - { offset: 0xCEC18, size: 0x8, addend: 0x0, symName: '__ZN153_$LT$core..result..Result$LT$T$C$F$GT$$u20$as$u20$core..ops..try_trait..FromResidual$LT$core..result..Result$LT$core..convert..Infallible$C$E$GT$$GT$$GT$13from_residual17h0183b0a99867d37fE', symObjAddr: 0x5C, symBinAddr: 0x27F80, symSize: 0x48 }
  - { offset: 0xCEC9D, size: 0x8, addend: 0x0, symName: '__ZN153_$LT$core..result..Result$LT$T$C$F$GT$$u20$as$u20$core..ops..try_trait..FromResidual$LT$core..result..Result$LT$core..convert..Infallible$C$E$GT$$GT$$GT$13from_residual17h071d7c2e91899a3cE', symObjAddr: 0xEC, symBinAddr: 0x27FC8, symSize: 0x48 }
  - { offset: 0xCED22, size: 0x8, addend: 0x0, symName: '__ZN153_$LT$core..result..Result$LT$T$C$F$GT$$u20$as$u20$core..ops..try_trait..FromResidual$LT$core..result..Result$LT$core..convert..Infallible$C$E$GT$$GT$$GT$13from_residual17h0e27b20d384418a2E', symObjAddr: 0x1C8, symBinAddr: 0x28010, symSize: 0x48 }
  - { offset: 0xCEDA7, size: 0x8, addend: 0x0, symName: '__ZN153_$LT$core..result..Result$LT$T$C$F$GT$$u20$as$u20$core..ops..try_trait..FromResidual$LT$core..result..Result$LT$core..convert..Infallible$C$E$GT$$GT$$GT$13from_residual17h112f00396002a137E', symObjAddr: 0x2A0, symBinAddr: 0x28058, symSize: 0x14 }
  - { offset: 0xCEDF0, size: 0x8, addend: 0x0, symName: '__ZN153_$LT$core..result..Result$LT$T$C$F$GT$$u20$as$u20$core..ops..try_trait..FromResidual$LT$core..result..Result$LT$core..convert..Infallible$C$E$GT$$GT$$GT$13from_residual17h120355159b2b43e9E', symObjAddr: 0x2FC, symBinAddr: 0x2806C, symSize: 0x48 }
  - { offset: 0xCEE75, size: 0x8, addend: 0x0, symName: '__ZN153_$LT$core..result..Result$LT$T$C$F$GT$$u20$as$u20$core..ops..try_trait..FromResidual$LT$core..result..Result$LT$core..convert..Infallible$C$E$GT$$GT$$GT$13from_residual17h3cb0e51356da87b5E', symObjAddr: 0x5FC, symBinAddr: 0x280B4, symSize: 0x48 }
  - { offset: 0xCEEFA, size: 0x8, addend: 0x0, symName: '__ZN153_$LT$core..result..Result$LT$T$C$F$GT$$u20$as$u20$core..ops..try_trait..FromResidual$LT$core..result..Result$LT$core..convert..Infallible$C$E$GT$$GT$$GT$13from_residual17h549f55d9f1e6fce0E', symObjAddr: 0x804, symBinAddr: 0x280FC, symSize: 0x58 }
  - { offset: 0xCEF62, size: 0x8, addend: 0x0, symName: '__ZN153_$LT$core..result..Result$LT$T$C$F$GT$$u20$as$u20$core..ops..try_trait..FromResidual$LT$core..result..Result$LT$core..convert..Infallible$C$E$GT$$GT$$GT$13from_residual17h5e2b178d92098abfE', symObjAddr: 0x8EC, symBinAddr: 0x28154, symSize: 0x48 }
  - { offset: 0xCEFE7, size: 0x8, addend: 0x0, symName: '__ZN153_$LT$core..result..Result$LT$T$C$F$GT$$u20$as$u20$core..ops..try_trait..FromResidual$LT$core..result..Result$LT$core..convert..Infallible$C$E$GT$$GT$$GT$13from_residual17h60310097f6dc45a4E', symObjAddr: 0x934, symBinAddr: 0x2819C, symSize: 0x48 }
  - { offset: 0xCF06C, size: 0x8, addend: 0x0, symName: '__ZN153_$LT$core..result..Result$LT$T$C$F$GT$$u20$as$u20$core..ops..try_trait..FromResidual$LT$core..result..Result$LT$core..convert..Infallible$C$E$GT$$GT$$GT$13from_residual17h6d2c035c0d35c600E', symObjAddr: 0xA14, symBinAddr: 0x281E4, symSize: 0x48 }
  - { offset: 0xCF0F1, size: 0x8, addend: 0x0, symName: '__ZN153_$LT$core..result..Result$LT$T$C$F$GT$$u20$as$u20$core..ops..try_trait..FromResidual$LT$core..result..Result$LT$core..convert..Infallible$C$E$GT$$GT$$GT$13from_residual17h6de8413a9bc8adbbE', symObjAddr: 0xA5C, symBinAddr: 0x2822C, symSize: 0x48 }
  - { offset: 0xCF176, size: 0x8, addend: 0x0, symName: '__ZN153_$LT$core..result..Result$LT$T$C$F$GT$$u20$as$u20$core..ops..try_trait..FromResidual$LT$core..result..Result$LT$core..convert..Infallible$C$E$GT$$GT$$GT$13from_residual17h6e2bf0b6e3a24f51E', symObjAddr: 0xAA4, symBinAddr: 0x28274, symSize: 0x48 }
  - { offset: 0xCF1FB, size: 0x8, addend: 0x0, symName: '__ZN153_$LT$core..result..Result$LT$T$C$F$GT$$u20$as$u20$core..ops..try_trait..FromResidual$LT$core..result..Result$LT$core..convert..Infallible$C$E$GT$$GT$$GT$13from_residual17h795f6473466855b1E', symObjAddr: 0xB34, symBinAddr: 0x282BC, symSize: 0x48 }
  - { offset: 0xCF280, size: 0x8, addend: 0x0, symName: '__ZN153_$LT$core..result..Result$LT$T$C$F$GT$$u20$as$u20$core..ops..try_trait..FromResidual$LT$core..result..Result$LT$core..convert..Infallible$C$E$GT$$GT$$GT$13from_residual17h8dab83b1b81b4141E', symObjAddr: 0xC9C, symBinAddr: 0x28304, symSize: 0x48 }
  - { offset: 0xCF305, size: 0x8, addend: 0x0, symName: '__ZN153_$LT$core..result..Result$LT$T$C$F$GT$$u20$as$u20$core..ops..try_trait..FromResidual$LT$core..result..Result$LT$core..convert..Infallible$C$E$GT$$GT$$GT$13from_residual17h927f58cd2eaeb6e1E', symObjAddr: 0xDCC, symBinAddr: 0x2834C, symSize: 0x48 }
  - { offset: 0xCF38A, size: 0x8, addend: 0x0, symName: '__ZN153_$LT$core..result..Result$LT$T$C$F$GT$$u20$as$u20$core..ops..try_trait..FromResidual$LT$core..result..Result$LT$core..convert..Infallible$C$E$GT$$GT$$GT$13from_residual17h9d9b48145076f525E', symObjAddr: 0xEA4, symBinAddr: 0x28394, symSize: 0x58 }
  - { offset: 0xCF3F2, size: 0x8, addend: 0x0, symName: '__ZN153_$LT$core..result..Result$LT$T$C$F$GT$$u20$as$u20$core..ops..try_trait..FromResidual$LT$core..result..Result$LT$core..convert..Infallible$C$E$GT$$GT$$GT$13from_residual17h9eaf62c254e0607eE', symObjAddr: 0xEFC, symBinAddr: 0x283EC, symSize: 0x58 }
  - { offset: 0xCF45A, size: 0x8, addend: 0x0, symName: '__ZN153_$LT$core..result..Result$LT$T$C$F$GT$$u20$as$u20$core..ops..try_trait..FromResidual$LT$core..result..Result$LT$core..convert..Infallible$C$E$GT$$GT$$GT$13from_residual17hb1cc6606fd9715a5E', symObjAddr: 0x1084, symBinAddr: 0x28444, symSize: 0x48 }
  - { offset: 0xCF4DF, size: 0x8, addend: 0x0, symName: '__ZN153_$LT$core..result..Result$LT$T$C$F$GT$$u20$as$u20$core..ops..try_trait..FromResidual$LT$core..result..Result$LT$core..convert..Infallible$C$E$GT$$GT$$GT$13from_residual17hba9d3726601dbb61E', symObjAddr: 0x117C, symBinAddr: 0x2848C, symSize: 0x48 }
  - { offset: 0xCF564, size: 0x8, addend: 0x0, symName: '__ZN153_$LT$core..result..Result$LT$T$C$F$GT$$u20$as$u20$core..ops..try_trait..FromResidual$LT$core..result..Result$LT$core..convert..Infallible$C$E$GT$$GT$$GT$13from_residual17hcdb2efa4a6ef75a6E', symObjAddr: 0x129C, symBinAddr: 0x284D4, symSize: 0x58 }
  - { offset: 0xCF5CC, size: 0x8, addend: 0x0, symName: '__ZN153_$LT$core..result..Result$LT$T$C$F$GT$$u20$as$u20$core..ops..try_trait..FromResidual$LT$core..result..Result$LT$core..convert..Infallible$C$E$GT$$GT$$GT$13from_residual17hd131afbf9015a819E', symObjAddr: 0x12F4, symBinAddr: 0x2852C, symSize: 0x48 }
  - { offset: 0xCF651, size: 0x8, addend: 0x0, symName: '__ZN153_$LT$core..result..Result$LT$T$C$F$GT$$u20$as$u20$core..ops..try_trait..FromResidual$LT$core..result..Result$LT$core..convert..Infallible$C$E$GT$$GT$$GT$13from_residual17hdfb5ea584a18339aE', symObjAddr: 0x1414, symBinAddr: 0x28574, symSize: 0x48 }
  - { offset: 0xD1209, size: 0x8, addend: 0x0, symName: __ZN4core6result6Result3Err17hb5a215d89d1108efE, symObjAddr: 0x8628, symBinAddr: 0x292F0, symSize: 0x20 }
  - { offset: 0xD124C, size: 0x8, addend: 0x0, symName: '__ZN79_$LT$core..result..Result$LT$T$C$E$GT$$u20$as$u20$core..ops..try_trait..Try$GT$11from_output17hc88d78ba2c3e7200E', symObjAddr: 0x8648, symBinAddr: 0x29310, symSize: 0x18 }
  - { offset: 0xD128C, size: 0x8, addend: 0x0, symName: '__ZN79_$LT$core..result..Result$LT$T$C$E$GT$$u20$as$u20$core..ops..try_trait..Try$GT$6branch17h0f9ce0c56e8c00d3E', symObjAddr: 0x8768, symBinAddr: 0x29328, symSize: 0x94 }
  - { offset: 0xD130A, size: 0x8, addend: 0x0, symName: '__ZN79_$LT$core..result..Result$LT$T$C$E$GT$$u20$as$u20$core..ops..try_trait..Try$GT$6branch17h1fad566c35a33e44E', symObjAddr: 0x8960, symBinAddr: 0x293BC, symSize: 0x88 }
  - { offset: 0xD1388, size: 0x8, addend: 0x0, symName: '__ZN79_$LT$core..result..Result$LT$T$C$E$GT$$u20$as$u20$core..ops..try_trait..Try$GT$6branch17h3458bf11309b9977E', symObjAddr: 0x8A94, symBinAddr: 0x29444, symSize: 0x94 }
  - { offset: 0xD1405, size: 0x8, addend: 0x0, symName: '__ZN79_$LT$core..result..Result$LT$T$C$E$GT$$u20$as$u20$core..ops..try_trait..Try$GT$6branch17h3b0a016cde081e34E', symObjAddr: 0x8BBC, symBinAddr: 0x294D8, symSize: 0x28 }
  - { offset: 0xD1463, size: 0x8, addend: 0x0, symName: '__ZN79_$LT$core..result..Result$LT$T$C$E$GT$$u20$as$u20$core..ops..try_trait..Try$GT$6branch17h400c54f9e0bdb0afE', symObjAddr: 0x8C64, symBinAddr: 0x29500, symSize: 0x58 }
  - { offset: 0xD14DF, size: 0x8, addend: 0x0, symName: '__ZN79_$LT$core..result..Result$LT$T$C$E$GT$$u20$as$u20$core..ops..try_trait..Try$GT$6branch17h6a577beb5fa44b26E', symObjAddr: 0x8FE4, symBinAddr: 0x29558, symSize: 0x94 }
  - { offset: 0xD155C, size: 0x8, addend: 0x0, symName: '__ZN79_$LT$core..result..Result$LT$T$C$E$GT$$u20$as$u20$core..ops..try_trait..Try$GT$6branch17h85379ce184f14c4dE', symObjAddr: 0x9200, symBinAddr: 0x295EC, symSize: 0x94 }
  - { offset: 0xD15D9, size: 0x8, addend: 0x0, symName: '__ZN79_$LT$core..result..Result$LT$T$C$E$GT$$u20$as$u20$core..ops..try_trait..Try$GT$6branch17h889c7f5ce5c0a203E', symObjAddr: 0x9294, symBinAddr: 0x29680, symSize: 0x44 }
  - { offset: 0xD1655, size: 0x8, addend: 0x0, symName: '__ZN79_$LT$core..result..Result$LT$T$C$E$GT$$u20$as$u20$core..ops..try_trait..Try$GT$6branch17h8e6b49c64e3dee5fE', symObjAddr: 0x92D8, symBinAddr: 0x296C4, symSize: 0x88 }
  - { offset: 0xD16D3, size: 0x8, addend: 0x0, symName: '__ZN79_$LT$core..result..Result$LT$T$C$E$GT$$u20$as$u20$core..ops..try_trait..Try$GT$6branch17h8edb00d051c767b4E', symObjAddr: 0x9360, symBinAddr: 0x2974C, symSize: 0x80 }
  - { offset: 0xD1751, size: 0x8, addend: 0x0, symName: '__ZN79_$LT$core..result..Result$LT$T$C$E$GT$$u20$as$u20$core..ops..try_trait..Try$GT$6branch17h92a39a7cbe1d08baE', symObjAddr: 0x93E0, symBinAddr: 0x297CC, symSize: 0x80 }
  - { offset: 0xD17CF, size: 0x8, addend: 0x0, symName: '__ZN79_$LT$core..result..Result$LT$T$C$E$GT$$u20$as$u20$core..ops..try_trait..Try$GT$6branch17h96ee7253bb4ddcd4E', symObjAddr: 0x94E8, symBinAddr: 0x2984C, symSize: 0x80 }
  - { offset: 0xD184D, size: 0x8, addend: 0x0, symName: '__ZN79_$LT$core..result..Result$LT$T$C$E$GT$$u20$as$u20$core..ops..try_trait..Try$GT$6branch17ha267aa91fe860639E', symObjAddr: 0x9668, symBinAddr: 0x298CC, symSize: 0x28 }
  - { offset: 0xD18AB, size: 0x8, addend: 0x0, symName: '__ZN79_$LT$core..result..Result$LT$T$C$E$GT$$u20$as$u20$core..ops..try_trait..Try$GT$6branch17haa4dddb75c8a5371E', symObjAddr: 0x9710, symBinAddr: 0x298F4, symSize: 0x8C }
  - { offset: 0xD1929, size: 0x8, addend: 0x0, symName: '__ZN79_$LT$core..result..Result$LT$T$C$E$GT$$u20$as$u20$core..ops..try_trait..Try$GT$6branch17had46bd5128cf0306E', symObjAddr: 0x981C, symBinAddr: 0x29980, symSize: 0x38 }
  - { offset: 0xD19A5, size: 0x8, addend: 0x0, symName: '__ZN79_$LT$core..result..Result$LT$T$C$E$GT$$u20$as$u20$core..ops..try_trait..Try$GT$6branch17hb9773f6ff15b383bE', symObjAddr: 0x98D4, symBinAddr: 0x299B8, symSize: 0xB0 }
  - { offset: 0xD1A22, size: 0x8, addend: 0x0, symName: '__ZN79_$LT$core..result..Result$LT$T$C$E$GT$$u20$as$u20$core..ops..try_trait..Try$GT$6branch17hbcd49cac8215a9a1E', symObjAddr: 0x9A04, symBinAddr: 0x29A68, symSize: 0x94 }
  - { offset: 0xD1A9F, size: 0x8, addend: 0x0, symName: '__ZN79_$LT$core..result..Result$LT$T$C$E$GT$$u20$as$u20$core..ops..try_trait..Try$GT$6branch17hc647e92dc967186eE', symObjAddr: 0x9B24, symBinAddr: 0x29AFC, symSize: 0x8C }
  - { offset: 0xD1B1D, size: 0x8, addend: 0x0, symName: '__ZN79_$LT$core..result..Result$LT$T$C$E$GT$$u20$as$u20$core..ops..try_trait..Try$GT$6branch17he14ec302193f922cE', symObjAddr: 0x9CB0, symBinAddr: 0x29B88, symSize: 0xB8 }
  - { offset: 0xD1B9A, size: 0x8, addend: 0x0, symName: '__ZN79_$LT$core..result..Result$LT$T$C$E$GT$$u20$as$u20$core..ops..try_trait..Try$GT$6branch17he871506757c30a24E', symObjAddr: 0x9DF0, symBinAddr: 0x29C40, symSize: 0x80 }
  - { offset: 0xD1C18, size: 0x8, addend: 0x0, symName: '__ZN79_$LT$core..result..Result$LT$T$C$E$GT$$u20$as$u20$core..ops..try_trait..Try$GT$6branch17heaa3cdfbb91e9f1cE', symObjAddr: 0x9E70, symBinAddr: 0x29CC0, symSize: 0x70 }
  - { offset: 0xD1C96, size: 0x8, addend: 0x0, symName: '__ZN79_$LT$core..result..Result$LT$T$C$E$GT$$u20$as$u20$core..ops..try_trait..Try$GT$6branch17hededd366c8e8dc30E', symObjAddr: 0x9EE0, symBinAddr: 0x29D30, symSize: 0x80 }
  - { offset: 0xD1D14, size: 0x8, addend: 0x0, symName: '__ZN79_$LT$core..result..Result$LT$T$C$E$GT$$u20$as$u20$core..ops..try_trait..Try$GT$6branch17hf89ef8da914c2375E', symObjAddr: 0x9FE8, symBinAddr: 0x29DB0, symSize: 0x80 }
  - { offset: 0xD1D92, size: 0x8, addend: 0x0, symName: '__ZN79_$LT$core..result..Result$LT$T$C$E$GT$$u20$as$u20$core..ops..try_trait..Try$GT$6branch17hfb9f96e3f8ce8821E', symObjAddr: 0xA068, symBinAddr: 0x29E30, symSize: 0x94 }
  - { offset: 0xD467B, size: 0x8, addend: 0x0, symName: '__ZN4core6result19Result$LT$T$C$E$GT$2ok17hb7c991866f8528bfE', symObjAddr: 0x1BEC, symBinAddr: 0x285BC, symSize: 0x58 }
  - { offset: 0xD46DB, size: 0x8, addend: 0x0, symName: '__ZN4core6result19Result$LT$T$C$E$GT$2ok17hff263cb8591c9d75E', symObjAddr: 0x1C44, symBinAddr: 0x28614, symSize: 0x64 }
  - { offset: 0xD472F, size: 0x8, addend: 0x0, symName: '__ZN4core6result19Result$LT$T$C$E$GT$2or17h0f111f55721188eeE', symObjAddr: 0x1CA8, symBinAddr: 0x28678, symSize: 0x70 }
  - { offset: 0xD47A8, size: 0x8, addend: 0x0, symName: '__ZN4core6result19Result$LT$T$C$E$GT$3map17h68da70b17806b359E', symObjAddr: 0x1EAC, symBinAddr: 0x286E8, symSize: 0x8C }
  - { offset: 0xD4848, size: 0x8, addend: 0x0, symName: '__ZN4core6result19Result$LT$T$C$E$GT$3map17h6927da510e20445bE', symObjAddr: 0x1F38, symBinAddr: 0x28774, symSize: 0x8C }
  - { offset: 0xD48FA, size: 0x8, addend: 0x0, symName: '__ZN4core6result19Result$LT$T$C$E$GT$3map17hbf009961c2fd33a4E', symObjAddr: 0x20D0, symBinAddr: 0x28800, symSize: 0x98 }
  - { offset: 0xD498D, size: 0x8, addend: 0x0, symName: '__ZN4core6result19Result$LT$T$C$E$GT$6expect17h4c48b81cd0224c68E', symObjAddr: 0x23EC, symBinAddr: 0x28898, symSize: 0xA8 }
  - { offset: 0xD49F0, size: 0x8, addend: 0x0, symName: '__ZN4core6result19Result$LT$T$C$E$GT$6expect17h594216cf0ae66614E', symObjAddr: 0x253C, symBinAddr: 0x28940, symSize: 0xBC }
  - { offset: 0xD4A53, size: 0x8, addend: 0x0, symName: '__ZN4core6result19Result$LT$T$C$E$GT$6expect17h6276ce4116ba6a10E', symObjAddr: 0x25F8, symBinAddr: 0x289FC, symSize: 0x84 }
  - { offset: 0xD4AB5, size: 0x8, addend: 0x0, symName: '__ZN4core6result19Result$LT$T$C$E$GT$6expect17h8beb0e2afaefb549E', symObjAddr: 0x267C, symBinAddr: 0x28A80, symSize: 0x84 }
  - { offset: 0xD4B17, size: 0x8, addend: 0x0, symName: '__ZN4core6result19Result$LT$T$C$E$GT$6expect17hbc63e605eb53f1bcE', symObjAddr: 0x2700, symBinAddr: 0x28B04, symSize: 0x9C }
  - { offset: 0xD4B7A, size: 0x8, addend: 0x0, symName: '__ZN4core6result19Result$LT$T$C$E$GT$6expect17he2562aa8f314c834E', symObjAddr: 0x28DC, symBinAddr: 0x28BA0, symSize: 0x78 }
  - { offset: 0xD4BFB, size: 0x8, addend: 0x0, symName: '__ZN4core6result19Result$LT$T$C$E$GT$7map_err17h0cd9bff092fa75bfE', symObjAddr: 0x2F2C, symBinAddr: 0x28C18, symSize: 0x30 }
  - { offset: 0xD4C6F, size: 0x8, addend: 0x0, symName: '__ZN4core6result19Result$LT$T$C$E$GT$7map_err17h19f67a29c9c4c691E', symObjAddr: 0x3520, symBinAddr: 0x28C48, symSize: 0xA4 }
  - { offset: 0xD4D09, size: 0x8, addend: 0x0, symName: '__ZN4core6result19Result$LT$T$C$E$GT$7map_err17h6ec58cfa712f4272E', symObjAddr: 0x5280, symBinAddr: 0x28CEC, symSize: 0xA4 }
  - { offset: 0xD4DB4, size: 0x8, addend: 0x0, symName: '__ZN4core6result19Result$LT$T$C$E$GT$7map_err17h7b7eb9bd14d488e3E', symObjAddr: 0x54B8, symBinAddr: 0x28D90, symSize: 0x88 }
  - { offset: 0xD4E4E, size: 0x8, addend: 0x0, symName: '__ZN4core6result19Result$LT$T$C$E$GT$7map_err17h930c9f9dfe3dd849E', symObjAddr: 0x5E90, symBinAddr: 0x28E18, symSize: 0x9C }
  - { offset: 0xD4EE1, size: 0x8, addend: 0x0, symName: '__ZN4core6result19Result$LT$T$C$E$GT$7map_err17h97ac61bd82c80285E', symObjAddr: 0x5FD0, symBinAddr: 0x28EB4, symSize: 0xBC }
  - { offset: 0xD4F81, size: 0x8, addend: 0x0, symName: '__ZN4core6result19Result$LT$T$C$E$GT$7map_err17ha538f47876b4b8b3E', symObjAddr: 0x65F0, symBinAddr: 0x28F70, symSize: 0xB0 }
  - { offset: 0xD5014, size: 0x8, addend: 0x0, symName: '__ZN4core6result19Result$LT$T$C$E$GT$7map_err17hd271851b650c518bE', symObjAddr: 0x7400, symBinAddr: 0x29020, symSize: 0x84 }
  - { offset: 0xD50B4, size: 0x8, addend: 0x0, symName: '__ZN4core6result19Result$LT$T$C$E$GT$7map_err17he7af9d11e09811c2E', symObjAddr: 0x7C78, symBinAddr: 0x290A4, symSize: 0xA4 }
  - { offset: 0xD514E, size: 0x8, addend: 0x0, symName: '__ZN4core6result19Result$LT$T$C$E$GT$7map_err17hfdf7367b1d2dfd69E', symObjAddr: 0x8164, symBinAddr: 0x29148, symSize: 0xB0 }
  - { offset: 0xD51F9, size: 0x8, addend: 0x0, symName: '__ZN4core6result19Result$LT$T$C$E$GT$9unwrap_or17h245924e6fa05636cE', symObjAddr: 0x84BC, symBinAddr: 0x291F8, symSize: 0x70 }
  - { offset: 0xD523D, size: 0x8, addend: 0x0, symName: '__ZN4core6result19Result$LT$T$C$E$GT$9unwrap_or17h6d98a3a938384708E', symObjAddr: 0x852C, symBinAddr: 0x29268, symSize: 0x88 }
  - { offset: 0xD569B, size: 0x8, addend: 0x0, symName: '__ZN4core3ptr7mut_ptr31_$LT$impl$u20$$BP$mut$u20$T$GT$6offset18precondition_check17h3b1aa2d3b2eab427E', symObjAddr: 0x118C, symBinAddr: 0x2A638, symSize: 0xC4 }
  - { offset: 0xD69CA, size: 0x8, addend: 0x0, symName: '__ZN104_$LT$core..ops..index_range..IndexRange$u20$as$u20$core..slice..index..SliceIndex$LT$$u5b$T$u5d$$GT$$GT$17get_unchecked_mut18precondition_check17hd37e1aca2808ff04E', symObjAddr: 0x14, symBinAddr: 0x29EC4, symSize: 0x60 }
  - { offset: 0xD6A29, size: 0x8, addend: 0x0, symName: '__ZN75_$LT$usize$u20$as$u20$core..slice..index..SliceIndex$LT$$u5b$T$u5d$$GT$$GT$13get_unchecked18precondition_check17hcbc0eceefbdbaca5E', symObjAddr: 0x64D0, symBinAddr: 0x2B084, symSize: 0x60 }
  - { offset: 0xD6A82, size: 0x8, addend: 0x0, symName: '__ZN75_$LT$usize$u20$as$u20$core..slice..index..SliceIndex$LT$$u5b$T$u5d$$GT$$GT$17get_unchecked_mut18precondition_check17hfd8ad66b2d88fcc8E', symObjAddr: 0x6530, symBinAddr: 0x2B0E4, symSize: 0x60 }
  - { offset: 0xD6EC0, size: 0x8, addend: 0x0, symName: '__ZN106_$LT$core..iter..adapters..GenericShunt$LT$I$C$R$GT$$u20$as$u20$core..iter..traits..iterator..Iterator$GT$4next17h2755f00bb6b11c25E', symObjAddr: 0x104, symBinAddr: 0x29F74, symSize: 0x98 }
  - { offset: 0xD6F52, size: 0x8, addend: 0x0, symName: '__ZN106_$LT$core..iter..adapters..GenericShunt$LT$I$C$R$GT$$u20$as$u20$core..iter..traits..iterator..Iterator$GT$8try_fold17hcc28ef4ce3c6ae4dE', symObjAddr: 0x214, symBinAddr: 0x2A00C, symSize: 0x8C }
  - { offset: 0xD7003, size: 0x8, addend: 0x0, symName: '__ZN106_$LT$core..iter..adapters..GenericShunt$LT$I$C$R$GT$$u20$as$u20$core..iter..traits..iterator..Iterator$GT$8try_fold28_$u7b$$u7b$closure$u7d$$u7d$17h917bfdf73d6c772eE', symObjAddr: 0x390, symBinAddr: 0x2A098, symSize: 0x1F4 }
  - { offset: 0xD711D, size: 0x8, addend: 0x0, symName: '__ZN106_$LT$core..iter..adapters..GenericShunt$LT$I$C$R$GT$$u20$as$u20$core..iter..traits..iterator..Iterator$GT$9size_hint17h29846bcb82445cfdE', symObjAddr: 0x624, symBinAddr: 0x2A28C, symSize: 0x9C }
  - { offset: 0xD7252, size: 0x8, addend: 0x0, symName: __ZN4core4iter8adapters11try_process17ha182824cc441d0d1E, symObjAddr: 0x18A4, symBinAddr: 0x2AAD8, symSize: 0x188 }
  - { offset: 0xD736F, size: 0x8, addend: 0x0, symName: __ZN4core4iter6traits8iterator8Iterator3map17hfd5bde608a409456E, symObjAddr: 0x16DC, symBinAddr: 0x2A934, symSize: 0x50 }
  - { offset: 0xD73DD, size: 0x8, addend: 0x0, symName: __ZN4core4iter6traits8iterator8Iterator8try_fold17hbea5f21bfd6a9142E, symObjAddr: 0x1750, symBinAddr: 0x2A984, symSize: 0x154 }
  - { offset: 0xD74C4, size: 0x8, addend: 0x0, symName: '__ZN63_$LT$I$u20$as$u20$core..iter..traits..collect..IntoIterator$GT$9into_iter17hb471a0fc2c35061fE', symObjAddr: 0x4F34, symBinAddr: 0x2B054, symSize: 0x30 }
  - { offset: 0xD787E, size: 0x8, addend: 0x0, symName: __ZN4core3str11validations23next_code_point_reverse17hdc399dfcabcae736E, symObjAddr: 0x148C, symBinAddr: 0x2A6FC, symSize: 0x238 }
  - { offset: 0xD8187, size: 0x8, addend: 0x0, symName: __ZN8pyo3_ffi7cpython11floatobject13_PyFloat_CAST17hd550c09f98e6bc9eE, symObjAddr: 0x6D24, symBinAddr: 0x2B174, symSize: 0x8C }
  - { offset: 0xD81FC, size: 0x8, addend: 0x0, symName: __ZN8pyo3_ffi7cpython11floatobject17PyFloat_AS_DOUBLE17he4d28657697a2e0bE, symObjAddr: 0x6DB0, symBinAddr: 0x2B200, symSize: 0x78 }
  - { offset: 0xD83FC, size: 0x8, addend: 0x0, symName: __ZN8pyo3_ffi10listobject12PyList_Check17h4e960d7c80834d44E, symObjAddr: 0x6CC8, symBinAddr: 0x2B144, symSize: 0x30 }
  - { offset: 0xD8458, size: 0x8, addend: 0x0, symName: '__ZN105_$LT$std..collections..hash..map..Iter$LT$K$C$V$GT$$u20$as$u20$core..iter..traits..iterator..Iterator$GT$4next17h6670dedc098ee0ecE', symObjAddr: 0x74, symBinAddr: 0x29F24, symSize: 0x24 }
  - { offset: 0xD8498, size: 0x8, addend: 0x0, symName: '__ZN105_$LT$std..collections..hash..map..Iter$LT$K$C$V$GT$$u20$as$u20$core..iter..traits..iterator..Iterator$GT$9size_hint17h8422d61ce6af6f34E', symObjAddr: 0x98, symBinAddr: 0x29F48, symSize: 0x2C }
  - { offset: 0xD8C92, size: 0x8, addend: 0x0, symName: '__ZN4pyo311conversions3std3num115_$LT$impl$u20$pyo3..conversion..IntoPy$LT$pyo3..instance..Py$LT$pyo3..types..any..PyAny$GT$$GT$$u20$for$u20$u64$GT$7into_py17h13a362a6b3bd96a9E', symObjAddr: 0x1EF8, symBinAddr: 0x2AC60, symSize: 0x24 }
  - { offset: 0xD8CDD, size: 0x8, addend: 0x0, symName: '__ZN4pyo311conversions3std3num117_$LT$impl$u20$pyo3..conversion..IntoPy$LT$pyo3..instance..Py$LT$pyo3..types..any..PyAny$GT$$GT$$u20$for$u20$usize$GT$7into_py17hb21d2476061c28e5E', symObjAddr: 0x1F40, symBinAddr: 0x2AC84, symSize: 0x20 }
  - { offset: 0xD8D23, size: 0x8, addend: 0x0, symName: __ZN4pyo311conversions3std3num20err_if_invalid_value17h6d8ad5e49e66b77bE, symObjAddr: 0x1F60, symBinAddr: 0x2ACA4, symSize: 0xC8 }
  - { offset: 0xD8DA7, size: 0x8, addend: 0x0, symName: '__ZN4pyo311conversions3std3num62_$LT$impl$u20$pyo3..conversion..ToPyObject$u20$for$u20$i64$GT$9to_object17h573deda614adaa30E', symObjAddr: 0x21A4, symBinAddr: 0x2AD6C, symSize: 0x2C }
  - { offset: 0xD8DF2, size: 0x8, addend: 0x0, symName: '__ZN4pyo311conversions3std3num62_$LT$impl$u20$pyo3..conversion..ToPyObject$u20$for$u20$u32$GT$9to_object17h9538ad295e9c6f01E', symObjAddr: 0x2200, symBinAddr: 0x2AD98, symSize: 0x30 }
  - { offset: 0xD8E3D, size: 0x8, addend: 0x0, symName: '__ZN4pyo311conversions3std3num64_$LT$impl$u20$pyo3..conversion..FromPyObject$u20$for$u20$i64$GT$7extract17h78ec8fb1ce50615eE', symObjAddr: 0x2D74, symBinAddr: 0x2ADC8, symSize: 0x28C }
  - { offset: 0xD9C40, size: 0x8, addend: 0x0, symName: '__ZN3std11collections4hash3map18Entry$LT$K$C$V$GT$10or_default17h84a0dd63cbfc4fdbE', symObjAddr: 0x774, symBinAddr: 0x2A328, symSize: 0x190 }
  - { offset: 0xD9E9E, size: 0x8, addend: 0x0, symName: '__ZN3std11collections4hash3map20HashMap$LT$K$C$V$GT$3new17h471da494287b764eE', symObjAddr: 0x904, symBinAddr: 0x2A4B8, symSize: 0x7C }
  - { offset: 0xD9FB8, size: 0x8, addend: 0x0, symName: '__ZN3std11collections4hash3map28HashMap$LT$K$C$V$C$S$C$A$GT$3len17he38bdd4de362130aE', symObjAddr: 0x980, symBinAddr: 0x2A534, symSize: 0x18 }
  - { offset: 0xDA02A, size: 0x8, addend: 0x0, symName: '__ZN3std11collections4hash3map28HashMap$LT$K$C$V$C$S$C$A$GT$4iter17haff60c635a2b8010E', symObjAddr: 0x998, symBinAddr: 0x2A54C, symSize: 0x44 }
  - { offset: 0xDA07E, size: 0x8, addend: 0x0, symName: '__ZN3std11collections4hash3map28HashMap$LT$K$C$V$C$S$C$A$GT$5entry17h419169fb77aa47ceE', symObjAddr: 0x9DC, symBinAddr: 0x2A590, symSize: 0xA8 }
  - { offset: 0xDA2CC, size: 0x8, addend: 0x0, symName: '__ZN100_$LT$core..iter..adapters..take..Take$LT$I$GT$$u20$as$u20$core..iter..traits..iterator..Iterator$GT$4next17h2bb35351da52c26eE', symObjAddr: 0x0, symBinAddr: 0x2B278, symSize: 0x58 }
  - { offset: 0xDA308, size: 0x8, addend: 0x0, symName: '__ZN11parking_lot4once4Once15call_once_force28_$u7b$$u7b$closure$u7d$$u7d$17h36a97a01837a262aE', symObjAddr: 0x730, symBinAddr: 0x2B750, symSize: 0x3C }
  - { offset: 0xDA34A, size: 0x8, addend: 0x0, symName: '__ZN11parking_lot4once4Once15call_once_force28_$u7b$$u7b$closure$u7d$$u7d$17he988e2c089624145E', symObjAddr: 0x76C, symBinAddr: 0x2B78C, symSize: 0x3C }
  - { offset: 0xDB378, size: 0x8, addend: 0x0, symName: __ZN4core3ptr10swap_chunk17h84baed92be5d9c5aE, symObjAddr: 0x1224, symBinAddr: 0x2BA1C, symSize: 0x3C }
  - { offset: 0xDB3B1, size: 0x8, addend: 0x0, symName: __ZN4core3ptr10swap_chunk17hb5e5d208a5c24e17E, symObjAddr: 0x1260, symBinAddr: 0x2BA58, symSize: 0x3C }
  - { offset: 0xDB3EA, size: 0x8, addend: 0x0, symName: __ZN4core3ptr10swap_chunk17hf54dae2caf6a9992E, symObjAddr: 0x129C, symBinAddr: 0x2BA94, symSize: 0x3C }
  - { offset: 0xDB423, size: 0x8, addend: 0x0, symName: __ZN4core3ptr10swap_chunk17hfc38ace672505be9E, symObjAddr: 0x12D8, symBinAddr: 0x2BAD0, symSize: 0x3C }
  - { offset: 0xDB461, size: 0x8, addend: 0x0, symName: __ZN4core3ptr11write_bytes18precondition_check17h94fd76febc242c9bE, symObjAddr: 0x1314, symBinAddr: 0x2BB0C, symSize: 0x9C }
  - { offset: 0xDB658, size: 0x8, addend: 0x0, symName: __ZN4core3ptr14read_unaligned17h4bf1f375f39df9f3E, symObjAddr: 0x13B0, symBinAddr: 0x2BBA8, symSize: 0x9C }
  - { offset: 0xDB7A3, size: 0x8, addend: 0x0, symName: __ZN4core3ptr15write_unaligned17hd782dc4ba96fc939E, symObjAddr: 0x144C, symBinAddr: 0x2BC44, symSize: 0x78 }
  - { offset: 0xDB82E, size: 0x8, addend: 0x0, symName: __ZN4core3ptr19copy_nonoverlapping18precondition_check17h2c7b57f4c0cf29d9E, symObjAddr: 0x14C4, symBinAddr: 0x2BCBC, symSize: 0x168 }
  - { offset: 0xDBABC, size: 0x8, addend: 0x0, symName: __ZN4core3ptr25swap_nonoverlapping_bytes17ha976ff9af349a1aaE, symObjAddr: 0x1870, symBinAddr: 0x2BE24, symSize: 0xD8 }
  - { offset: 0xDBC65, size: 0x8, addend: 0x0, symName: __ZN4core3ptr25swap_nonoverlapping_bytes25swap_nonoverlapping_short17h7499f57621296ab8E, symObjAddr: 0x1948, symBinAddr: 0x2BEFC, symSize: 0x11C }
  - { offset: 0xDBDF1, size: 0x8, addend: 0x0, symName: __ZN4core3ptr25swap_nonoverlapping_bytes26swap_nonoverlapping_chunks17hf2e11a379fba6f90E, symObjAddr: 0x1A64, symBinAddr: 0x2C018, symSize: 0xC0 }
  - { offset: 0xDBF74, size: 0x8, addend: 0x0, symName: __ZN4core3ptr4copy18precondition_check17hd2b6993c7fce3d65E, symObjAddr: 0x1B24, symBinAddr: 0x2C0D8, symSize: 0x130 }
  - { offset: 0xDC0C0, size: 0x8, addend: 0x0, symName: __ZN4core3ptr7replace18precondition_check17h5db7ebed81b98d0aE, symObjAddr: 0x1C70, symBinAddr: 0x2C208, symSize: 0x9C }
  - { offset: 0xDC3BB, size: 0x8, addend: 0x0, symName: '__ZN100_$LT$core..iter..adapters..take..Take$LT$I$GT$$u20$as$u20$core..iter..traits..iterator..Iterator$GT$4next17h2bb35351da52c26eE', symObjAddr: 0x0, symBinAddr: 0x2B278, symSize: 0x58 }
  - { offset: 0xDC3F0, size: 0x8, addend: 0x0, symName: '__ZN100_$LT$core..iter..adapters..take..Take$LT$I$GT$$u20$as$u20$core..iter..traits..iterator..Iterator$GT$4next17hcfdc001f68bd5de7E', symObjAddr: 0x58, symBinAddr: 0x2B2D0, symSize: 0x58 }
  - { offset: 0xDC425, size: 0x8, addend: 0x0, symName: '__ZN100_$LT$core..iter..adapters..take..Take$LT$I$GT$$u20$as$u20$core..iter..traits..iterator..Iterator$GT$9size_hint17h3fd2d4af2ef0e29bE', symObjAddr: 0xB0, symBinAddr: 0x2B328, symSize: 0x100 }
  - { offset: 0xDC535, size: 0x8, addend: 0x0, symName: '__ZN115_$LT$core..iter..adapters..filter_map..FilterMap$LT$I$C$F$GT$$u20$as$u20$core..iter..traits..iterator..Iterator$GT$4next17h5216dc58c999dc8eE', symObjAddr: 0x34C, symBinAddr: 0x2B428, symSize: 0x2C }
  - { offset: 0xDC57C, size: 0x8, addend: 0x0, symName: '__ZN115_$LT$core..iter..adapters..filter_map..FilterMap$LT$I$C$F$GT$$u20$as$u20$core..iter..traits..iterator..Iterator$GT$4next17hf1edcd8f9ce6ec66E', symObjAddr: 0x378, symBinAddr: 0x2B454, symSize: 0x2C }
  - { offset: 0xDC5C3, size: 0x8, addend: 0x0, symName: '__ZN115_$LT$core..iter..adapters..filter_map..FilterMap$LT$I$C$F$GT$$u20$as$u20$core..iter..traits..iterator..Iterator$GT$9size_hint17h1945873f4698e8f4E', symObjAddr: 0x3A4, symBinAddr: 0x2B480, symSize: 0x4C }
  - { offset: 0xDC627, size: 0x8, addend: 0x0, symName: '__ZN115_$LT$core..iter..adapters..filter_map..FilterMap$LT$I$C$F$GT$$u20$as$u20$core..iter..traits..iterator..Iterator$GT$9size_hint17h76e02ef486fd20e2E', symObjAddr: 0x3F0, symBinAddr: 0x2B4CC, symSize: 0x4C }
  - { offset: 0xDC868, size: 0x8, addend: 0x0, symName: __ZN4core4iter6traits8iterator8Iterator3zip17hde525d147aef17d6E, symObjAddr: 0x2240, symBinAddr: 0x2C3A0, symSize: 0xB0 }
  - { offset: 0xDC8DE, size: 0x8, addend: 0x0, symName: __ZN4core4iter6traits8iterator8Iterator7collect17h89958d2f91e75052E, symObjAddr: 0x22F0, symBinAddr: 0x2C450, symSize: 0x14 }
  - { offset: 0xDC91F, size: 0x8, addend: 0x0, symName: __ZN4core4iter6traits8iterator8Iterator7collect17he282198ff77c4bfdE, symObjAddr: 0x2304, symBinAddr: 0x2C464, symSize: 0x14 }
  - { offset: 0xDC96C, size: 0x8, addend: 0x0, symName: '__ZN63_$LT$I$u20$as$u20$core..iter..traits..collect..IntoIterator$GT$9into_iter17hc7db836938d18dceE', symObjAddr: 0x565C, symBinAddr: 0x2C924, symSize: 0x30 }
  - { offset: 0xDC9A4, size: 0x8, addend: 0x0, symName: '__ZN63_$LT$I$u20$as$u20$core..iter..traits..collect..IntoIterator$GT$9into_iter17hd2700a51e33d766cE', symObjAddr: 0x568C, symBinAddr: 0x2C954, symSize: 0x18 }
  - { offset: 0xDC9DB, size: 0x8, addend: 0x0, symName: '__ZN63_$LT$I$u20$as$u20$core..iter..traits..collect..IntoIterator$GT$9into_iter17hf29c42cea4de9aadE', symObjAddr: 0x56A4, symBinAddr: 0x2C96C, symSize: 0x30 }
  - { offset: 0xDCF79, size: 0x8, addend: 0x0, symName: '__ZN185_$LT$core..ops..control_flow..ControlFlow$LT$B$C$C$GT$$u20$as$u20$core..ops..try_trait..FromResidual$LT$core..ops..control_flow..ControlFlow$LT$B$C$core..convert..Infallible$GT$$GT$$GT$13from_residual17h28e4aa054c87a2b1E', symObjAddr: 0x914, symBinAddr: 0x2B860, symSize: 0x18 }
  - { offset: 0xDCFB7, size: 0x8, addend: 0x0, symName: '__ZN185_$LT$core..ops..control_flow..ControlFlow$LT$B$C$C$GT$$u20$as$u20$core..ops..try_trait..FromResidual$LT$core..ops..control_flow..ControlFlow$LT$B$C$core..convert..Infallible$GT$$GT$$GT$13from_residual17h3c3c0c8740258e3dE', symObjAddr: 0x92C, symBinAddr: 0x2B878, symSize: 0x58 }
  - { offset: 0xDCFF6, size: 0x8, addend: 0x0, symName: '__ZN185_$LT$core..ops..control_flow..ControlFlow$LT$B$C$C$GT$$u20$as$u20$core..ops..try_trait..FromResidual$LT$core..ops..control_flow..ControlFlow$LT$B$C$core..convert..Infallible$GT$$GT$$GT$13from_residual17h9f01fc0fffc10d27E', symObjAddr: 0x998, symBinAddr: 0x2B8D0, symSize: 0x48 }
  - { offset: 0xDD040, size: 0x8, addend: 0x0, symName: __ZN4core3ops12control_flow11ControlFlow5Break17he1c6c664ab03f4fdE, symObjAddr: 0x11E8, symBinAddr: 0x2B9E0, symSize: 0x3C }
  - { offset: 0xDD082, size: 0x8, addend: 0x0, symName: '__ZN95_$LT$core..ops..control_flow..ControlFlow$LT$B$C$C$GT$$u20$as$u20$core..ops..try_trait..Try$GT$11from_output17h8ea417d32ffccad6E', symObjAddr: 0x7DE8, symBinAddr: 0x2CA48, symSize: 0x10 }
  - { offset: 0xDD0C0, size: 0x8, addend: 0x0, symName: '__ZN95_$LT$core..ops..control_flow..ControlFlow$LT$B$C$C$GT$$u20$as$u20$core..ops..try_trait..Try$GT$11from_output17ha57160535c053b82E', symObjAddr: 0x7DF8, symBinAddr: 0x2CA58, symSize: 0x18 }
  - { offset: 0xDD0FE, size: 0x8, addend: 0x0, symName: '__ZN95_$LT$core..ops..control_flow..ControlFlow$LT$B$C$C$GT$$u20$as$u20$core..ops..try_trait..Try$GT$11from_output17hac059b5429781cd2E', symObjAddr: 0x7E10, symBinAddr: 0x2CA70, symSize: 0x10 }
  - { offset: 0xDD13C, size: 0x8, addend: 0x0, symName: '__ZN95_$LT$core..ops..control_flow..ControlFlow$LT$B$C$C$GT$$u20$as$u20$core..ops..try_trait..Try$GT$6branch17hb4e1cdf5b1612376E', symObjAddr: 0x7E34, symBinAddr: 0x2CA80, symSize: 0x88 }
  - { offset: 0xDD1B5, size: 0x8, addend: 0x0, symName: '__ZN95_$LT$core..ops..control_flow..ControlFlow$LT$B$C$C$GT$$u20$as$u20$core..ops..try_trait..Try$GT$6branch17hcbb5ad45147bf4a5E', symObjAddr: 0x7EBC, symBinAddr: 0x2CB08, symSize: 0x54 }
  - { offset: 0xDD22D, size: 0x8, addend: 0x0, symName: '__ZN95_$LT$core..ops..control_flow..ControlFlow$LT$B$C$C$GT$$u20$as$u20$core..ops..try_trait..Try$GT$6branch17hd32ee1bef0a19f1bE', symObjAddr: 0x7F10, symBinAddr: 0x2CB5C, symSize: 0x90 }
  - { offset: 0xDD742, size: 0x8, addend: 0x0, symName: '__ZN118_$LT$$u5b$core..mem..maybe_uninit..MaybeUninit$LT$T$GT$$u5d$$u20$as$u20$core..array..iter..iter_inner..PartialDrop$GT$12partial_drop17he2657cad3122fb44E', symObjAddr: 0x4F8, symBinAddr: 0x2B518, symSize: 0xA0 }
  - { offset: 0xDD842, size: 0x8, addend: 0x0, symName: '__ZN129_$LT$$u5b$core..mem..maybe_uninit..MaybeUninit$LT$T$GT$$u3b$$u20$N$u5d$$u20$as$u20$core..array..iter..iter_inner..PartialDrop$GT$12partial_drop17hc15637a8096eb39bE', symObjAddr: 0x87C, symBinAddr: 0x2B7C8, symSize: 0x4C }
  - { offset: 0xDD89E, size: 0x8, addend: 0x0, symName: '__ZN129_$LT$$u5b$core..mem..maybe_uninit..MaybeUninit$LT$T$GT$$u3b$$u20$N$u5d$$u20$as$u20$core..array..iter..iter_inner..PartialDrop$GT$12partial_drop17hea5e4c77dc698fa5E', symObjAddr: 0x8C8, symBinAddr: 0x2B814, symSize: 0x4C }
  - { offset: 0xDDC1E, size: 0x8, addend: 0x0, symName: '__ZN4core3str21_$LT$impl$u20$str$GT$16trim_end_matches17hc51efd7ee9419c9aE', symObjAddr: 0x1E0C, symBinAddr: 0x2C2A4, symSize: 0xE0 }
  - { offset: 0xDDDA1, size: 0x8, addend: 0x0, symName: '__ZN4core3str21_$LT$impl$u20$str$GT$3len17head057469001d6ccE', symObjAddr: 0x1FD0, symBinAddr: 0x2C384, symSize: 0x1C }
  - { offset: 0xDE1D3, size: 0x8, addend: 0x0, symName: __ZN4pyo38instance12PyNativeType18unchecked_downcast17h9efabca94fd61fcaE, symObjAddr: 0x51CC, symBinAddr: 0x2C724, symSize: 0x70 }
  - { offset: 0xDE3D3, size: 0x8, addend: 0x0, symName: __ZN4pyo35types4list6PyList6append5inner17hf50a75c88012c705E, symObjAddr: 0x4A7C, symBinAddr: 0x2C5D0, symSize: 0xBC }
  - { offset: 0xDE414, size: 0x8, addend: 0x0, symName: '__ZN69_$LT$pyo3..types..list..PyList$u20$as$u20$core..ops..deref..Deref$GT$5deref17h3b574c7f86edbb03E', symObjAddr: 0x5CC0, symBinAddr: 0x2C99C, symSize: 0x14 }
  - { offset: 0xDE446, size: 0x8, addend: 0x0, symName: '__ZN74_$LT$pyo3..types..list..PyList$u20$as$u20$pyo3..conversion..ToPyObject$GT$9to_object17h1e3abd2abf8b95eeE', symObjAddr: 0x5F1C, symBinAddr: 0x2C9C4, symSize: 0x2C }
  - { offset: 0xDE491, size: 0x8, addend: 0x0, symName: '__ZN75_$LT$pyo3..types..list..PyList$u20$as$u20$pyo3..type_object..PyTypeInfo$GT$10is_type_of17h739417cd8ba012d4E', symObjAddr: 0x6254, symBinAddr: 0x2C9F0, symSize: 0x30 }
  - { offset: 0xDE57D, size: 0x8, addend: 0x0, symName: '__ZN71_$LT$pyo3..types..bytes..PyBytes$u20$as$u20$core..ops..deref..Deref$GT$5deref17h2a4b9f4610c8c6faE', symObjAddr: 0x5CD4, symBinAddr: 0x2C9B0, symSize: 0x14 }
  - { offset: 0xDE5B6, size: 0x8, addend: 0x0, symName: '__ZN49_$LT$T$u20$as$u20$pyo3..conversion..PyTryFrom$GT$18try_from_unchecked17h701b6bab07328199E', symObjAddr: 0xA10, symBinAddr: 0x2B918, symSize: 0x30 }
  - { offset: 0xDE5F6, size: 0x8, addend: 0x0, symName: '__ZN49_$LT$T$u20$as$u20$pyo3..conversion..PyTryFrom$GT$8try_from17h3fc843e4ae4a06f8E', symObjAddr: 0xCF0, symBinAddr: 0x2B948, symSize: 0x98 }
  - { offset: 0xDE65A, size: 0x8, addend: 0x0, symName: __ZN4pyo310conversion13FromPyPointer14from_owned_ptr17h1370fedaf1cbd161E, symObjAddr: 0x2864, symBinAddr: 0x2C478, symSize: 0x24 }
  - { offset: 0xDE6AC, size: 0x8, addend: 0x0, symName: __ZN4pyo310conversion13FromPyPointer14from_owned_ptr17ha43c50461e4ad1b3E, symObjAddr: 0x2888, symBinAddr: 0x2C49C, symSize: 0x24 }
  - { offset: 0xDE6FE, size: 0x8, addend: 0x0, symName: __ZN4pyo310conversion13FromPyPointer23from_owned_ptr_or_panic17h54c88315729cc329E, symObjAddr: 0x28E0, symBinAddr: 0x2C4C0, symSize: 0x34 }
  - { offset: 0xDE750, size: 0x8, addend: 0x0, symName: __ZN4pyo310conversion13FromPyPointer23from_owned_ptr_or_panic17hc33560d633fa9e2eE, symObjAddr: 0x2914, symBinAddr: 0x2C4F4, symSize: 0x34 }
  - { offset: 0xDE7A8, size: 0x8, addend: 0x0, symName: '__ZN53_$LT$T$u20$as$u20$pyo3..conversion..FromPyPointer$GT$21from_owned_ptr_or_opt17hc16faea0a6bcab51E', symObjAddr: 0x53D0, symBinAddr: 0x2C794, symSize: 0xB4 }
  - { offset: 0xDE818, size: 0x8, addend: 0x0, symName: '__ZN53_$LT$T$u20$as$u20$pyo3..conversion..FromPyPointer$GT$21from_owned_ptr_or_opt17hca57d1908678b152E', symObjAddr: 0x5484, symBinAddr: 0x2C848, symSize: 0xB4 }
  - { offset: 0xDE88E, size: 0x8, addend: 0x0, symName: '__ZN54_$LT$$RF$T$u20$as$u20$pyo3..conversion..ToPyObject$GT$9to_object17hcd3420096eba66b3E', symObjAddr: 0x5538, symBinAddr: 0x2C8FC, symSize: 0x28 }
  - { offset: 0xDF1DD, size: 0x8, addend: 0x0, symName: __ZN8pyo3_ffi10modsupport15PyModule_Create17hd53a95f872168a06E, symObjAddr: 0x7C40, symBinAddr: 0x2CA20, symSize: 0x28 }
  - { offset: 0xDF7DB, size: 0x8, addend: 0x0, symName: __ZN11parking_lot4once4Once15call_once_force17ha911987fa4aa190bE, symObjAddr: 0x598, symBinAddr: 0x2B5B8, symSize: 0xCC }
  - { offset: 0xDF831, size: 0x8, addend: 0x0, symName: __ZN11parking_lot4once4Once15call_once_force17hc4cf44da8f372f56E, symObjAddr: 0x664, symBinAddr: 0x2B684, symSize: 0xCC }
  - { offset: 0xDFB2A, size: 0x8, addend: 0x0, symName: __ZN4pyo35types4list6PyList5empty17hbd6101f965a825ceE, symObjAddr: 0x49D4, symBinAddr: 0x2C528, symSize: 0x24 }
  - { offset: 0xDFB57, size: 0x8, addend: 0x0, symName: __ZN4pyo35types4list6PyList6append17hadb64e7284e69eb8E, symObjAddr: 0x49F8, symBinAddr: 0x2C54C, symSize: 0x84 }
  - { offset: 0xDFBAA, size: 0x8, addend: 0x0, symName: __ZN4pyo35types5bytes7PyBytes8as_bytes17h3d50c01396fbaf80E, symObjAddr: 0x4ED8, symBinAddr: 0x2C68C, symSize: 0x98 }
  - { offset: 0xDFFB6, size: 0x8, addend: 0x0, symName: '__ZN101_$LT$pyo3..types..floatob..PyFloat$u20$as$u20$core..convert..AsRef$LT$pyo3..types..any..PyAny$GT$$GT$6as_ref17h3545c93b552c6abcE', symObjAddr: 0x0, symBinAddr: 0x2CBEC, symSize: 0x14 }
  - { offset: 0xE0012, size: 0x8, addend: 0x0, symName: '__ZN45_$LT$T$u20$as$u20$alloc..string..ToString$GT$9to_string17h4a30c44d0cacc12aE', symObjAddr: 0x2F0, symBinAddr: 0x2CD14, symSize: 0x24 }
  - { offset: 0xE004F, size: 0x8, addend: 0x0, symName: '__ZN49_$LT$T$u20$as$u20$alloc..string..SpecToString$GT$14spec_to_string17hf251172d4421fc76E', symObjAddr: 0x42C, symBinAddr: 0x2CD38, symSize: 0xF4 }
  - { offset: 0xE0388, size: 0x8, addend: 0x0, symName: '__ZN59_$LT$alloc..alloc..Global$u20$as$u20$core..clone..Clone$GT$5clone17h02590d85caa5ee45E', symObjAddr: 0x7628, symBinAddr: 0x315B8, symSize: 0x10 }
  - { offset: 0xE03E1, size: 0x8, addend: 0x0, symName: '__ZN63_$LT$alloc..alloc..Global$u20$as$u20$core..alloc..Allocator$GT$10deallocate17h686b1fca8021d60cE', symObjAddr: 0x787C, symBinAddr: 0x3180C, symSize: 0x58 }
  - { offset: 0xE04AF, size: 0x8, addend: 0x0, symName: '__ZN63_$LT$alloc..alloc..Global$u20$as$u20$core..alloc..Allocator$GT$8allocate17hc9a2012bd23c91b0E', symObjAddr: 0x78D4, symBinAddr: 0x31864, symSize: 0x40 }
  - { offset: 0xE051B, size: 0x8, addend: 0x0, symName: __ZN5alloc5alloc15exchange_malloc17h614a1916f1d184bfE, symObjAddr: 0x7638, symBinAddr: 0x315C8, symSize: 0xB0 }
  - { offset: 0xE2CF2, size: 0x8, addend: 0x0, symName: __ZN4core4char7methods15encode_utf8_raw8do_panic7runtime17hb6680818b091aca2E, symObjAddr: 0x9D8, symBinAddr: 0x2D0BC, symSize: 0xC4 }
  - { offset: 0xE2DEF, size: 0x8, addend: 0x0, symName: __ZN4core4char7methods15encode_utf8_raw17h7c8a5720e5ce4a8eE, symObjAddr: 0x8D8, symBinAddr: 0x2CFBC, symSize: 0x100 }
  - { offset: 0xE2F29, size: 0x8, addend: 0x0, symName: __ZN4core4char7methods25encode_utf8_raw_unchecked17h7755ac0a73739243E, symObjAddr: 0xC58, symBinAddr: 0x2D180, symSize: 0x188 }
  - { offset: 0xE314C, size: 0x8, addend: 0x0, symName: '__ZN53_$LT$T$u20$as$u20$core..slice..cmp..SliceContains$GT$14slice_contains28_$u7b$$u7b$closure$u7d$$u7d$17ha8d750f7abc3d72cE', symObjAddr: 0x71A4, symBinAddr: 0x31254, symSize: 0x38 }
  - { offset: 0xE319C, size: 0x8, addend: 0x0, symName: '__ZN73_$LT$$u5b$A$u5d$$u20$as$u20$core..slice..cmp..SlicePartialEq$LT$B$GT$$GT$5equal17hf24ff40c3e4c9a65E', symObjAddr: 0x85C0, symBinAddr: 0x3192C, symSize: 0x88 }
  - { offset: 0xE403B, size: 0x8, addend: 0x0, symName: __ZN4core4hash11BuildHasher8hash_one17h20d389ee61a92f20E, symObjAddr: 0xDE0, symBinAddr: 0x2D308, symSize: 0x84 }
  - { offset: 0xE40AB, size: 0x8, addend: 0x0, symName: '__ZN4core4hash5impls50_$LT$impl$u20$core..hash..Hash$u20$for$u20$str$GT$4hash17h9d6badf5c25bdb3dE', symObjAddr: 0xE64, symBinAddr: 0x2D38C, symSize: 0x48 }
  - { offset: 0xE40F3, size: 0x8, addend: 0x0, symName: '__ZN4core4hash5impls52_$LT$impl$u20$core..hash..Hash$u20$for$u20$$RF$T$GT$4hash17h93f2dababc3770f6E', symObjAddr: 0xEAC, symBinAddr: 0x2D3D4, symSize: 0x3C }
  - { offset: 0xE413E, size: 0x8, addend: 0x0, symName: '__ZN4core4hash5impls52_$LT$impl$u20$core..hash..Hash$u20$for$u20$$RF$T$GT$4hash17hc4564dd8d556fcc5E', symObjAddr: 0xEE8, symBinAddr: 0x2D410, symSize: 0x30 }
  - { offset: 0xE42DA, size: 0x8, addend: 0x0, symName: __ZN4core4hint21unreachable_unchecked18precondition_check17hf492ecfba918daabE, symObjAddr: 0xF70, symBinAddr: 0x2D440, symSize: 0x3C }
  - { offset: 0xE434E, size: 0x8, addend: 0x0, symName: __ZN4core9core_arch10arm_shared4neon9generated13vget_lane_u6417h82bd0d755aff0d89E, symObjAddr: 0xFAC, symBinAddr: 0x2D47C, symSize: 0x18 }
  - { offset: 0xE437D, size: 0x8, addend: 0x0, symName: __ZN4core9core_arch10arm_shared4neon9generated18vreinterpret_s8_u817h8f53cd95019a0b40E, symObjAddr: 0xFC4, symBinAddr: 0x2D494, symSize: 0xC }
  - { offset: 0xE43AB, size: 0x8, addend: 0x0, symName: __ZN4core9core_arch10arm_shared4neon9generated19vreinterpret_u64_u817h2e600ae7d7f5be2bE, symObjAddr: 0xFD0, symBinAddr: 0x2D4A0, symSize: 0xC }
  - { offset: 0xE43D9, size: 0x8, addend: 0x0, symName: __ZN4core9core_arch10arm_shared4neon9generated7vceq_u817h5638e761d908c278E, symObjAddr: 0xFDC, symBinAddr: 0x2D4AC, symSize: 0x14 }
  - { offset: 0xE4416, size: 0x8, addend: 0x0, symName: __ZN4core9core_arch10arm_shared4neon9generated7vorr_u817hecedc3854cba375cE, symObjAddr: 0xFF0, symBinAddr: 0x2D4C0, symSize: 0x14 }
  - { offset: 0xE4453, size: 0x8, addend: 0x0, symName: __ZN4core9core_arch10arm_shared4neon9generated9vdup_n_u817hdd94b0b5c2eae2d5E, symObjAddr: 0x1004, symBinAddr: 0x2D4D4, symSize: 0x2C }
  - { offset: 0xE45CC, size: 0x8, addend: 0x0, symName: '__ZN50_$LT$T$u20$as$u20$core..convert..Into$LT$U$GT$$GT$4into17h2c4faf989aab3c3dE', symObjAddr: 0x7138, symBinAddr: 0x311E8, symSize: 0x24 }
  - { offset: 0xE460C, size: 0x8, addend: 0x0, symName: '__ZN50_$LT$T$u20$as$u20$core..convert..Into$LT$U$GT$$GT$4into17he44f574d4bc8af72E', symObjAddr: 0x715C, symBinAddr: 0x3120C, symSize: 0x24 }
  - { offset: 0xE464C, size: 0x8, addend: 0x0, symName: '__ZN50_$LT$T$u20$as$u20$core..convert..Into$LT$U$GT$$GT$4into17hf0922f9e87da810cE', symObjAddr: 0x7180, symBinAddr: 0x31230, symSize: 0x24 }
  - { offset: 0xE495E, size: 0x8, addend: 0x0, symName: __ZN4pyo33err9err_state10raise_lazy17haee483783af887c0E, symObjAddr: 0x26F4, symBinAddr: 0x2DC74, symSize: 0x140 }
  - { offset: 0xE4A26, size: 0x8, addend: 0x0, symName: '__ZN4pyo33err9err_state20PyErrStateNormalized10ptraceback28_$u7b$$u7b$closure$u7d$$u7d$17hd8bf91de7f4961cfE', symObjAddr: 0x2860, symBinAddr: 0x2DDE0, symSize: 0x30 }
  - { offset: 0xE4A80, size: 0x8, addend: 0x0, symName: __ZN4pyo33err9err_state30lazy_into_normalized_ffi_tuple17h8003539aa9700a62E, symObjAddr: 0x29C0, symBinAddr: 0x2DF40, symSize: 0x84 }
  - { offset: 0xE4B21, size: 0x8, addend: 0x0, symName: '__ZN58_$LT$T$u20$as$u20$pyo3..err..err_state..PyErrArguments$GT$9arguments17h275436e6835cb121E', symObjAddr: 0x75D8, symBinAddr: 0x31568, symSize: 0x28 }
  - { offset: 0xE4B6F, size: 0x8, addend: 0x0, symName: '__ZN58_$LT$T$u20$as$u20$pyo3..err..err_state..PyErrArguments$GT$9arguments17hd2aa275deaa97151E', symObjAddr: 0x7600, symBinAddr: 0x31590, symSize: 0x28 }
  - { offset: 0xE4BC3, size: 0x8, addend: 0x0, symName: '__ZN81_$LT$pyo3..err..err_state..PyErrStateNormalized$u20$as$u20$core..clone..Clone$GT$5clone17h827b685079c41774E', symObjAddr: 0x8A78, symBinAddr: 0x31B14, symSize: 0xC0 }
  - { offset: 0xE4CEF, size: 0x8, addend: 0x0, symName: __ZN4pyo38instance12PyNativeType18unchecked_downcast17h0dfb9fd36efd2a7cE, symObjAddr: 0x6F38, symBinAddr: 0x310C8, symSize: 0x70 }
  - { offset: 0xE4D24, size: 0x8, addend: 0x0, symName: __ZN4pyo38instance12PyNativeType18unchecked_downcast17ha6a53a2326af49c5E, symObjAddr: 0x7088, symBinAddr: 0x31138, symSize: 0x70 }
  - { offset: 0xE4D59, size: 0x8, addend: 0x0, symName: __ZN4pyo38instance12PyNativeType2py17h6a3f1e75297185e1E, symObjAddr: 0x70F8, symBinAddr: 0x311A8, symSize: 0x20 }
  - { offset: 0xE4D8A, size: 0x8, addend: 0x0, symName: __ZN4pyo38instance12PyNativeType2py17h798e4e5aa2938d80E, symObjAddr: 0x7118, symBinAddr: 0x311C8, symSize: 0x20 }
  - { offset: 0xE4E47, size: 0x8, addend: 0x0, symName: '__ZN101_$LT$pyo3..types..floatob..PyFloat$u20$as$u20$core..convert..AsRef$LT$pyo3..types..any..PyAny$GT$$GT$6as_ref17h3545c93b552c6abcE', symObjAddr: 0x0, symBinAddr: 0x2CBEC, symSize: 0x14 }
  - { offset: 0xE4E79, size: 0x8, addend: 0x0, symName: '__ZN4pyo35types7floatob62_$LT$impl$u20$pyo3..conversion..ToPyObject$u20$for$u20$f64$GT$9to_object17he642450c26031575E', symObjAddr: 0x3EDC, symBinAddr: 0x2E5C4, symSize: 0x34 }
  - { offset: 0xE4EC4, size: 0x8, addend: 0x0, symName: '__ZN4pyo35types7floatob64_$LT$impl$u20$pyo3..conversion..FromPyObject$u20$for$u20$f64$GT$7extract17h3e25fdd4e6e55edfE', symObjAddr: 0x3FB0, symBinAddr: 0x2E5F8, symSize: 0x130 }
  - { offset: 0xE4F82, size: 0x8, addend: 0x0, symName: '__ZN73_$LT$pyo3..types..floatob..PyFloat$u20$as$u20$core..ops..deref..Deref$GT$5deref17ha6e73fb072854a15E', symObjAddr: 0x8648, symBinAddr: 0x319B4, symSize: 0x14 }
  - { offset: 0xE4FB4, size: 0x8, addend: 0x0, symName: '__ZN79_$LT$pyo3..types..floatob..PyFloat$u20$as$u20$pyo3..type_object..PyTypeInfo$GT$15type_object_raw17h24da0f6dfc4faf0cE', symObjAddr: 0x8A0C, symBinAddr: 0x31AA8, symSize: 0x24 }
  - { offset: 0xE4FF0, size: 0x8, addend: 0x0, symName: '__ZN79_$LT$pyo3..types..floatob..PyFloat$u20$as$u20$pyo3..type_object..PyTypeInfo$GT$15type_object_raw28_$u7b$$u7b$closure$u7d$$u7d$17h3ebbee86e25ece48E', symObjAddr: 0x8A30, symBinAddr: 0x31ACC, symSize: 0x18 }
  - { offset: 0xE5045, size: 0x8, addend: 0x0, symName: '__ZN101_$LT$pyo3..types..string..PyString$u20$as$u20$core..convert..AsRef$LT$pyo3..types..any..PyAny$GT$$GT$6as_ref17h8ace1535cd15ada0E', symObjAddr: 0x14, symBinAddr: 0x2CC00, symSize: 0x14 }
  - { offset: 0xE5077, size: 0x8, addend: 0x0, symName: '__ZN141_$LT$$RF$pyo3..types..string..PyString$u20$as$u20$pyo3..conversion..IntoPy$LT$pyo3..instance..Py$LT$pyo3..types..string..PyString$GT$$GT$$GT$7into_py17h7c77e76c6cf41c24E', symObjAddr: 0x1F0, symBinAddr: 0x2CC14, symSize: 0x2C }
  - { offset: 0xE5241, size: 0x8, addend: 0x0, symName: '__ZN73_$LT$pyo3..types..string..PyString$u20$as$u20$core..ops..deref..Deref$GT$5deref17hd7b325d5fe828360E', symObjAddr: 0x88D4, symBinAddr: 0x319C8, symSize: 0x14 }
  - { offset: 0xE5273, size: 0x8, addend: 0x0, symName: '__ZN79_$LT$pyo3..types..string..PyString$u20$as$u20$pyo3..type_object..PyTypeInfo$GT$10is_type_of17hc062db423dc5bb79E', symObjAddr: 0x8A48, symBinAddr: 0x31AE4, symSize: 0x30 }
  - { offset: 0xE5369, size: 0x8, addend: 0x0, symName: '__ZN49_$LT$T$u20$as$u20$pyo3..conversion..PyTryFrom$GT$14try_from_exact17hdaba765c40bb3f8dE', symObjAddr: 0x520, symBinAddr: 0x2CE2C, symSize: 0x98 }
  - { offset: 0xE53C7, size: 0x8, addend: 0x0, symName: '__ZN49_$LT$T$u20$as$u20$pyo3..conversion..PyTryFrom$GT$18try_from_unchecked17h5e6fc579583722d1E', symObjAddr: 0x5E8, symBinAddr: 0x2CEC4, symSize: 0x30 }
  - { offset: 0xE5407, size: 0x8, addend: 0x0, symName: '__ZN49_$LT$T$u20$as$u20$pyo3..conversion..PyTryFrom$GT$18try_from_unchecked17hf44a36086ecb2803E', symObjAddr: 0x648, symBinAddr: 0x2CEF4, symSize: 0x30 }
  - { offset: 0xE5447, size: 0x8, addend: 0x0, symName: '__ZN49_$LT$T$u20$as$u20$pyo3..conversion..PyTryFrom$GT$8try_from17h70a42f7b5c498fc5E', symObjAddr: 0x7A8, symBinAddr: 0x2CF24, symSize: 0x98 }
  - { offset: 0xE54AB, size: 0x8, addend: 0x0, symName: __ZN4pyo310conversion13FromPyPointer14from_owned_ptr17h20db771930a3dd87E, symObjAddr: 0x1030, symBinAddr: 0x2D500, symSize: 0x24 }
  - { offset: 0xE54FD, size: 0x8, addend: 0x0, symName: __ZN4pyo310conversion13FromPyPointer14from_owned_ptr17hc0a49afcad932acbE, symObjAddr: 0x1054, symBinAddr: 0x2D524, symSize: 0x24 }
  - { offset: 0xE554F, size: 0x8, addend: 0x0, symName: __ZN4pyo310conversion13FromPyPointer21from_owned_ptr_or_err17h6c660cecf4613a0aE, symObjAddr: 0x10AC, symBinAddr: 0x2D548, symSize: 0x34 }
  - { offset: 0xE55A6, size: 0x8, addend: 0x0, symName: '__ZN4pyo310conversion13FromPyPointer21from_owned_ptr_or_err28_$u7b$$u7b$closure$u7d$$u7d$17h384b021a6a0b4f7cE', symObjAddr: 0x1140, symBinAddr: 0x2D57C, symSize: 0x20 }
  - { offset: 0xE55E9, size: 0x8, addend: 0x0, symName: '__ZN4pyo310conversion13FromPyPointer21from_owned_ptr_or_err28_$u7b$$u7b$closure$u7d$$u7d$17h7d10a1a604f40ff0E', symObjAddr: 0x11E0, symBinAddr: 0x2D59C, symSize: 0x20 }
  - { offset: 0xE5653, size: 0x8, addend: 0x0, symName: __ZN4pyo310conversion13FromPyPointer23from_owned_ptr_or_panic17h153e3c1f05f37c3dE, symObjAddr: 0x12E0, symBinAddr: 0x2D5BC, symSize: 0x34 }
  - { offset: 0xE56A5, size: 0x8, addend: 0x0, symName: __ZN4pyo310conversion13FromPyPointer23from_owned_ptr_or_panic17h181f1ace61a2344bE, symObjAddr: 0x1314, symBinAddr: 0x2D5F0, symSize: 0x34 }
  - { offset: 0xE56FC, size: 0x8, addend: 0x0, symName: '__ZN4pyo310conversion13FromPyPointer23from_owned_ptr_or_panic28_$u7b$$u7b$closure$u7d$$u7d$17h048f7c007cecc051E', symObjAddr: 0x1348, symBinAddr: 0x2D624, symSize: 0x14 }
  - { offset: 0xE573F, size: 0x8, addend: 0x0, symName: '__ZN4pyo310conversion13FromPyPointer23from_owned_ptr_or_panic28_$u7b$$u7b$closure$u7d$$u7d$17h341ec7de01f47221E', symObjAddr: 0x1370, symBinAddr: 0x2D638, symSize: 0x14 }
  - { offset: 0xE5782, size: 0x8, addend: 0x0, symName: '__ZN4pyo310conversion13FromPyPointer23from_owned_ptr_or_panic28_$u7b$$u7b$closure$u7d$$u7d$17h656d4187499743e7E', symObjAddr: 0x1384, symBinAddr: 0x2D64C, symSize: 0x14 }
  - { offset: 0xE57C5, size: 0x8, addend: 0x0, symName: '__ZN4pyo310conversion13FromPyPointer23from_owned_ptr_or_panic28_$u7b$$u7b$closure$u7d$$u7d$17h8625568d9514c316E', symObjAddr: 0x1398, symBinAddr: 0x2D660, symSize: 0x14 }
  - { offset: 0xE5808, size: 0x8, addend: 0x0, symName: '__ZN4pyo310conversion13FromPyPointer23from_owned_ptr_or_panic28_$u7b$$u7b$closure$u7d$$u7d$17h915d8064230e6658E', symObjAddr: 0x13D4, symBinAddr: 0x2D674, symSize: 0x14 }
  - { offset: 0xE584B, size: 0x8, addend: 0x0, symName: '__ZN4pyo310conversion13FromPyPointer23from_owned_ptr_or_panic28_$u7b$$u7b$closure$u7d$$u7d$17hc615794f4a44a530E', symObjAddr: 0x1424, symBinAddr: 0x2D688, symSize: 0x14 }
  - { offset: 0xE5906, size: 0x8, addend: 0x0, symName: '__ZN4pyo310conversion13FromPyPointer26from_borrowed_ptr_or_panic28_$u7b$$u7b$closure$u7d$$u7d$17h7ccc894b6abd7d2dE', symObjAddr: 0x1480, symBinAddr: 0x2D69C, symSize: 0x14 }
  - { offset: 0xE5949, size: 0x8, addend: 0x0, symName: '__ZN4pyo310conversion13FromPyPointer26from_borrowed_ptr_or_panic28_$u7b$$u7b$closure$u7d$$u7d$17hc662829a40ca7df2E', symObjAddr: 0x1494, symBinAddr: 0x2D6B0, symSize: 0x14 }
  - { offset: 0xE598C, size: 0x8, addend: 0x0, symName: '__ZN4pyo310conversion13FromPyPointer26from_borrowed_ptr_or_panic28_$u7b$$u7b$closure$u7d$$u7d$17hfb00c32574ef1767E', symObjAddr: 0x14A8, symBinAddr: 0x2D6C4, symSize: 0x14 }
  - { offset: 0xE5A0F, size: 0x8, addend: 0x0, symName: '__ZN53_$LT$T$u20$as$u20$pyo3..conversion..FromPyPointer$GT$21from_owned_ptr_or_opt17h41613d211101e23bE', symObjAddr: 0x71DC, symBinAddr: 0x3128C, symSize: 0xB4 }
  - { offset: 0xE5A7F, size: 0x8, addend: 0x0, symName: '__ZN53_$LT$T$u20$as$u20$pyo3..conversion..FromPyPointer$GT$21from_owned_ptr_or_opt17h78f18e0f2d78d2a2E', symObjAddr: 0x7290, symBinAddr: 0x31340, symSize: 0xB4 }
  - { offset: 0xE5AF4, size: 0x8, addend: 0x0, symName: '__ZN53_$LT$T$u20$as$u20$pyo3..conversion..FromPyPointer$GT$24from_borrowed_ptr_or_opt28_$u7b$$u7b$closure$u7d$$u7d$17h1e710079b5184421E', symObjAddr: 0x73F8, symBinAddr: 0x313F4, symSize: 0x6C }
  - { offset: 0xE5B36, size: 0x8, addend: 0x0, symName: '__ZN53_$LT$T$u20$as$u20$pyo3..conversion..FromPyPointer$GT$24from_borrowed_ptr_or_opt28_$u7b$$u7b$closure$u7d$$u7d$17h7057807fb2197f69E', symObjAddr: 0x7464, symBinAddr: 0x31460, symSize: 0x6C }
  - { offset: 0xE5B78, size: 0x8, addend: 0x0, symName: '__ZN53_$LT$T$u20$as$u20$pyo3..conversion..FromPyPointer$GT$24from_borrowed_ptr_or_opt28_$u7b$$u7b$closure$u7d$$u7d$17h881d3597e2bd53cdE', symObjAddr: 0x753C, symBinAddr: 0x314CC, symSize: 0x6C }
  - { offset: 0xE5BD6, size: 0x8, addend: 0x0, symName: '__ZN54_$LT$$RF$T$u20$as$u20$pyo3..conversion..ToPyObject$GT$9to_object17hc138410f88369273E', symObjAddr: 0x75A8, symBinAddr: 0x31538, symSize: 0x30 }
  - { offset: 0xE5C30, size: 0x8, addend: 0x0, symName: '__ZN66_$LT$pyo3..pycell..PyBorrowError$u20$as$u20$core..fmt..Display$GT$3fmt17hda5680946b0a2100E', symObjAddr: 0x7964, symBinAddr: 0x318A4, symSize: 0x3C }
  - { offset: 0xE5C8E, size: 0x8, addend: 0x0, symName: __ZN4pyo311type_object10PyTypeInfo16is_exact_type_of17h7fed18c720e003ceE, symObjAddr: 0x1E90, symBinAddr: 0x2D6D8, symSize: 0x50 }
  - { offset: 0xE5DDE, size: 0x8, addend: 0x0, symName: '__ZN4pyo35impl_8pymodule9ModuleDef11make_module28_$u7b$$u7b$closure$u7d$$u7d$17h15581b6f85c6cc53E', symObjAddr: 0x2BC0, symBinAddr: 0x2E140, symSize: 0x190 }
  - { offset: 0xE5E8E, size: 0x8, addend: 0x0, symName: '__ZN4pyo35impl_8pymodule9ModuleDef11make_module28_$u7b$$u7b$closure$u7d$$u7d$17h90166357052e7e75E', symObjAddr: 0x2D50, symBinAddr: 0x2E2D0, symSize: 0x30 }
  - { offset: 0xE6236, size: 0x8, addend: 0x0, symName: __ZN4pyo37pyclass18create_type_object13GetSetDefType21create_py_get_set_def13getset_getter17he5355a51ab052649E, symObjAddr: 0x45E8, symBinAddr: 0x2E778, symSize: 0x88 }
  - { offset: 0xE6296, size: 0x8, addend: 0x0, symName: '__ZN4pyo37pyclass18create_type_object13GetSetDefType21create_py_get_set_def13getset_getter28_$u7b$$u7b$closure$u7d$$u7d$17h446bdabef26b5514E', symObjAddr: 0x4670, symBinAddr: 0x2E800, symSize: 0x34 }
  - { offset: 0xE62F5, size: 0x8, addend: 0x0, symName: __ZN4pyo37pyclass18create_type_object13GetSetDefType21create_py_get_set_def13getset_setter17h7bf96210190a50f3E, symObjAddr: 0x46A4, symBinAddr: 0x2E834, symSize: 0xA0 }
  - { offset: 0xE6364, size: 0x8, addend: 0x0, symName: '__ZN4pyo37pyclass18create_type_object13GetSetDefType21create_py_get_set_def13getset_setter28_$u7b$$u7b$closure$u7d$$u7d$17h9dc2b1c12e196264E', symObjAddr: 0x4744, symBinAddr: 0x2E8D4, symSize: 0x38 }
  - { offset: 0xE63D2, size: 0x8, addend: 0x0, symName: __ZN4pyo37pyclass18create_type_object13GetSetDefType21create_py_get_set_def6getter17he404052265177036E, symObjAddr: 0x48D4, symBinAddr: 0x2EA64, symSize: 0x48 }
  - { offset: 0xE6432, size: 0x8, addend: 0x0, symName: '__ZN4pyo37pyclass18create_type_object13GetSetDefType21create_py_get_set_def6getter28_$u7b$$u7b$closure$u7d$$u7d$17h8e4b33ae07e25615E', symObjAddr: 0x491C, symBinAddr: 0x2EAAC, symSize: 0x34 }
  - { offset: 0xE6491, size: 0x8, addend: 0x0, symName: __ZN4pyo37pyclass18create_type_object13GetSetDefType21create_py_get_set_def6setter17hdad3123f9f23ce2dE, symObjAddr: 0x4950, symBinAddr: 0x2EAE0, symSize: 0x5C }
  - { offset: 0xE6500, size: 0x8, addend: 0x0, symName: '__ZN4pyo37pyclass18create_type_object13GetSetDefType21create_py_get_set_def6setter28_$u7b$$u7b$closure$u7d$$u7d$17h62c4c7404ad495f8E', symObjAddr: 0x49AC, symBinAddr: 0x2EB3C, symSize: 0x38 }
  - { offset: 0xE6950, size: 0x8, addend: 0x0, symName: '__ZN4pyo37pyclass18create_type_object13PyTypeBuilder31finalize_methods_and_properties28_$u7b$$u7b$closure$u7d$$u7d$17h9a3b3289af9db485E', symObjAddr: 0x56F8, symBinAddr: 0x2F888, symSize: 0x1BC }
  - { offset: 0xE6A4D, size: 0x8, addend: 0x0, symName: __ZN4pyo37pyclass18create_type_object18create_type_object5inner17hb5f17739c941b881E, symObjAddr: 0x6AC0, symBinAddr: 0x30C50, symSize: 0x2A0 }
  - { offset: 0xE6B4A, size: 0x8, addend: 0x0, symName: __ZN4pyo37pyclass18create_type_object22no_constructor_defined17hf229539e58ab7302E, symObjAddr: 0x6D60, symBinAddr: 0x30EF0, symSize: 0x38 }
  - { offset: 0xE6B9B, size: 0x8, addend: 0x0, symName: '__ZN4pyo37pyclass18create_type_object22no_constructor_defined28_$u7b$$u7b$closure$u7d$$u7d$17h9f0f606befea73eaE', symObjAddr: 0x6D98, symBinAddr: 0x30F28, symSize: 0x50 }
  - { offset: 0xE6BD8, size: 0x8, addend: 0x0, symName: __ZN4pyo37pyclass18create_type_object23py_class_qualified_name17he5df8b806f84e7c8E, symObjAddr: 0x6DE8, symBinAddr: 0x30F78, symSize: 0x150 }
  - { offset: 0xE6C97, size: 0x8, addend: 0x0, symName: '__ZN94_$LT$pyo3..pyclass..create_type_object..GetSetDefBuilder$u20$as$u20$core..default..Default$GT$7default17h709b32cadfbeb677E', symObjAddr: 0x8CE4, symBinAddr: 0x31BD4, symSize: 0x54 }
  - { offset: 0xE7A0D, size: 0x8, addend: 0x0, symName: __ZN3std3sys12thread_local20abort_on_dtor_unwind17hfcb5b762db324a97E, symObjAddr: 0x21C, symBinAddr: 0x2CC40, symSize: 0x50 }
  - { offset: 0xE7AA4, size: 0x8, addend: 0x0, symName: '__ZN3std4hash6random11RandomState3new28_$u7b$$u7b$closure$u7d$$u7d$17h3108c53cc6e86292E', symObjAddr: 0x26C, symBinAddr: 0x2CC90, symSize: 0x2C }
  - { offset: 0xE7B60, size: 0x8, addend: 0x0, symName: __ZN3std4hash6random11RandomState3new4KEYS27__rust_std_internal_init_fn17h4f04bdb500b420dbE, symObjAddr: 0x298, symBinAddr: 0x2CCBC, symSize: 0x24 }
  - { offset: 0xE7B82, size: 0x8, addend: 0x0, symName: '__ZN3std4hash6random11RandomState3new4KEYS29_$u7b$$u7b$constant$u7d$$u7d$28_$u7b$$u7b$closure$u7d$$u7d$17h3928c2ff27fa7197E', symObjAddr: 0x2BC, symBinAddr: 0x2CCE0, symSize: 0x34 }
  - { offset: 0xE7BF0, size: 0x8, addend: 0x0, symName: '__ZN71_$LT$std..hash..random..DefaultHasher$u20$as$u20$core..hash..Hasher$GT$6finish17h4d789308f654f8f1E', symObjAddr: 0x82FC, symBinAddr: 0x318E0, symSize: 0x20 }
  - { offset: 0xE7C38, size: 0x8, addend: 0x0, symName: '__ZN71_$LT$std..hash..random..DefaultHasher$u20$as$u20$core..hash..Hasher$GT$9write_str17h0ab400fc7169c784E', symObjAddr: 0x831C, symBinAddr: 0x31900, symSize: 0x2C }
  - { offset: 0xE7C98, size: 0x8, addend: 0x0, symName: '__ZN74_$LT$std..hash..random..RandomState$u20$as$u20$core..hash..BuildHasher$GT$12build_hasher17h1de134f748e90d5bE', symObjAddr: 0x88E8, symBinAddr: 0x319DC, symSize: 0xCC }
  - { offset: 0xE80C6, size: 0x8, addend: 0x0, symName: __ZN4pyo33err9err_state10PyErrState7restore17h532df82d5a34d91bE, symObjAddr: 0x21A8, symBinAddr: 0x2D728, symSize: 0x308 }
  - { offset: 0xE8204, size: 0x8, addend: 0x0, symName: __ZN4pyo33err9err_state10PyErrState9normalize17ha2438076927fd59fE, symObjAddr: 0x24B0, symBinAddr: 0x2DA30, symSize: 0x244 }
  - { offset: 0xE8379, size: 0x8, addend: 0x0, symName: __ZN4pyo33err9err_state20PyErrStateNormalized10ptraceback17h434956bb005b061cE, symObjAddr: 0x2834, symBinAddr: 0x2DDB4, symSize: 0x2C }
  - { offset: 0xE83B4, size: 0x8, addend: 0x0, symName: __ZN4pyo33err9err_state20PyErrStateNormalized25from_normalized_ffi_tuple17hcec9f9fa35f78c49E, symObjAddr: 0x2890, symBinAddr: 0x2DE10, symSize: 0x10C }
  - { offset: 0xE8418, size: 0x8, addend: 0x0, symName: __ZN4pyo33err9err_state20PyErrStateNormalized5ptype17h34efb513c7f86c78E, symObjAddr: 0x299C, symBinAddr: 0x2DF1C, symSize: 0x24 }
  - { offset: 0xE850D, size: 0x8, addend: 0x0, symName: __ZN4pyo35impl_8pymodule9ModuleDef11make_module17h69e26eb819b783bfE, symObjAddr: 0x2A44, symBinAddr: 0x2DFC4, symSize: 0x17C }
  - { offset: 0xE863F, size: 0x8, addend: 0x0, symName: __ZN4pyo35types6string8PyString15to_string_lossy17hb6078c7f05528fdbE, symObjAddr: 0x39C0, symBinAddr: 0x2E300, symSize: 0x128 }
  - { offset: 0xE869B, size: 0x8, addend: 0x0, symName: __ZN4pyo35types6string8PyString3new17h6d8fad31c590f11bE, symObjAddr: 0x3AE8, symBinAddr: 0x2E428, symSize: 0x54 }
  - { offset: 0xE8710, size: 0x8, addend: 0x0, symName: __ZN4pyo35types6string8PyString6intern17h20b1747b49e26831E, symObjAddr: 0x3CF8, symBinAddr: 0x2E47C, symSize: 0x78 }
  - { offset: 0xE87A2, size: 0x8, addend: 0x0, symName: __ZN4pyo35types6string8PyString6to_str17hb009eef25bce3c0dE, symObjAddr: 0x3D70, symBinAddr: 0x2E4F4, symSize: 0xD0 }
  - { offset: 0xE8826, size: 0x8, addend: 0x0, symName: __ZN4pyo35types7floatob7PyFloat3new17h5a974007494fb2b7E, symObjAddr: 0x40E0, symBinAddr: 0x2E728, symSize: 0x24 }
  - { offset: 0xE8861, size: 0x8, addend: 0x0, symName: __ZN4pyo35types7floatob7PyFloat5value17h4faa384012f35175E, symObjAddr: 0x4104, symBinAddr: 0x2E74C, symSize: 0x2C }
  - { offset: 0xE88E9, size: 0x8, addend: 0x0, symName: __ZN4pyo37pyclass18create_type_object13GetSetDefType21create_py_get_set_def17hb98f364dd7aa794eE, symObjAddr: 0x477C, symBinAddr: 0x2E90C, symSize: 0x158 }
  - { offset: 0xE8B59, size: 0x8, addend: 0x0, symName: __ZN4pyo37pyclass18create_type_object13PyTypeBuilder11class_items17h2572c3c5c9583ed5E, symObjAddr: 0x49E4, symBinAddr: 0x2EB74, symSize: 0x234 }
  - { offset: 0xE8CBD, size: 0x8, addend: 0x0, symName: __ZN4pyo37pyclass18create_type_object13PyTypeBuilder12pymethod_def17h0853a696880b1be5E, symObjAddr: 0x4C18, symBinAddr: 0x2EDA8, symSize: 0x2C8 }
  - { offset: 0xE8D9F, size: 0x8, addend: 0x0, symName: __ZN4pyo37pyclass18create_type_object13PyTypeBuilder15set_is_basetype17hf14982d6e103e86aE, symObjAddr: 0x4EE0, symBinAddr: 0x2F070, symSize: 0x54 }
  - { offset: 0xE8E50, size: 0x8, addend: 0x0, symName: __ZN4pyo37pyclass18create_type_object13PyTypeBuilder17push_raw_vec_slot17h2f0db67b59cabba1E, symObjAddr: 0x4F34, symBinAddr: 0x2F0C4, symSize: 0x1A8 }
  - { offset: 0xE9042, size: 0x8, addend: 0x0, symName: __ZN4pyo37pyclass18create_type_object13PyTypeBuilder17push_raw_vec_slot17hb54c913017bf3045E, symObjAddr: 0x50DC, symBinAddr: 0x2F26C, symSize: 0x194 }
  - { offset: 0xE922B, size: 0x8, addend: 0x0, symName: __ZN4pyo37pyclass18create_type_object13PyTypeBuilder17push_raw_vec_slot17hc6fdcd5f466fe9baE, symObjAddr: 0x5270, symBinAddr: 0x2F400, symSize: 0x1A8 }
  - { offset: 0xE939F, size: 0x8, addend: 0x0, symName: __ZN4pyo37pyclass18create_type_object13PyTypeBuilder31finalize_methods_and_properties17h013fd6ff7b7280e5E, symObjAddr: 0x5418, symBinAddr: 0x2F5A8, symSize: 0x2E0 }
  - { offset: 0xE94E3, size: 0x8, addend: 0x0, symName: __ZN4pyo37pyclass18create_type_object13PyTypeBuilder5build17haf93b2ec6c3c3231E, symObjAddr: 0x58B4, symBinAddr: 0x2FA44, symSize: 0x75C }
  - { offset: 0xE9777, size: 0x8, addend: 0x0, symName: __ZN4pyo37pyclass18create_type_object13PyTypeBuilder7offsets17h26e08b9fdec9b1dfE, symObjAddr: 0x6010, symBinAddr: 0x301A0, symSize: 0x1DC }
  - { offset: 0xE984B, size: 0x8, addend: 0x0, symName: __ZN4pyo37pyclass18create_type_object13PyTypeBuilder8type_doc17he2b314eeadbc836eE, symObjAddr: 0x61EC, symBinAddr: 0x3037C, symSize: 0xE0 }
  - { offset: 0xE9894, size: 0x8, addend: 0x0, symName: __ZN4pyo37pyclass18create_type_object13PyTypeBuilder9push_slot17h5443f18cc2d6a538E, symObjAddr: 0x62CC, symBinAddr: 0x3045C, symSize: 0x108 }
  - { offset: 0xE98DB, size: 0x8, addend: 0x0, symName: __ZN4pyo37pyclass18create_type_object13PyTypeBuilder9push_slot17h6cccac38e909520fE, symObjAddr: 0x63D4, symBinAddr: 0x30564, symSize: 0x108 }
  - { offset: 0xE9922, size: 0x8, addend: 0x0, symName: __ZN4pyo37pyclass18create_type_object13PyTypeBuilder9push_slot17hfbbc115dc1b79395E, symObjAddr: 0x64DC, symBinAddr: 0x3066C, symSize: 0x108 }
  - { offset: 0xE9983, size: 0x8, addend: 0x0, symName: __ZN4pyo37pyclass18create_type_object16GetSetDefBuilder10add_getter17hc971bb266f44d934E, symObjAddr: 0x65E4, symBinAddr: 0x30774, symSize: 0x64 }
  - { offset: 0xE99C2, size: 0x8, addend: 0x0, symName: __ZN4pyo37pyclass18create_type_object16GetSetDefBuilder10add_setter17habbdd3b641d4f8f8E, symObjAddr: 0x6648, symBinAddr: 0x307D8, symSize: 0x64 }
  - { offset: 0xE9A1F, size: 0x8, addend: 0x0, symName: __ZN4pyo37pyclass18create_type_object16GetSetDefBuilder14as_get_set_def17haf8564b66dc8956cE, symObjAddr: 0x66AC, symBinAddr: 0x3083C, symSize: 0x414 }
  - { offset: 0xE9D70, size: 0x8, addend: 0x0, symName: __ZN5alloc5alloc6Global18alloc_impl_runtime17he89fce3731a1e824E, symObjAddr: 0x76E8, symBinAddr: 0x31678, symSize: 0x194 }
  - { offset: 0xEA4CC, size: 0x8, addend: 0x0, symName: __ZN4pyo35panic14PanicException15type_object_raw11TYPE_OBJECT17h690906651727d92bE, symObjAddr: 0x36780, symBinAddr: 0x1091F0, symSize: 0x0 }
  - { offset: 0xEA4D9, size: 0x8, addend: 0x0, symName: '__ZN4pyo35panic14PanicException15type_object_raw28_$u7b$$u7b$closure$u7d$$u7d$17h8c9c0122da5df00dE', symObjAddr: 0x13F8, symBinAddr: 0x32750, symSize: 0x74 }
  - { offset: 0xEA5A5, size: 0x8, addend: 0x0, symName: '__ZN77_$LT$pyo3..panic..PanicException$u20$as$u20$pyo3..type_object..PyTypeInfo$GT$15type_object_raw17hfdd63c16727834f8E', symObjAddr: 0x6AF0, symBinAddr: 0x32F68, symSize: 0x1C }
  - { offset: 0xEA6D2, size: 0x8, addend: 0x0, symName: __ZN4pyo38instance12PyNativeType18unchecked_downcast17h34589695e6e15ff3E, symObjAddr: 0x3110, symBinAddr: 0x32C00, symSize: 0x70 }
  - { offset: 0xEA707, size: 0x8, addend: 0x0, symName: __ZN4pyo38instance12PyNativeType2py17h0ed772107769aeb4E, symObjAddr: 0x33B0, symBinAddr: 0x32C70, symSize: 0x20 }
  - { offset: 0xEA949, size: 0x8, addend: 0x0, symName: __ZN4pyo35types4dict6PyDict8get_item5inner17hd6945efb83f6c701E, symObjAddr: 0x23DC, symBinAddr: 0x32998, symSize: 0xF4 }
  - { offset: 0xEA9A6, size: 0x8, addend: 0x0, symName: '__ZN4pyo35types4dict6PyDict8get_item5inner28_$u7b$$u7b$closure$u7d$$u7d$17h429316bf3b599cedE', symObjAddr: 0x24D0, symBinAddr: 0x32A8C, symSize: 0x40 }
  - { offset: 0xEA9EB, size: 0x8, addend: 0x0, symName: '__ZN4pyo35types4dict6PyDict8get_item5inner28_$u7b$$u7b$closure$u7d$$u7d$17he3d02b4a8f40ef48E', symObjAddr: 0x2510, symBinAddr: 0x32ACC, symSize: 0x38 }
  - { offset: 0xEAA4F, size: 0x8, addend: 0x0, symName: __ZN4pyo35types4dict6PyDict8set_item5inner17h5dbf89862b6c567cE, symObjAddr: 0x2574, symBinAddr: 0x32B04, symSize: 0xFC }
  - { offset: 0xEAA9E, size: 0x8, addend: 0x0, symName: '__ZN69_$LT$pyo3..types..dict..PyDict$u20$as$u20$core..ops..deref..Deref$GT$5deref17h68e7f5645fe5b15cE', symObjAddr: 0x5D14, symBinAddr: 0x32E48, symSize: 0x14 }
  - { offset: 0xEAAD0, size: 0x8, addend: 0x0, symName: '__ZN75_$LT$pyo3..types..dict..PyDict$u20$as$u20$pyo3..type_object..PyTypeInfo$GT$10is_type_of17hf34dfd86f24cefaeE', symObjAddr: 0x6AAC, symBinAddr: 0x32F38, symSize: 0x30 }
  - { offset: 0xEAB02, size: 0x8, addend: 0x0, symName: '__ZN80_$LT$$RF$pyo3..types..dict..PyDict$u20$as$u20$pyo3..conversion..FromPyObject$GT$7extract17hf29a13cafd51fe9aE', symObjAddr: 0x6B8C, symBinAddr: 0x32F84, symSize: 0x3C }
  - { offset: 0xEAB34, size: 0x8, addend: 0x0, symName: '__ZN91_$LT$$RF$pyo3..types..dict..PyDict$u20$as$u20$core..iter..traits..collect..IntoIterator$GT$9into_iter17hac81718d95ba6e41E', symObjAddr: 0x6E8C, symBinAddr: 0x32FC0, symSize: 0x58 }
  - { offset: 0xEABE9, size: 0x8, addend: 0x0, symName: '__ZN97_$LT$pyo3..types..none..PyNone$u20$as$u20$core..convert..AsRef$LT$pyo3..types..any..PyAny$GT$$GT$6as_ref17h3bf07ad87c9dd6daE', symObjAddr: 0x6EE4, symBinAddr: 0x33018, symSize: 0x14 }
  - { offset: 0xEAC5D, size: 0x8, addend: 0x0, symName: '__ZN114_$LT$pyo3..pyclass_init..PyNativeTypeInitializer$LT$T$GT$$u20$as$u20$pyo3..pyclass_init..PyObjectInit$LT$T$GT$$GT$15into_new_object5inner17h5c2ef3279a5fb6aaE', symObjAddr: 0x18, symBinAddr: 0x31C28, symSize: 0x1D8 }
  - { offset: 0xEAD26, size: 0x8, addend: 0x0, symName: '__ZN49_$LT$T$u20$as$u20$pyo3..conversion..PyTryFrom$GT$18try_from_unchecked17h200093c5313f9159E', symObjAddr: 0x2F4, symBinAddr: 0x31EA4, symSize: 0x30 }
  - { offset: 0xEAD66, size: 0x8, addend: 0x0, symName: '__ZN49_$LT$T$u20$as$u20$pyo3..conversion..PyTryFrom$GT$8try_from17ha549e939e93fbf57E', symObjAddr: 0x70C, symBinAddr: 0x31ED4, symSize: 0x98 }
  - { offset: 0xEADCA, size: 0x8, addend: 0x0, symName: __ZN4pyo310conversion13FromPyPointer14from_owned_ptr17h981d3028642a2899E, symObjAddr: 0x1210, symBinAddr: 0x32654, symSize: 0x24 }
  - { offset: 0xEAE1C, size: 0x8, addend: 0x0, symName: __ZN4pyo310conversion13FromPyPointer17from_borrowed_ptr17hdb5d7a37b457d55eE, symObjAddr: 0x1234, symBinAddr: 0x32678, symSize: 0x24 }
  - { offset: 0xEAE6E, size: 0x8, addend: 0x0, symName: __ZN4pyo310conversion13FromPyPointer23from_owned_ptr_or_panic17h84235e9cd2c1cdf8E, symObjAddr: 0x12F4, symBinAddr: 0x3269C, symSize: 0x34 }
  - { offset: 0xEAEC0, size: 0x8, addend: 0x0, symName: __ZN4pyo310conversion13FromPyPointer26from_borrowed_ptr_or_panic17hbf3f649806b8fa5eE, symObjAddr: 0x1328, symBinAddr: 0x326D0, symSize: 0x34 }
  - { offset: 0xEAF18, size: 0x8, addend: 0x0, symName: '__ZN53_$LT$T$u20$as$u20$pyo3..conversion..FromPyPointer$GT$21from_owned_ptr_or_opt17hac72675db00c7ebbE', symObjAddr: 0x355C, symBinAddr: 0x32CB4, symSize: 0xB4 }
  - { offset: 0xEAF88, size: 0x8, addend: 0x0, symName: '__ZN53_$LT$T$u20$as$u20$pyo3..conversion..FromPyPointer$GT$24from_borrowed_ptr_or_opt17hfbd31bf7f7223fd1E', symObjAddr: 0x3610, symBinAddr: 0x32D68, symSize: 0x28 }
  - { offset: 0xEB007, size: 0x8, addend: 0x0, symName: __ZN4pyo311type_object10PyTypeInfo11type_object17h083f7e4fad705bb3E, symObjAddr: 0x13AC, symBinAddr: 0x32704, symSize: 0x20 }
  - { offset: 0xEB6C7, size: 0x8, addend: 0x0, symName: '__ZN74_$LT$core..cell..RefMut$LT$T$GT$$u20$as$u20$core..ops..deref..DerefMut$GT$9deref_mut17h418d1675b962f1caE', symObjAddr: 0x67B8, symBinAddr: 0x32F08, symSize: 0x18 }
  - { offset: 0xEB713, size: 0x8, addend: 0x0, symName: '__ZN74_$LT$core..cell..RefMut$LT$T$GT$$u20$as$u20$core..ops..deref..DerefMut$GT$9deref_mut17h57c48c5cc4fa51a6E', symObjAddr: 0x67D0, symBinAddr: 0x32F20, symSize: 0x18 }
  - { offset: 0xEB783, size: 0x8, addend: 0x0, symName: '__ZN63_$LT$core..cell..BorrowRef$u20$as$u20$core..ops..drop..Drop$GT$4drop17h051e0db9f8f650b2E', symObjAddr: 0x4D38, symBinAddr: 0x32DE0, symSize: 0x28 }
  - { offset: 0xEB7F3, size: 0x8, addend: 0x0, symName: '__ZN66_$LT$core..cell..BorrowRefMut$u20$as$u20$core..ops..drop..Drop$GT$4drop17hde9a5e5c8c2d1e02E', symObjAddr: 0x534C, symBinAddr: 0x32E08, symSize: 0x28 }
  - { offset: 0xEB863, size: 0x8, addend: 0x0, symName: '__ZN68_$LT$core..cell..Ref$LT$T$GT$$u20$as$u20$core..ops..deref..Deref$GT$5deref17hb6d262af93e1ed75E', symObjAddr: 0x588C, symBinAddr: 0x32E30, symSize: 0x18 }
  - { offset: 0xEB910, size: 0x8, addend: 0x0, symName: '__ZN71_$LT$core..cell..RefMut$LT$T$GT$$u20$as$u20$core..ops..deref..Deref$GT$5deref17h24306c1cc3b58fe6E', symObjAddr: 0x6520, symBinAddr: 0x32ED8, symSize: 0x18 }
  - { offset: 0xEB95C, size: 0x8, addend: 0x0, symName: '__ZN71_$LT$core..cell..RefMut$LT$T$GT$$u20$as$u20$core..ops..deref..Deref$GT$5deref17h9b4f72287c791e62E', symObjAddr: 0x6538, symBinAddr: 0x32EF0, symSize: 0x18 }
  - { offset: 0xED0B7, size: 0x8, addend: 0x0, symName: __ZN4core3cmp3Ord3max17h40c48fd63dbfabe0E, symObjAddr: 0x8D4, symBinAddr: 0x31F6C, symSize: 0x74 }
  - { offset: 0xED125, size: 0x8, addend: 0x0, symName: __ZN4core3cmp3Ord3min17h6f36141d08bc48d4E, symObjAddr: 0x9BC, symBinAddr: 0x31FE0, symSize: 0x74 }
  - { offset: 0xED19A, size: 0x8, addend: 0x0, symName: __ZN4core3mem4drop17hb5c12e28ffaddd9dE, symObjAddr: 0xA60, symBinAddr: 0x32054, symSize: 0x28 }
  - { offset: 0xED200, size: 0x8, addend: 0x0, symName: __ZN4core3mem4take17h38f70a5dcb3c3813E, symObjAddr: 0xA88, symBinAddr: 0x3207C, symSize: 0x58 }
  - { offset: 0xED290, size: 0x8, addend: 0x0, symName: __ZN4core3mem4take17h7107e03113cc0f7fE, symObjAddr: 0xAE0, symBinAddr: 0x320D4, symSize: 0x54 }
  - { offset: 0xED320, size: 0x8, addend: 0x0, symName: __ZN4core3mem4take17ha9467214a3e1d373E, symObjAddr: 0xB34, symBinAddr: 0x32128, symSize: 0x54 }
  - { offset: 0xED37D, size: 0x8, addend: 0x0, symName: __ZN4core3mem6forget17h06f0fc3a1b5b2ed0E, symObjAddr: 0xB98, symBinAddr: 0x3217C, symSize: 0x10 }
  - { offset: 0xED3AE, size: 0x8, addend: 0x0, symName: __ZN4core3mem6forget17h16dfc0c87d68602dE, symObjAddr: 0xBA8, symBinAddr: 0x3218C, symSize: 0x4 }
  - { offset: 0xED3DC, size: 0x8, addend: 0x0, symName: __ZN4core3mem6forget17h66629005f7af1be8E, symObjAddr: 0xBCC, symBinAddr: 0x32190, symSize: 0x10 }
  - { offset: 0xED40D, size: 0x8, addend: 0x0, symName: __ZN4core3mem6forget17h7d5bda4797fc3edfE, symObjAddr: 0xBF0, symBinAddr: 0x321A0, symSize: 0x14 }
  - { offset: 0xED43E, size: 0x8, addend: 0x0, symName: __ZN4core3mem6forget17h9cdb91b949204ba1E, symObjAddr: 0xC04, symBinAddr: 0x321B4, symSize: 0x14 }
  - { offset: 0xED46F, size: 0x8, addend: 0x0, symName: __ZN4core3mem6forget17hcfb5aebcb44f5dd6E, symObjAddr: 0xC2C, symBinAddr: 0x321C8, symSize: 0x10 }
  - { offset: 0xED4A0, size: 0x8, addend: 0x0, symName: __ZN4core3mem6forget17hdf3342a9b5521273E, symObjAddr: 0xC3C, symBinAddr: 0x321D8, symSize: 0x10 }
  - { offset: 0xED4D1, size: 0x8, addend: 0x0, symName: __ZN4core3mem6forget17hfe0920529e87e64bE, symObjAddr: 0xC4C, symBinAddr: 0x321E8, symSize: 0x10 }
  - { offset: 0xEDCB6, size: 0x8, addend: 0x0, symName: __ZN4core5alloc6layout6Layout25from_size_align_unchecked18precondition_check17h2093aa64c3adecceE, symObjAddr: 0xFDC, symBinAddr: 0x32554, symSize: 0xBC }
  - { offset: 0xEDDD0, size: 0x8, addend: 0x0, symName: '__ZN4core5slice29_$LT$impl$u20$$u5b$T$u5d$$GT$4iter17h90567e831344b374E', symObjAddr: 0x11CC, symBinAddr: 0x32610, symSize: 0x28 }
  - { offset: 0xEDE07, size: 0x8, addend: 0x0, symName: '__ZN4core5slice29_$LT$impl$u20$$u5b$T$u5d$$GT$8is_empty17h6b01c94100175122E', symObjAddr: 0x11F4, symBinAddr: 0x32638, symSize: 0x1C }
  - { offset: 0xEDEA2, size: 0x8, addend: 0x0, symName: '__ZN50_$LT$T$u20$as$u20$core..convert..Into$LT$U$GT$$GT$4into17hbce19a377eb2bb6aE', symObjAddr: 0x33D0, symBinAddr: 0x32C90, symSize: 0x24 }
  - { offset: 0xEEAFA, size: 0x8, addend: 0x0, symName: __ZN15portable_atomic5utils32assert_compare_exchange_ordering17h2bf454c4b55053c6E, symObjAddr: 0x1F0, symBinAddr: 0x31E00, symSize: 0xA4 }
  - { offset: 0xEF056, size: 0x8, addend: 0x0, symName: '__ZN5alloc3str56_$LT$impl$u20$alloc..borrow..ToOwned$u20$for$u20$str$GT$8to_owned17h2aadb5ac5f5233f6E', symObjAddr: 0x4700, symBinAddr: 0x32D90, symSize: 0x50 }
  - { offset: 0xEF263, size: 0x8, addend: 0x0, symName: '__ZN71_$LT$alloc..sync..Arc$LT$T$C$A$GT$$u20$as$u20$core..ops..drop..Drop$GT$4drop17h993a5757513ad312E', symObjAddr: 0x64A4, symBinAddr: 0x32E5C, symSize: 0x7C }
  - { offset: 0xEF4D8, size: 0x8, addend: 0x0, symName: '__ZN4core4cell13Cell$LT$T$GT$3get17had543fd2b66a1e76E', symObjAddr: 0xC5C, symBinAddr: 0x321F8, symSize: 0x18 }
  - { offset: 0xEF511, size: 0x8, addend: 0x0, symName: '__ZN4core4cell13Cell$LT$T$GT$3get17hda58a4fcd04c7b2aE', symObjAddr: 0xC74, symBinAddr: 0x32210, symSize: 0x18 }
  - { offset: 0xEF565, size: 0x8, addend: 0x0, symName: '__ZN4core4cell13Cell$LT$T$GT$3set17h4ba2f640ae2dcf54E', symObjAddr: 0xC8C, symBinAddr: 0x32228, symSize: 0x1C }
  - { offset: 0xEF603, size: 0x8, addend: 0x0, symName: '__ZN4core4cell13Cell$LT$T$GT$3set17h81a83c16cc8781eaE', symObjAddr: 0xCA8, symBinAddr: 0x32244, symSize: 0x1C }
  - { offset: 0xEF7D5, size: 0x8, addend: 0x0, symName: '__ZN4core4cell16RefCell$LT$T$GT$10borrow_mut17h6bf854705fc8ed51E', symObjAddr: 0xCE8, symBinAddr: 0x32260, symSize: 0xAC }
  - { offset: 0xEFAC7, size: 0x8, addend: 0x0, symName: '__ZN4core4cell16RefCell$LT$T$GT$10borrow_mut17he08d243bac5ae1aeE', symObjAddr: 0xD94, symBinAddr: 0x3230C, symSize: 0xAC }
  - { offset: 0xEFCCA, size: 0x8, addend: 0x0, symName: '__ZN4core4cell16RefCell$LT$T$GT$6borrow17h9b549c209be0fd45E', symObjAddr: 0xE40, symBinAddr: 0x323B8, symSize: 0xC0 }
  - { offset: 0xEFE7A, size: 0x8, addend: 0x0, symName: '__ZN4core4cell16RefCell$LT$T$GT$7replace17hc5e5669b192bd48fE', symObjAddr: 0xF00, symBinAddr: 0x32478, symSize: 0xDC }
  - { offset: 0xEFFE5, size: 0x8, addend: 0x0, symName: __ZN4pyo35panic14PanicException15type_object_raw17h1e4d1d35dd5d62c7E, symObjAddr: 0x13CC, symBinAddr: 0x32724, symSize: 0x2C }
  - { offset: 0xF0088, size: 0x8, addend: 0x0, symName: __ZN4pyo35panic14PanicException18from_panic_payload17h61d886910d07a141E, symObjAddr: 0x146C, symBinAddr: 0xA26A8, symSize: 0x144 }
  - { offset: 0xF00E7, size: 0x8, addend: 0x0, symName: __ZN4pyo35panic14PanicException7new_err17h45cae3255fde0c42E, symObjAddr: 0x15B0, symBinAddr: 0x327C4, symSize: 0x34 }
  - { offset: 0xF0126, size: 0x8, addend: 0x0, symName: __ZN4pyo35panic14PanicException7new_err17h5e52de36ae5edb8eE, symObjAddr: 0x15E4, symBinAddr: 0x327F8, symSize: 0x28 }
  - { offset: 0xF0196, size: 0x8, addend: 0x0, symName: __ZN4pyo35types4dict14PyDictIterator14next_unchecked17hbf262b2476b12d13E, symObjAddr: 0x1CE8, symBinAddr: 0x32820, symSize: 0xB0 }
  - { offset: 0xF0220, size: 0x8, addend: 0x0, symName: __ZN4pyo35types4dict6PyDict3new17h90113a6f9e226485E, symObjAddr: 0x1F9C, symBinAddr: 0x328D0, symSize: 0x20 }
  - { offset: 0xF024D, size: 0x8, addend: 0x0, symName: __ZN4pyo35types4dict6PyDict4_len17hf25fb0ada3942cd0E, symObjAddr: 0x1FBC, symBinAddr: 0x328F0, symSize: 0x84 }
  - { offset: 0xF026F, size: 0x8, addend: 0x0, symName: __ZN4pyo35types4dict6PyDict4iter17h99b38ddb86c7685cE, symObjAddr: 0x2088, symBinAddr: 0x32974, symSize: 0x24 }
  - { offset: 0xF074B, size: 0x8, addend: 0x0, symName: '__ZN5alloc6string94_$LT$impl$u20$core..convert..From$LT$$RF$str$GT$$u20$for$u20$alloc..borrow..Cow$LT$str$GT$$GT$4from17haf4593f588d444c2E', symObjAddr: 0x5C70, symBinAddr: 0x34A3C, symSize: 0x2C }
  - { offset: 0xF0AAB, size: 0x8, addend: 0x0, symName: '__ZN87_$LT$T$u20$as$u20$alloc..slice..$LT$impl$u20$$u5b$T$u5d$$GT$..to_vec_in..ConvertVec$GT$6to_vec17hfadf3fee3a878e2fE', symObjAddr: 0x6660, symBinAddr: 0x34D24, symSize: 0xF4 }
  - { offset: 0xF0D5F, size: 0x8, addend: 0x0, symName: '__ZN66_$LT$alloc..borrow..Cow$LT$B$GT$$u20$as$u20$core..fmt..Display$GT$3fmt17h211fc51da364f35eE', symObjAddr: 0x5C9C, symBinAddr: 0x34A68, symSize: 0x84 }
  - { offset: 0xF0E17, size: 0x8, addend: 0x0, symName: '__ZN71_$LT$alloc..borrow..Cow$LT$B$GT$$u20$as$u20$core..ops..deref..Deref$GT$5deref17h4dac52d3c77b1da7E', symObjAddr: 0x5F9C, symBinAddr: 0x34BE4, symSize: 0x70 }
  - { offset: 0xF0E6C, size: 0x8, addend: 0x0, symName: '__ZN71_$LT$alloc..borrow..Cow$LT$B$GT$$u20$as$u20$core..ops..deref..Deref$GT$5deref17hea20c304d99496c3E', symObjAddr: 0x600C, symBinAddr: 0x34C54, symSize: 0x78 }
  - { offset: 0xF1D80, size: 0x8, addend: 0x0, symName: '__ZN145_$LT$core..option..Option$LT$T$GT$$u20$as$u20$core..ops..try_trait..FromResidual$LT$core..option..Option$LT$core..convert..Infallible$GT$$GT$$GT$13from_residual17h253faf19943fbec4E', symObjAddr: 0xE8, symBinAddr: 0x3302C, symSize: 0x10 }
  - { offset: 0xF1DB3, size: 0x8, addend: 0x0, symName: '__ZN145_$LT$core..option..Option$LT$T$GT$$u20$as$u20$core..ops..try_trait..FromResidual$LT$core..option..Option$LT$core..convert..Infallible$GT$$GT$$GT$13from_residual17h29d1db17d1a0533cE', symObjAddr: 0xF8, symBinAddr: 0x3303C, symSize: 0x10 }
  - { offset: 0xF1DE6, size: 0x8, addend: 0x0, symName: '__ZN145_$LT$core..option..Option$LT$T$GT$$u20$as$u20$core..ops..try_trait..FromResidual$LT$core..option..Option$LT$core..convert..Infallible$GT$$GT$$GT$13from_residual17h2d706aca37d196edE', symObjAddr: 0x108, symBinAddr: 0x3304C, symSize: 0x10 }
  - { offset: 0xF1E19, size: 0x8, addend: 0x0, symName: '__ZN145_$LT$core..option..Option$LT$T$GT$$u20$as$u20$core..ops..try_trait..FromResidual$LT$core..option..Option$LT$core..convert..Infallible$GT$$GT$$GT$13from_residual17h48499c9a7499054fE', symObjAddr: 0x128, symBinAddr: 0x3305C, symSize: 0x10 }
  - { offset: 0xF1E4C, size: 0x8, addend: 0x0, symName: '__ZN145_$LT$core..option..Option$LT$T$GT$$u20$as$u20$core..ops..try_trait..FromResidual$LT$core..option..Option$LT$core..convert..Infallible$GT$$GT$$GT$13from_residual17h5635073f499cfe89E', symObjAddr: 0x148, symBinAddr: 0x3306C, symSize: 0x10 }
  - { offset: 0xF1E7F, size: 0x8, addend: 0x0, symName: '__ZN145_$LT$core..option..Option$LT$T$GT$$u20$as$u20$core..ops..try_trait..FromResidual$LT$core..option..Option$LT$core..convert..Infallible$GT$$GT$$GT$13from_residual17hb7351efa253c53beE', symObjAddr: 0x1F8, symBinAddr: 0x3307C, symSize: 0x10 }
  - { offset: 0xF1EB2, size: 0x8, addend: 0x0, symName: '__ZN145_$LT$core..option..Option$LT$T$GT$$u20$as$u20$core..ops..try_trait..FromResidual$LT$core..option..Option$LT$core..convert..Infallible$GT$$GT$$GT$13from_residual17hde8c38d5342ff10bE', symObjAddr: 0x230, symBinAddr: 0x3308C, symSize: 0x10 }
  - { offset: 0xF4390, size: 0x8, addend: 0x0, symName: '__ZN66_$LT$core..option..Option$LT$T$GT$$u20$as$u20$core..fmt..Debug$GT$3fmt17h148b2a02e2ce85bdE', symObjAddr: 0x5D20, symBinAddr: 0x34AEC, symSize: 0x9C }
  - { offset: 0xF43FA, size: 0x8, addend: 0x0, symName: '__ZN68_$LT$core..option..Option$LT$T$GT$$u20$as$u20$core..clone..Clone$GT$5clone17h328de39e43d347d7E', symObjAddr: 0x5F14, symBinAddr: 0x34B88, symSize: 0x5C }
  - { offset: 0xF4455, size: 0x8, addend: 0x0, symName: '__ZN72_$LT$core..option..Option$LT$T$GT$$u20$as$u20$core..default..Default$GT$7default17h16e4af88a7aaed1dE', symObjAddr: 0x6084, symBinAddr: 0x34CCC, symSize: 0x8 }
  - { offset: 0xF447D, size: 0x8, addend: 0x0, symName: '__ZN72_$LT$core..option..Option$LT$T$GT$$u20$as$u20$core..default..Default$GT$7default17h58ee0516b75f6602E', symObjAddr: 0x608C, symBinAddr: 0x34CD4, symSize: 0x8 }
  - { offset: 0xF44A5, size: 0x8, addend: 0x0, symName: '__ZN72_$LT$core..option..Option$LT$T$GT$$u20$as$u20$core..default..Default$GT$7default17h6e3f39c7bb7e64a2E', symObjAddr: 0x6094, symBinAddr: 0x34CDC, symSize: 0x8 }
  - { offset: 0xF44D3, size: 0x8, addend: 0x0, symName: '__ZN75_$LT$core..option..Option$LT$T$GT$$u20$as$u20$core..ops..try_trait..Try$GT$6branch17hcffa77382935fa84E', symObjAddr: 0x648C, symBinAddr: 0x34CE4, symSize: 0x40 }
  - { offset: 0xF4688, size: 0x8, addend: 0x0, symName: '__ZN4core5slice4iter87_$LT$impl$u20$core..iter..traits..collect..IntoIterator$u20$for$u20$$RF$$u5b$T$u5d$$GT$9into_iter17hfd1ba33d613b1b8aE', symObjAddr: 0x11C4, symBinAddr: 0x33120, symSize: 0x50 }
  - { offset: 0xF4830, size: 0x8, addend: 0x0, symName: '__ZN50_$LT$T$u20$as$u20$core..convert..Into$LT$U$GT$$GT$4into17h3df70c379943006fE', symObjAddr: 0x5B38, symBinAddr: 0x34A28, symSize: 0x14 }
  - { offset: 0xF498C, size: 0x8, addend: 0x0, symName: '__ZN44_$LT$$RF$T$u20$as$u20$core..fmt..Display$GT$3fmt17hbbd0219dae182d73E', symObjAddr: 0x330, symBinAddr: 0x3309C, symSize: 0x30 }
  - { offset: 0xF513F, size: 0x8, addend: 0x0, symName: __ZN4core10intrinsics11rotate_left17h87bd0e02c934c747E, symObjAddr: 0xFB8, symBinAddr: 0x330CC, symSize: 0x54 }
  - { offset: 0xF64BA, size: 0x8, addend: 0x0, symName: __ZN8pyo3_ffi13unicodeobject15PyUnicode_Check17hb8c96cd418e7b4d9E, symObjAddr: 0x67B8, symBinAddr: 0x34E18, symSize: 0x30 }
  - { offset: 0xF6BF5, size: 0x8, addend: 0x0, symName: '__ZN4core6option15Option$LT$T$GT$10ok_or_else17h2477a3c6cc652e00E', symObjAddr: 0x1300, symBinAddr: 0x33170, symSize: 0x80 }
  - { offset: 0xF6C6D, size: 0x8, addend: 0x0, symName: '__ZN4core6option15Option$LT$T$GT$10ok_or_else17h82e879e4fc709ceaE', symObjAddr: 0x1580, symBinAddr: 0x331F0, symSize: 0x80 }
  - { offset: 0xF6D24, size: 0x8, addend: 0x0, symName: '__ZN4core6option15Option$LT$T$GT$11map_or_else17ha8fc95752938809aE', symObjAddr: 0x1B00, symBinAddr: 0x33270, symSize: 0xC0 }
  - { offset: 0xF6DDF, size: 0x8, addend: 0x0, symName: '__ZN4core6option15Option$LT$T$GT$14unwrap_or_else17h018dd3e3c8eae5aeE', symObjAddr: 0x1C90, symBinAddr: 0x33330, symSize: 0x58 }
  - { offset: 0xF6E23, size: 0x8, addend: 0x0, symName: '__ZN4core6option15Option$LT$T$GT$14unwrap_or_else17h3c20aff6f2eb0f16E', symObjAddr: 0x1D40, symBinAddr: 0x33388, symSize: 0x58 }
  - { offset: 0xF6E74, size: 0x8, addend: 0x0, symName: '__ZN4core6option15Option$LT$T$GT$14unwrap_or_else17h3d07b534ff202b4eE', symObjAddr: 0x1DF0, symBinAddr: 0x333E0, symSize: 0x58 }
  - { offset: 0xF6EB8, size: 0x8, addend: 0x0, symName: '__ZN4core6option15Option$LT$T$GT$14unwrap_or_else17h43a6053970cabc0cE', symObjAddr: 0x1E48, symBinAddr: 0x33438, symSize: 0x58 }
  - { offset: 0xF6F09, size: 0x8, addend: 0x0, symName: '__ZN4core6option15Option$LT$T$GT$14unwrap_or_else17h9d9abf8b28bf2715E', symObjAddr: 0x1FA4, symBinAddr: 0x33490, symSize: 0x58 }
  - { offset: 0xF6F4D, size: 0x8, addend: 0x0, symName: '__ZN4core6option15Option$LT$T$GT$14unwrap_or_else17hbad518e82eedaadbE', symObjAddr: 0x20AC, symBinAddr: 0x334E8, symSize: 0x58 }
  - { offset: 0xF6F91, size: 0x8, addend: 0x0, symName: '__ZN4core6option15Option$LT$T$GT$14unwrap_or_else17he1398e5c37cef0d1E', symObjAddr: 0x21B4, symBinAddr: 0x33540, symSize: 0x58 }
  - { offset: 0xF6FD5, size: 0x8, addend: 0x0, symName: '__ZN4core6option15Option$LT$T$GT$14unwrap_or_else17he250b77a4012a11eE', symObjAddr: 0x220C, symBinAddr: 0x33598, symSize: 0x60 }
  - { offset: 0xF7027, size: 0x8, addend: 0x0, symName: '__ZN4core6option15Option$LT$T$GT$14unwrap_or_else17he2bb503b2ec12c0eE', symObjAddr: 0x226C, symBinAddr: 0x335F8, symSize: 0x58 }
  - { offset: 0xF7078, size: 0x8, addend: 0x0, symName: '__ZN4core6option15Option$LT$T$GT$14unwrap_or_else17hedbb0e1bf58e3340E', symObjAddr: 0x22C4, symBinAddr: 0x33650, symSize: 0x58 }
  - { offset: 0xF70E7, size: 0x8, addend: 0x0, symName: '__ZN4core6option15Option$LT$T$GT$3map17h1151c45c2a429617E', symObjAddr: 0x23D0, symBinAddr: 0x336A8, symSize: 0x50 }
  - { offset: 0xF7152, size: 0x8, addend: 0x0, symName: '__ZN4core6option15Option$LT$T$GT$3map17h23f297b0ef144368E', symObjAddr: 0x2420, symBinAddr: 0x336F8, symSize: 0x50 }
  - { offset: 0xF721A, size: 0x8, addend: 0x0, symName: '__ZN4core6option15Option$LT$T$GT$3map17h275207bc194803acE', symObjAddr: 0x2470, symBinAddr: 0x33748, symSize: 0x7C }
  - { offset: 0xF7285, size: 0x8, addend: 0x0, symName: '__ZN4core6option15Option$LT$T$GT$3map17h2b13a9193a77df55E', symObjAddr: 0x24EC, symBinAddr: 0x337C4, symSize: 0x74 }
  - { offset: 0xF72F1, size: 0x8, addend: 0x0, symName: '__ZN4core6option15Option$LT$T$GT$3map17h3157baec5166ec5fE', symObjAddr: 0x25CC, symBinAddr: 0x33838, symSize: 0x5C }
  - { offset: 0xF7369, size: 0x8, addend: 0x0, symName: '__ZN4core6option15Option$LT$T$GT$3map17h389d389707f3eaf0E', symObjAddr: 0x2628, symBinAddr: 0x33894, symSize: 0x50 }
  - { offset: 0xF73D4, size: 0x8, addend: 0x0, symName: '__ZN4core6option15Option$LT$T$GT$3map17h3d37e1cd854d0376E', symObjAddr: 0x2678, symBinAddr: 0x338E4, symSize: 0x5C }
  - { offset: 0xF743F, size: 0x8, addend: 0x0, symName: '__ZN4core6option15Option$LT$T$GT$3map17h4aad55c9d55c581aE', symObjAddr: 0x27AC, symBinAddr: 0x33940, symSize: 0x50 }
  - { offset: 0xF74B7, size: 0x8, addend: 0x0, symName: '__ZN4core6option15Option$LT$T$GT$3map17h609348f0c89d2cadE', symObjAddr: 0x28C4, symBinAddr: 0x33990, symSize: 0x5C }
  - { offset: 0xF7522, size: 0x8, addend: 0x0, symName: '__ZN4core6option15Option$LT$T$GT$3map17h81caf62df06b4012E', symObjAddr: 0x2A54, symBinAddr: 0x339EC, symSize: 0x50 }
  - { offset: 0xF75BD, size: 0x8, addend: 0x0, symName: '__ZN4core6option15Option$LT$T$GT$3map17ha88cb232594a52e1E', symObjAddr: 0x2C58, symBinAddr: 0x33A3C, symSize: 0x5C }
  - { offset: 0xF7628, size: 0x8, addend: 0x0, symName: '__ZN4core6option15Option$LT$T$GT$3map17ha9888a7fea4ad58fE', symObjAddr: 0x2CB4, symBinAddr: 0x33A98, symSize: 0x7C }
  - { offset: 0xF76AB, size: 0x8, addend: 0x0, symName: '__ZN4core6option15Option$LT$T$GT$3map17hbd2f971e8caabe00E', symObjAddr: 0x2E14, symBinAddr: 0x33B14, symSize: 0x64 }
  - { offset: 0xF7716, size: 0x8, addend: 0x0, symName: '__ZN4core6option15Option$LT$T$GT$3map17hc2c9e45e5c2f90bfE', symObjAddr: 0x2E78, symBinAddr: 0x33B78, symSize: 0x6C }
  - { offset: 0xF7781, size: 0x8, addend: 0x0, symName: '__ZN4core6option15Option$LT$T$GT$3map17hc93e38cbea07e08dE', symObjAddr: 0x2F34, symBinAddr: 0x33BE4, symSize: 0x50 }
  - { offset: 0xF7804, size: 0x8, addend: 0x0, symName: '__ZN4core6option15Option$LT$T$GT$3map17hcb1bba296fd68d7dE', symObjAddr: 0x2F84, symBinAddr: 0x33C34, symSize: 0x88 }
  - { offset: 0xF7870, size: 0x8, addend: 0x0, symName: '__ZN4core6option15Option$LT$T$GT$3map17hcc8d4384a4d082fbE', symObjAddr: 0x300C, symBinAddr: 0x33CBC, symSize: 0x5C }
  - { offset: 0xF78E8, size: 0x8, addend: 0x0, symName: '__ZN4core6option15Option$LT$T$GT$3map17hdfa0aa9f02030df3E', symObjAddr: 0x30D4, symBinAddr: 0x33D18, symSize: 0x50 }
  - { offset: 0xF7953, size: 0x8, addend: 0x0, symName: '__ZN4core6option15Option$LT$T$GT$3map17hed91727bf206e46dE', symObjAddr: 0x3124, symBinAddr: 0x33D68, symSize: 0x5C }
  - { offset: 0xF79CB, size: 0x8, addend: 0x0, symName: '__ZN4core6option15Option$LT$T$GT$4take17h197a09d57581e89bE', symObjAddr: 0x31EC, symBinAddr: 0x33DC4, symSize: 0x3C }
  - { offset: 0xF7A22, size: 0x8, addend: 0x0, symName: '__ZN4core6option15Option$LT$T$GT$4take17h19f75afee1225b04E', symObjAddr: 0x3228, symBinAddr: 0x33E00, symSize: 0x20 }
  - { offset: 0xF7A79, size: 0x8, addend: 0x0, symName: '__ZN4core6option15Option$LT$T$GT$4take17h96baa1a7f5cd30ceE', symObjAddr: 0x3248, symBinAddr: 0x33E20, symSize: 0x20 }
  - { offset: 0xF7ADD, size: 0x8, addend: 0x0, symName: '__ZN4core6option15Option$LT$T$GT$6as_ref17h5ae65bd6cf2aa84aE', symObjAddr: 0x32E8, symBinAddr: 0x33E40, symSize: 0x4C }
  - { offset: 0xF7B34, size: 0x8, addend: 0x0, symName: '__ZN4core6option15Option$LT$T$GT$6as_ref17h87bd901eb360ad56E', symObjAddr: 0x3334, symBinAddr: 0x33E8C, symSize: 0x48 }
  - { offset: 0xF7B98, size: 0x8, addend: 0x0, symName: '__ZN4core6option15Option$LT$T$GT$6as_ref17h90b1b922cd788092E', symObjAddr: 0x337C, symBinAddr: 0x33ED4, symSize: 0x4C }
  - { offset: 0xF7BFC, size: 0x8, addend: 0x0, symName: '__ZN4core6option15Option$LT$T$GT$6as_ref17hd7b2b2bc2d0dde37E', symObjAddr: 0x33C8, symBinAddr: 0x33F20, symSize: 0x4C }
  - { offset: 0xF7C60, size: 0x8, addend: 0x0, symName: '__ZN4core6option15Option$LT$T$GT$6as_ref17hda0b26dfee17733aE', symObjAddr: 0x3414, symBinAddr: 0x33F6C, symSize: 0x4C }
  - { offset: 0xF7CB7, size: 0x8, addend: 0x0, symName: '__ZN4core6option15Option$LT$T$GT$6as_ref17he590fe8df7a451abE', symObjAddr: 0x3460, symBinAddr: 0x33FB8, symSize: 0x4C }
  - { offset: 0xF7D1B, size: 0x8, addend: 0x0, symName: '__ZN4core6option15Option$LT$T$GT$6as_ref17hf7ed06aabcd3e285E', symObjAddr: 0x34AC, symBinAddr: 0x34004, symSize: 0x4C }
  - { offset: 0xF7DCB, size: 0x8, addend: 0x0, symName: '__ZN4core6option15Option$LT$T$GT$6as_ref17hfa7e259650b9d899E', symObjAddr: 0x34F8, symBinAddr: 0x34050, symSize: 0x50 }
  - { offset: 0xF7E15, size: 0x8, addend: 0x0, symName: '__ZN4core6option15Option$LT$T$GT$6expect17h22bb61b567c15f69E', symObjAddr: 0x3548, symBinAddr: 0x340A0, symSize: 0x70 }
  - { offset: 0xF7E51, size: 0x8, addend: 0x0, symName: '__ZN4core6option15Option$LT$T$GT$6expect17hc476e737ba3b0003E', symObjAddr: 0x35B8, symBinAddr: 0x34110, symSize: 0x5C }
  - { offset: 0xF7E8C, size: 0x8, addend: 0x0, symName: '__ZN4core6option15Option$LT$T$GT$6expect17hf9c7a1805076f76bE', symObjAddr: 0x3614, symBinAddr: 0x3416C, symSize: 0x5C }
  - { offset: 0xF7EC7, size: 0x8, addend: 0x0, symName: '__ZN4core6option15Option$LT$T$GT$6map_or17h035b8094fd163ddcE', symObjAddr: 0x3670, symBinAddr: 0x341C8, symSize: 0x9C }
  - { offset: 0xF7F51, size: 0x8, addend: 0x0, symName: '__ZN4core6option15Option$LT$T$GT$6map_or17h39e147a4b6c2b740E', symObjAddr: 0x370C, symBinAddr: 0x34264, symSize: 0x9C }
  - { offset: 0xF7FDB, size: 0x8, addend: 0x0, symName: '__ZN4core6option15Option$LT$T$GT$6map_or17h90986fa9211837e0E', symObjAddr: 0x3844, symBinAddr: 0x34300, symSize: 0x9C }
  - { offset: 0xF806C, size: 0x8, addend: 0x0, symName: '__ZN4core6option15Option$LT$T$GT$6map_or17hb2f8102e99078b53E', symObjAddr: 0x3A28, symBinAddr: 0x3439C, symSize: 0xA8 }
  - { offset: 0xF80F6, size: 0x8, addend: 0x0, symName: '__ZN4core6option15Option$LT$T$GT$6map_or17hcaa4a70548513154E', symObjAddr: 0x3AD0, symBinAddr: 0x34444, symSize: 0x9C }
  - { offset: 0xF8184, size: 0x8, addend: 0x0, symName: '__ZN4core6option15Option$LT$T$GT$7is_none17h11efb6462584911eE', symObjAddr: 0x3CA4, symBinAddr: 0x344E0, symSize: 0x28 }
  - { offset: 0xF81EA, size: 0x8, addend: 0x0, symName: '__ZN4core6option15Option$LT$T$GT$7is_none17hd44eee6003b29a25E', symObjAddr: 0x3CCC, symBinAddr: 0x34508, symSize: 0x28 }
  - { offset: 0xF825D, size: 0x8, addend: 0x0, symName: '__ZN4core6option15Option$LT$T$GT$7is_none17hdd6dc5b4c3fddd87E', symObjAddr: 0x3CF4, symBinAddr: 0x34530, symSize: 0x28 }
  - { offset: 0xF82B4, size: 0x8, addend: 0x0, symName: '__ZN4core6option15Option$LT$T$GT$7is_some17h40e18abf86020293E', symObjAddr: 0x3D1C, symBinAddr: 0x34558, symSize: 0x20 }
  - { offset: 0xF82E0, size: 0x8, addend: 0x0, symName: '__ZN4core6option15Option$LT$T$GT$7is_some17h41d0dd8c32dd70f5E', symObjAddr: 0x3D3C, symBinAddr: 0x34578, symSize: 0x28 }
  - { offset: 0xF830C, size: 0x8, addend: 0x0, symName: '__ZN4core6option15Option$LT$T$GT$7is_some17h4af4ecf874134592E', symObjAddr: 0x3D64, symBinAddr: 0x345A0, symSize: 0x28 }
  - { offset: 0xF8338, size: 0x8, addend: 0x0, symName: '__ZN4core6option15Option$LT$T$GT$7is_some17h61614edb1adc1927E', symObjAddr: 0x3D8C, symBinAddr: 0x345C8, symSize: 0x24 }
  - { offset: 0xF8364, size: 0x8, addend: 0x0, symName: '__ZN4core6option15Option$LT$T$GT$7is_some17h8a78d3e1c20bd110E', symObjAddr: 0x3DB0, symBinAddr: 0x345EC, symSize: 0x28 }
  - { offset: 0xF839D, size: 0x8, addend: 0x0, symName: '__ZN4core6option15Option$LT$T$GT$7is_some17hb071b28a0404ad97E', symObjAddr: 0x3DD8, symBinAddr: 0x34614, symSize: 0x28 }
  - { offset: 0xF83C9, size: 0x8, addend: 0x0, symName: '__ZN4core6option15Option$LT$T$GT$7is_some17hb833b0239e694cedE', symObjAddr: 0x3E00, symBinAddr: 0x3463C, symSize: 0x28 }
  - { offset: 0xF83F5, size: 0x8, addend: 0x0, symName: '__ZN4core6option15Option$LT$T$GT$7is_some17he4213fa142113f44E', symObjAddr: 0x3E28, symBinAddr: 0x34664, symSize: 0x2C }
  - { offset: 0xF8421, size: 0x8, addend: 0x0, symName: '__ZN4core6option15Option$LT$T$GT$7or_else17h5e7641e2571c38e2E', symObjAddr: 0x3E54, symBinAddr: 0x34690, symSize: 0xB0 }
  - { offset: 0xF8466, size: 0x8, addend: 0x0, symName: '__ZN4core6option15Option$LT$T$GT$8and_then17hbc3790e37c42bc75E', symObjAddr: 0x3F04, symBinAddr: 0x34740, symSize: 0x5C }
  - { offset: 0xF858B, size: 0x8, addend: 0x0, symName: '__ZN4core6option15Option$LT$T$GT$8as_deref17h0d268de5952c4909E', symObjAddr: 0x3F60, symBinAddr: 0x3479C, symSize: 0x74 }
  - { offset: 0xF863B, size: 0x8, addend: 0x0, symName: '__ZN4core6option15Option$LT$T$GT$9unwrap_or17hac1123ae754658a0E', symObjAddr: 0x401C, symBinAddr: 0x34810, symSize: 0x48 }
  - { offset: 0xF8676, size: 0x8, addend: 0x0, symName: '__ZN4core6option15Option$LT$T$GT$9unwrap_or17hfdc91bd097788365E', symObjAddr: 0x40A8, symBinAddr: 0x34858, symSize: 0x68 }
  - { offset: 0xF86B1, size: 0x8, addend: 0x0, symName: '__ZN4core6option47Option$LT$core..result..Result$LT$T$C$E$GT$$GT$9transpose17h4a255e08e0a1bf7fE', symObjAddr: 0x4110, symBinAddr: 0x348C0, symSize: 0xD0 }
  - { offset: 0xF8724, size: 0x8, addend: 0x0, symName: '__ZN4core6option47Option$LT$core..result..Result$LT$T$C$E$GT$$GT$9transpose17h61cb6450710ae575E', symObjAddr: 0x41E0, symBinAddr: 0x34990, symSize: 0x98 }
  - { offset: 0xF8955, size: 0x8, addend: 0x0, symName: '__ZN96_$LT$core..option..Option$LT$T$GT$$u20$as$u20$parking_lot..util..UncheckedOptionExt$LT$T$GT$$GT$16unchecked_unwrap17h0a836a7974b3bf9cE', symObjAddr: 0x6858, symBinAddr: 0x34E48, symSize: 0x2C }
  - { offset: 0xF8986, size: 0x8, addend: 0x0, symName: '__ZN96_$LT$core..option..Option$LT$T$GT$$u20$as$u20$parking_lot..util..UncheckedOptionExt$LT$T$GT$$GT$16unchecked_unwrap17h60f46e2197bbdb14E', symObjAddr: 0x6884, symBinAddr: 0x34E74, symSize: 0x2C }
  - { offset: 0xF8A90, size: 0x8, addend: 0x0, symName: __ZN9hashbrown7control5group4neon5Group10match_full17he192de7e38b8f7b3E, symObjAddr: 0x6D70, symBinAddr: 0x34EA0, symSize: 0x68 }
  - { offset: 0xF8AC8, size: 0x8, addend: 0x0, symName: __ZN9hashbrown7control5group4neon5Group22match_empty_or_deleted17h30a74cc888e40ea3E, symObjAddr: 0x6DD8, symBinAddr: 0x34F08, symSize: 0x68 }
  - { offset: 0xF8B00, size: 0x8, addend: 0x0, symName: __ZN9hashbrown7control5group4neon5Group44convert_special_to_empty_and_full_to_deleted17hfe59c9040725395fE, symObjAddr: 0x6E40, symBinAddr: 0x34F70, symSize: 0x88 }
  - { offset: 0xF8B38, size: 0x8, addend: 0x0, symName: __ZN9hashbrown7control5group4neon5Group9match_tag17h4caf4866b1e28209E, symObjAddr: 0x6EC8, symBinAddr: 0x34FF8, symSize: 0x7C }
  - { offset: 0xFAD9C, size: 0x8, addend: 0x0, symName: __ZN4core3ptr9alignment9Alignment13new_unchecked18precondition_check17hdaacc8f3715efd1fE, symObjAddr: 0x6B4, symBinAddr: 0x3554C, symSize: 0x70 }
  - { offset: 0xFBB75, size: 0x8, addend: 0x0, symName: __ZN4core9panicking13assert_failed17hd0959aaa4fc261b5E, symObjAddr: 0x888, symBinAddr: 0xA27EC, symSize: 0x54 }
  - { offset: 0xFBBDE, size: 0x8, addend: 0x0, symName: __ZN4core9panicking13assert_failed17hda05b705ab6843d6E, symObjAddr: 0x8DC, symBinAddr: 0xA2840, symSize: 0x54 }
  - { offset: 0xFBC47, size: 0x8, addend: 0x0, symName: __ZN4core9panicking13panic_display17h3a50138e58187c70E, symObjAddr: 0x930, symBinAddr: 0x35664, symSize: 0x5C }
  - { offset: 0xFBD36, size: 0x8, addend: 0x0, symName: __ZN4core4char7convert18from_u32_unchecked18precondition_check17hdaec2ec90896ded5E, symObjAddr: 0x724, symBinAddr: 0x355BC, symSize: 0x7C }
  - { offset: 0xFBEFC, size: 0x8, addend: 0x0, symName: __ZN4core4iter6traits8iterator8Iterator4take17h9c51c53d06c1d888E, symObjAddr: 0x808, symBinAddr: 0x35638, symSize: 0x2C }
  - { offset: 0xFBF91, size: 0x8, addend: 0x0, symName: '__ZN72_$LT$$RF$mut$u20$I$u20$as$u20$core..iter..traits..iterator..Iterator$GT$4next17hdeab092c47c6efceE', symObjAddr: 0x12EC, symBinAddr: 0x356C0, symSize: 0x34 }
  - { offset: 0xFBFD4, size: 0x8, addend: 0x0, symName: '__ZN83_$LT$$RF$mut$u20$I$u20$as$u20$core..iter..traits..exact_size..ExactSizeIterator$GT$3len17hd3e3c44459f6f7fcE', symObjAddr: 0x13C8, symBinAddr: 0x35730, symSize: 0x34 }
  - { offset: 0xFC75B, size: 0x8, addend: 0x0, symName: __ZN3std9panicking12catch_unwind7do_call17h8c56d74d919752cdE, symObjAddr: 0xCC, symBinAddr: 0x35074, symSize: 0x8C }
  - { offset: 0xFC856, size: 0x8, addend: 0x0, symName: __ZN3std9panicking12catch_unwind7do_call17h9646e860128e7b63E, symObjAddr: 0x158, symBinAddr: 0x35100, symSize: 0x90 }
  - { offset: 0xFC951, size: 0x8, addend: 0x0, symName: __ZN3std9panicking12catch_unwind7do_call17ha3bb75022d089d0fE, symObjAddr: 0x1E8, symBinAddr: 0x35190, symSize: 0x90 }
  - { offset: 0xFCA4C, size: 0x8, addend: 0x0, symName: __ZN3std9panicking12catch_unwind7do_call17had71ad54cc03e906E, symObjAddr: 0x278, symBinAddr: 0x35220, symSize: 0x8C }
  - { offset: 0xFCB47, size: 0x8, addend: 0x0, symName: __ZN3std9panicking12catch_unwind7do_call17hc1e62d3e08e11f57E, symObjAddr: 0x304, symBinAddr: 0x352AC, symSize: 0x70 }
  - { offset: 0xFCC10, size: 0x8, addend: 0x0, symName: __ZN3std9panicking12catch_unwind8do_catch17h43090e39a35bb7eeE, symObjAddr: 0x374, symBinAddr: 0x3531C, symSize: 0x70 }
  - { offset: 0xFCCA5, size: 0x8, addend: 0x0, symName: __ZN3std9panicking12catch_unwind8do_catch17h6f3d0c09c4e87d84E, symObjAddr: 0x3E4, symBinAddr: 0x3538C, symSize: 0x70 }
  - { offset: 0xFCD3A, size: 0x8, addend: 0x0, symName: __ZN3std9panicking12catch_unwind8do_catch17h7d63ce35c1a3ae0cE, symObjAddr: 0x454, symBinAddr: 0x353FC, symSize: 0x70 }
  - { offset: 0xFCDCF, size: 0x8, addend: 0x0, symName: __ZN3std9panicking12catch_unwind8do_catch17hbce8757834eeaa95E, symObjAddr: 0x4C4, symBinAddr: 0x3546C, symSize: 0x70 }
  - { offset: 0xFCE64, size: 0x8, addend: 0x0, symName: __ZN3std9panicking12catch_unwind8do_catch17hc4c8ad9230ba2ab9E, symObjAddr: 0x534, symBinAddr: 0x354DC, symSize: 0x70 }
  - { offset: 0xFDC06, size: 0x8, addend: 0x0, symName: '__ZN9hashbrown3raw21RawTable$LT$T$C$A$GT$14reserve_rehash28_$u7b$$u7b$closure$u7d$$u7d$17h6a673105291113e2E', symObjAddr: 0x3710, symBinAddr: 0x37204, symSize: 0xC0 }
  - { offset: 0xFDDEA, size: 0x8, addend: 0x0, symName: '__ZN9hashbrown3raw21RawTable$LT$T$C$A$GT$4find28_$u7b$$u7b$closure$u7d$$u7d$17h9e68c39e794773b5E', symObjAddr: 0x3AE4, symBinAddr: 0x375D8, symSize: 0xC4 }
  - { offset: 0xFE5CC, size: 0x8, addend: 0x0, symName: '__ZN79_$LT$hashbrown..raw..RawTable$LT$T$C$A$GT$$u20$as$u20$core..ops..drop..Drop$GT$4drop17h78fd23292f2acd41E', symObjAddr: 0x138C, symBinAddr: 0x356F4, symSize: 0x3C }
  - { offset: 0xFE7E1, size: 0x8, addend: 0x0, symName: '__ZN9hashbrown3raw13RawTableInner14prepare_resize28_$u7b$$u7b$closure$u7d$$u7d$17hea3bbd014aee0a51E', symObjAddr: 0x177C, symBinAddr: 0x35A0C, symSize: 0xB0 }
  - { offset: 0xFE9B3, size: 0x8, addend: 0x0, symName: '__ZN9hashbrown3raw13RawTableInner15rehash_in_place28_$u7b$$u7b$closure$u7d$$u7d$17h8e15608944dacfc2E', symObjAddr: 0x1C48, symBinAddr: 0x35ED8, symSize: 0x1F8 }
  - { offset: 0xFEE54, size: 0x8, addend: 0x0, symName: __ZN9hashbrown3raw19capacity_to_buckets17h5e7c5c42a142edf4E, symObjAddr: 0x28DC, symBinAddr: 0x36B6C, symSize: 0x2C8 }
  - { offset: 0xFF2EC, size: 0x8, addend: 0x0, symName: '__ZN88_$LT$hashbrown..scopeguard..ScopeGuard$LT$T$C$F$GT$$u20$as$u20$core..ops..drop..Drop$GT$4drop17h09ca9a2d6309a2a2E', symObjAddr: 0x13FC, symBinAddr: 0x35764, symSize: 0x2C }
  - { offset: 0xFF326, size: 0x8, addend: 0x0, symName: '__ZN88_$LT$hashbrown..scopeguard..ScopeGuard$LT$T$C$F$GT$$u20$as$u20$core..ops..drop..Drop$GT$4drop17h3f9c257ba0c50641E', symObjAddr: 0x1428, symBinAddr: 0x35790, symSize: 0x2C }
  - { offset: 0x1001E3, size: 0x8, addend: 0x0, symName: __ZN9hashbrown3raw11TableLayout20calculate_layout_for17hc8f5d501b35319c5E, symObjAddr: 0x152C, symBinAddr: 0x357BC, symSize: 0x220 }
  - { offset: 0x100588, size: 0x8, addend: 0x0, symName: __ZN9hashbrown3raw13RawTableInner13drop_elements17h4fe639bcad668544E, symObjAddr: 0x174C, symBinAddr: 0x359DC, symSize: 0x30 }
  - { offset: 0x100A12, size: 0x8, addend: 0x0, symName: __ZN9hashbrown3raw13RawTableInner15rehash_in_place17h91ce930cc92b941aE, symObjAddr: 0x182C, symBinAddr: 0x35ABC, symSize: 0x41C }
  - { offset: 0x10138C, size: 0x8, addend: 0x0, symName: __ZN9hashbrown3raw13RawTableInner16drop_inner_table17ha2f5decd53601b73E, symObjAddr: 0x1E40, symBinAddr: 0x360D0, symSize: 0xB0 }
  - { offset: 0x10164D, size: 0x8, addend: 0x0, symName: __ZN9hashbrown3raw13RawTableInner16fix_insert_index17h1bada5241d3c37e8E, symObjAddr: 0x1EF0, symBinAddr: 0x36180, symSize: 0x100 }
  - { offset: 0x1018BF, size: 0x8, addend: 0x0, symName: __ZN9hashbrown3raw13RawTableInner17find_insert_index17had3dc5025d853a56E, symObjAddr: 0x1FF0, symBinAddr: 0x36280, symSize: 0xFC }
  - { offset: 0x101A9C, size: 0x8, addend: 0x0, symName: __ZN9hashbrown3raw13RawTableInner17new_uninitialized17h7ccee9bc5ef0555bE, symObjAddr: 0x20EC, symBinAddr: 0x3637C, symSize: 0x2AC }
  - { offset: 0x101DC9, size: 0x8, addend: 0x0, symName: __ZN9hashbrown3raw13RawTableInner22fallible_with_capacity17hd59344c11ff37f91E, symObjAddr: 0x2398, symBinAddr: 0x36628, symSize: 0x220 }
  - { offset: 0x102262, size: 0x8, addend: 0x0, symName: __ZN9hashbrown3raw13RawTableInner23prepare_rehash_in_place17h458bf00c329de6c6E, symObjAddr: 0x25B8, symBinAddr: 0x36848, symSize: 0x204 }
  - { offset: 0x102858, size: 0x8, addend: 0x0, symName: __ZN9hashbrown3raw13RawTableInner26find_insert_index_in_group17hf67ab09c584fafcbE, symObjAddr: 0x27BC, symBinAddr: 0x36A4C, symSize: 0x120 }
  - { offset: 0x10299C, size: 0x8, addend: 0x0, symName: '__ZN9hashbrown3raw21RawIterRange$LT$T$GT$3new17heb65958e3761dab6E', symObjAddr: 0x2BA4, symBinAddr: 0x36E34, symSize: 0x98 }
  - { offset: 0x102C30, size: 0x8, addend: 0x0, symName: '__ZN9hashbrown3raw21RawIterRange$LT$T$GT$9next_impl17h662b89602ecf59f8E', symObjAddr: 0x2C3C, symBinAddr: 0x36ECC, symSize: 0x1B4 }
  - { offset: 0x10314D, size: 0x8, addend: 0x0, symName: '__ZN9hashbrown3raw21RawTable$LT$T$C$A$GT$14insert_no_grow17h2344630ddd02f416E', symObjAddr: 0x2DF0, symBinAddr: 0x37080, symSize: 0x184 }
  - { offset: 0x10395C, size: 0x8, addend: 0x0, symName: '__ZN9hashbrown3raw21RawTable$LT$T$C$A$GT$14reserve_rehash17hac496fbdf4d0d488E', symObjAddr: 0x2F74, symBinAddr: 0xA2894, symSize: 0x79C }
  - { offset: 0x104659, size: 0x8, addend: 0x0, symName: '__ZN9hashbrown3raw21RawTable$LT$T$C$A$GT$4find17he68a35cbd911417aE', symObjAddr: 0x37D0, symBinAddr: 0x372C4, symSize: 0x314 }
  - { offset: 0x104C7C, size: 0x8, addend: 0x0, symName: '__ZN9hashbrown3raw21RawTable$LT$T$C$A$GT$7reserve17hf12f62619f57e488E', symObjAddr: 0x3BA8, symBinAddr: 0x3769C, symSize: 0xB0 }
  - { offset: 0x104EF6, size: 0x8, addend: 0x0, symName: __ZN4pyo38instance12PyNativeType18unchecked_downcast17h6d66d924521b16edE, symObjAddr: 0x38D8, symBinAddr: 0x38B98, symSize: 0x70 }
  - { offset: 0x104F2B, size: 0x8, addend: 0x0, symName: __ZN4pyo38instance12PyNativeType2py17h4283e6367ad391acE, symObjAddr: 0x3B28, symBinAddr: 0x38C08, symSize: 0x20 }
  - { offset: 0x105045, size: 0x8, addend: 0x0, symName: '__ZN81_$LT$pyo3..types..sequence..PySequence$u20$as$u20$pyo3..conversion..PyTryFrom$GT$18try_from_unchecked17h7a2d1af4cd0faef9E', symObjAddr: 0x61B8, symBinAddr: 0x39774, symSize: 0x7C }
  - { offset: 0x1050D4, size: 0x8, addend: 0x0, symName: '__ZN4pyo35types10boolobject65_$LT$impl$u20$pyo3..conversion..FromPyObject$u20$for$u20$bool$GT$7extract17h2bf0422d35eca098E', symObjAddr: 0x2EB0, symBinAddr: 0x38A70, symSize: 0xA8 }
  - { offset: 0x10514E, size: 0x8, addend: 0x0, symName: '__ZN75_$LT$pyo3..types..boolobject..PyBool$u20$as$u20$core..ops..deref..Deref$GT$5deref17h071c8ba1600fc520E', symObjAddr: 0x5E74, symBinAddr: 0x39644, symSize: 0x14 }
  - { offset: 0x105180, size: 0x8, addend: 0x0, symName: '__ZN81_$LT$pyo3..types..boolobject..PyBool$u20$as$u20$pyo3..type_object..PyTypeInfo$GT$10is_type_of17h53ef5db96a1cd637E', symObjAddr: 0x6070, symBinAddr: 0x39744, symSize: 0x30 }
  - { offset: 0x1051E2, size: 0x8, addend: 0x0, symName: '__ZN96_$LT$$RF$pyo3..types..iterator..PyIterator$u20$as$u20$core..iter..traits..iterator..Iterator$GT$4next17hdd589326d3717222E', symObjAddr: 0x6864, symBinAddr: 0x3981C, symSize: 0xA0 }
  - { offset: 0x105601, size: 0x8, addend: 0x0, symName: '__ZN49_$LT$T$u20$as$u20$pyo3..conversion..PyTryFrom$GT$18try_from_unchecked17h7ee1f1e6e151939cE', symObjAddr: 0x1198, symBinAddr: 0x37E90, symSize: 0x30 }
  - { offset: 0x105641, size: 0x8, addend: 0x0, symName: '__ZN49_$LT$T$u20$as$u20$pyo3..conversion..PyTryFrom$GT$8try_from17hb4767891ef1c3526E', symObjAddr: 0x13F0, symBinAddr: 0x37EC0, symSize: 0x98 }
  - { offset: 0x1056A5, size: 0x8, addend: 0x0, symName: __ZN4pyo310conversion13FromPyPointer21from_owned_ptr_or_err17hf425082a3044f988E, symObjAddr: 0x22E0, symBinAddr: 0x38900, symSize: 0x34 }
  - { offset: 0x1056FD, size: 0x8, addend: 0x0, symName: '__ZN53_$LT$T$u20$as$u20$pyo3..conversion..FromPyPointer$GT$21from_owned_ptr_or_opt17h850ae4c9ef48d478E', symObjAddr: 0x3BFC, symBinAddr: 0x38C28, symSize: 0xB4 }
  - { offset: 0x105783, size: 0x8, addend: 0x0, symName: '__ZN4pyo311conversions3std6string119_$LT$impl$u20$pyo3..conversion..IntoPy$LT$pyo3..instance..Py$LT$pyo3..types..any..PyAny$GT$$GT$$u20$for$u20$$RF$str$GT$7into_py17h3639b029bd297d01E', symObjAddr: 0x2A94, symBinAddr: 0x38934, symSize: 0x34 }
  - { offset: 0x1057CE, size: 0x8, addend: 0x0, symName: '__ZN4pyo311conversions3std6string125_$LT$impl$u20$pyo3..conversion..IntoPy$LT$pyo3..instance..Py$LT$pyo3..types..string..PyString$GT$$GT$$u20$for$u20$$RF$str$GT$7into_py17h546de94eb257abcfE', symObjAddr: 0x2AC8, symBinAddr: 0x38968, symSize: 0x34 }
  - { offset: 0x105819, size: 0x8, addend: 0x0, symName: '__ZN4pyo311conversions3std6string62_$LT$impl$u20$pyo3..conversion..ToPyObject$u20$for$u20$str$GT$9to_object17he417e8f2315abe4eE', symObjAddr: 0x2AFC, symBinAddr: 0x3899C, symSize: 0x34 }
  - { offset: 0x105864, size: 0x8, addend: 0x0, symName: '__ZN4pyo311conversions3std6string68_$LT$impl$u20$pyo3..conversion..FromPyObject$u20$for$u20$$RF$str$GT$7extract17ha84419382ff83315E', symObjAddr: 0x2D20, symBinAddr: 0x389D0, symSize: 0xA0 }
  - { offset: 0x106F16, size: 0x8, addend: 0x0, symName: __ZN4core4sync6atomic23atomic_compare_exchange17h2b212c03c41f1cd0E, symObjAddr: 0x1C2C, symBinAddr: 0x382E0, symSize: 0x4B4 }
  - { offset: 0x106FB1, size: 0x8, addend: 0x0, symName: __ZN4core4sync6atomic5fence17h5d2b615c325e3cf8E, symObjAddr: 0x20E0, symBinAddr: 0x38794, symSize: 0xB0 }
  - { offset: 0x1070CA, size: 0x8, addend: 0x0, symName: '__ZN102_$LT$core..iter..adapters..map..Map$LT$I$C$F$GT$$u20$as$u20$core..iter..traits..iterator..Iterator$GT$8try_fold17h0635bbaefa5088acE', symObjAddr: 0xE0, symBinAddr: 0x3774C, symSize: 0x54 }
  - { offset: 0x10716D, size: 0x8, addend: 0x0, symName: '__ZN102_$LT$core..iter..adapters..map..Map$LT$I$C$F$GT$$u20$as$u20$core..iter..traits..iterator..Iterator$GT$9size_hint17ha9163a863bbe960aE', symObjAddr: 0x204, symBinAddr: 0x377A0, symSize: 0x24 }
  - { offset: 0x107235, size: 0x8, addend: 0x0, symName: '__ZN4core4iter8adapters3map12map_try_fold28_$u7b$$u7b$closure$u7d$$u7d$17h6c64abebfa090d06E', symObjAddr: 0x1A74, symBinAddr: 0x38238, symSize: 0xA8 }
  - { offset: 0x107355, size: 0x8, addend: 0x0, symName: __ZN4core4iter6traits8iterator8Iterator7collect17he3e9ea1ae948377cE, symObjAddr: 0x183C, symBinAddr: 0x38224, symSize: 0x14 }
  - { offset: 0x1073A2, size: 0x8, addend: 0x0, symName: '__ZN63_$LT$I$u20$as$u20$core..iter..traits..collect..IntoIterator$GT$9into_iter17h0703961f23328b87E', symObjAddr: 0x3E68, symBinAddr: 0x38CDC, symSize: 0x30 }
  - { offset: 0x108974, size: 0x8, addend: 0x0, symName: __ZN4core4hash3sip9u8to64_le17h6b2d0e0013c724a8E, symObjAddr: 0x1514, symBinAddr: 0x37FE4, symSize: 0x240 }
  - { offset: 0x108B31, size: 0x8, addend: 0x0, symName: '__ZN69_$LT$core..hash..sip..Sip13Rounds$u20$as$u20$core..hash..sip..Sip$GT$8c_rounds17h8daea0cab157fdc2E', symObjAddr: 0x3FE4, symBinAddr: 0x38D0C, symSize: 0x1A0 }
  - { offset: 0x108CA6, size: 0x8, addend: 0x0, symName: '__ZN69_$LT$core..hash..sip..Sip13Rounds$u20$as$u20$core..hash..sip..Sip$GT$8d_rounds17h892ecc7d7558b845E', symObjAddr: 0x4184, symBinAddr: 0x38EAC, symSize: 0x46C }
  - { offset: 0x1090E3, size: 0x8, addend: 0x0, symName: '__ZN71_$LT$core..hash..sip..Hasher$LT$S$GT$$u20$as$u20$core..hash..Hasher$GT$5write17h2416c976c4d59e28E', symObjAddr: 0x4C58, symBinAddr: 0x39318, symSize: 0x230 }
  - { offset: 0x10925C, size: 0x8, addend: 0x0, symName: '__ZN71_$LT$core..hash..sip..Hasher$LT$S$GT$$u20$as$u20$core..hash..Hasher$GT$6finish17h8aeede1576a24fe4E', symObjAddr: 0x4E88, symBinAddr: 0x39548, symSize: 0xA0 }
  - { offset: 0x1092CF, size: 0x8, addend: 0x0, symName: '__ZN71_$LT$core..hash..sip..Hasher$LT$S$GT$$u20$as$u20$core..hash..Hasher$GT$9write_str17h8031e212899c40b2E', symObjAddr: 0x4F28, symBinAddr: 0x395E8, symSize: 0x5C }
  - { offset: 0x109BE9, size: 0x8, addend: 0x0, symName: __ZN8pyo3_ffi11floatobject13PyFloat_Check17h04462bd6f3d9eaacE, symObjAddr: 0x65AC, symBinAddr: 0x397F0, symSize: 0x2C }
  - { offset: 0x10A583, size: 0x8, addend: 0x0, symName: __ZN16parking_lot_core11parking_lot8deadlock16acquire_resource17h1e503ae02d0dbd67E, symObjAddr: 0x600, symBinAddr: 0x377C4, symSize: 0x10 }
  - { offset: 0x10A5AD, size: 0x8, addend: 0x0, symName: __ZN16parking_lot_core11parking_lot8deadlock16release_resource17he8210579680158e5E, symObjAddr: 0x610, symBinAddr: 0x377D4, symSize: 0x10 }
  - { offset: 0x10AAB2, size: 0x8, addend: 0x0, symName: '__ZN3std6thread5local17LocalKey$LT$T$GT$4with17h11c2c17b1eb1efa1E', symObjAddr: 0x620, symBinAddr: 0x377E4, symSize: 0x50 }
  - { offset: 0x10ABB5, size: 0x8, addend: 0x0, symName: '__ZN3std6thread5local17LocalKey$LT$T$GT$4with17h736ea4b07b89b15cE', symObjAddr: 0x6B8, symBinAddr: 0x37834, symSize: 0x70 }
  - { offset: 0x10AC88, size: 0x8, addend: 0x0, symName: '__ZN3std6thread5local17LocalKey$LT$T$GT$8try_with17h425cf56887f81a4bE', symObjAddr: 0x8F4, symBinAddr: 0x378A4, symSize: 0xD8 }
  - { offset: 0x10AE11, size: 0x8, addend: 0x0, symName: '__ZN3std6thread5local17LocalKey$LT$T$GT$8try_with17h67339bfaf7545a2bE', symObjAddr: 0x9CC, symBinAddr: 0x3797C, symSize: 0xD0 }
  - { offset: 0x10AF93, size: 0x8, addend: 0x0, symName: '__ZN3std6thread5local17LocalKey$LT$T$GT$8try_with17h94a6a4dd32e695a6E', symObjAddr: 0xA9C, symBinAddr: 0x37A4C, symSize: 0xCC }
  - { offset: 0x10B114, size: 0x8, addend: 0x0, symName: '__ZN3std6thread5local17LocalKey$LT$T$GT$8try_with17h95393da873435371E', symObjAddr: 0xB68, symBinAddr: 0x37B18, symSize: 0xD8 }
  - { offset: 0x10B296, size: 0x8, addend: 0x0, symName: '__ZN3std6thread5local17LocalKey$LT$T$GT$8try_with17h99c3978cf6f1c2d9E', symObjAddr: 0xC40, symBinAddr: 0x37BF0, symSize: 0xCC }
  - { offset: 0x10B417, size: 0x8, addend: 0x0, symName: '__ZN3std6thread5local17LocalKey$LT$T$GT$8try_with17hc7ea81d9fbca01ccE', symObjAddr: 0xEBC, symBinAddr: 0x37CBC, symSize: 0xEC }
  - { offset: 0x10B5A6, size: 0x8, addend: 0x0, symName: '__ZN3std6thread5local17LocalKey$LT$T$GT$8try_with17hd6091b903e6f8de1E', symObjAddr: 0xFA8, symBinAddr: 0x37DA8, symSize: 0xE8 }
  - { offset: 0x10B6F4, size: 0x8, addend: 0x0, symName: '__ZN4core4hash3sip15Hasher$LT$S$GT$5reset17h76649430a1b496d7E', symObjAddr: 0x1488, symBinAddr: 0x37F58, symSize: 0x8C }
  - { offset: 0x10B764, size: 0x8, addend: 0x0, symName: __ZN4core4sync6atomic8AtomicU816compare_exchange17ha59eb004ab842630E, symObjAddr: 0x2190, symBinAddr: 0x38844, symSize: 0x34 }
  - { offset: 0x10B7C3, size: 0x8, addend: 0x0, symName: __ZN4core4sync6atomic8AtomicU821compare_exchange_weak17h3e27479edcf3cff2E, symObjAddr: 0x21C4, symBinAddr: 0x38878, symSize: 0x34 }
  - { offset: 0x10B822, size: 0x8, addend: 0x0, symName: __ZN4core4sync6atomic8AtomicU84load17h850f447e8e9feaf1E, symObjAddr: 0x21F8, symBinAddr: 0x388AC, symSize: 0x24 }
  - { offset: 0x10B861, size: 0x8, addend: 0x0, symName: __ZN4core4sync6atomic9AtomicI6416compare_exchange17h7444b3933c26be68E, symObjAddr: 0x221C, symBinAddr: 0x388D0, symSize: 0x30 }
  - { offset: 0x10B8CD, size: 0x8, addend: 0x0, symName: __ZN4pyo35types10boolobject6PyBool7is_true17h9ab0b2e6266fed32E, symObjAddr: 0x2F58, symBinAddr: 0x38B18, symSize: 0x40 }
  - { offset: 0x10B909, size: 0x8, addend: 0x0, symName: __ZN4pyo35types8iterator10PyIterator11from_object17h824d01eadfd6449cE, symObjAddr: 0x2F98, symBinAddr: 0x38B58, symSize: 0x40 }
  - { offset: 0x10B954, size: 0x8, addend: 0x0, symName: '__ZN78_$LT$parking_lot..raw_mutex..RawMutex$u20$as$u20$lock_api..mutex..RawMutex$GT$4lock17h21b5221872de27b7E', symObjAddr: 0x5ED8, symBinAddr: 0x39658, symSize: 0x78 }
  - { offset: 0x10B97C, size: 0x8, addend: 0x0, symName: '__ZN78_$LT$parking_lot..raw_mutex..RawMutex$u20$as$u20$lock_api..mutex..RawMutex$GT$6unlock17ha295ff8a15a69b9cE', symObjAddr: 0x5F50, symBinAddr: 0x396D0, symSize: 0x74 }
  - { offset: 0x10B9D0, size: 0x8, addend: 0x0, symName: '__ZN9hashbrown11rustc_entry62_$LT$impl$u20$hashbrown..map..HashMap$LT$K$C$V$C$S$C$A$GT$$GT$11rustc_entry28_$u7b$$u7b$closure$u7d$$u7d$17hfefc0fe3caffdfebE', symObjAddr: 0x695C, symBinAddr: 0x398BC, symSize: 0x38 }
  - { offset: 0x10C552, size: 0x8, addend: 0x0, symName: '__ZN4core3ptr7mut_ptr31_$LT$impl$u20$$BP$mut$u20$T$GT$7is_null17h123f4d42cd6e0a91E', symObjAddr: 0x670, symBinAddr: 0x39CB4, symSize: 0x18 }
  - { offset: 0x10DA5E, size: 0x8, addend: 0x0, symName: __ZN4core3cmp9PartialEq2ne17hcb2dd5e245228dedE, symObjAddr: 0x46C, symBinAddr: 0x39B50, symSize: 0x30 }
  - { offset: 0x10DB35, size: 0x8, addend: 0x0, symName: '__ZN146_$LT$core..ops..range..Range$LT$usize$GT$$u20$as$u20$core..iter..adapters..step_by..SpecRangeSetup$LT$core..ops..range..Range$LT$usize$GT$$GT$$GT$5setup17h983b7c624bbf073dE', symObjAddr: 0x278, symBinAddr: 0x39A24, symSize: 0x110 }
  - { offset: 0x10DC2A, size: 0x8, addend: 0x0, symName: '__ZN63_$LT$I$u20$as$u20$core..iter..traits..collect..IntoIterator$GT$9into_iter17h8374f0e343bfc22dE', symObjAddr: 0x7F4C, symBinAddr: 0x3D68C, symSize: 0x18 }
  - { offset: 0x10EC15, size: 0x8, addend: 0x0, symName: '__ZN4core5array4iter94_$LT$impl$u20$core..iter..traits..collect..IntoIterator$u20$for$u20$$u5b$T$u3b$$u20$N$u5d$$GT$9into_iter17h4e8f65033e2a2ed5E', symObjAddr: 0x6A8, symBinAddr: 0x39CCC, symSize: 0x68 }
  - { offset: 0x10EC87, size: 0x8, addend: 0x0, symName: '__ZN4core5array4iter94_$LT$impl$u20$core..iter..traits..collect..IntoIterator$u20$for$u20$$u5b$T$u3b$$u20$N$u5d$$GT$9into_iter17hc47a7608cc2b1c42E', symObjAddr: 0x710, symBinAddr: 0x39D34, symSize: 0x58 }
  - { offset: 0x10EF7E, size: 0x8, addend: 0x0, symName: '__ZN4core5slice4iter87_$LT$impl$u20$core..iter..traits..collect..IntoIterator$u20$for$u20$$RF$$u5b$T$u5d$$GT$9into_iter17ha0d49992021c1d5aE', symObjAddr: 0x768, symBinAddr: 0x39D8C, symSize: 0x50 }
  - { offset: 0x10F0FF, size: 0x8, addend: 0x0, symName: __ZN4core9core_arch7aarch644neon9generated7vld1_u817h269aa482b0e466eaE, symObjAddr: 0x7B8, symBinAddr: 0x39DDC, symSize: 0x34 }
  - { offset: 0x10F12D, size: 0x8, addend: 0x0, symName: __ZN4core9core_arch7aarch644neon9generated7vst1_u817h8b063f962730ad97E, symObjAddr: 0x7EC, symBinAddr: 0x39E10, symSize: 0x40 }
  - { offset: 0x10F167, size: 0x8, addend: 0x0, symName: __ZN4core9core_arch7aarch644neon9generated8vcgez_s817h9d552e8ddcb0eed7E, symObjAddr: 0x82C, symBinAddr: 0x39E50, symSize: 0x68 }
  - { offset: 0x10F209, size: 0x8, addend: 0x0, symName: __ZN4core9core_arch7aarch644neon9generated8vcltz_s817h75ae818c19362d1cE, symObjAddr: 0x894, symBinAddr: 0x39EB8, symSize: 0x68 }
  - { offset: 0x10F3B4, size: 0x8, addend: 0x0, symName: '__ZN50_$LT$T$u20$as$u20$core..convert..Into$LT$U$GT$$GT$4into17h76cc376431dae5e6E', symObjAddr: 0x7520, symBinAddr: 0x3CE9C, symSize: 0x24 }
  - { offset: 0x10F482, size: 0x8, addend: 0x0, symName: '__ZN4pyo33gil13OWNED_OBJECTS29_$u7b$$u7b$constant$u7d$$u7d$28_$u7b$$u7b$closure$u7d$$u7d$23__RUST_STD_INTERNAL_VAL17h5a85641ce3e2e6dbE', symObjAddr: 0xB8D8, symBinAddr: 0x108EF0, symSize: 0x0 }
  - { offset: 0x10F491, size: 0x8, addend: 0x0, symName: '__ZN4pyo33gil13OWNED_OBJECTS29_$u7b$$u7b$constant$u7d$$u7d$28_$u7b$$u7b$closure$u7d$$u7d$17ha2d46aac80d76d12E', symObjAddr: 0xF0C, symBinAddr: 0x3A1CC, symSize: 0x34 }
  - { offset: 0x10F4DA, size: 0x8, addend: 0x0, symName: __ZN4pyo33gil4POOL17hd0c03592ef498362E, symObjAddr: 0xB938, symBinAddr: 0x1084B8, symSize: 0x0 }
  - { offset: 0x10F54E, size: 0x8, addend: 0x0, symName: __ZN4pyo33gil5START17h8733e2fc6d003f40E, symObjAddr: 0x44F10, symBinAddr: 0x1091F8, symSize: 0x0 }
  - { offset: 0x10F577, size: 0x8, addend: 0x0, symName: '__ZN4pyo33gil9GIL_COUNT29_$u7b$$u7b$constant$u7d$$u7d$28_$u7b$$u7b$closure$u7d$$u7d$23__RUST_STD_INTERNAL_VAL17hd8167f605d449d62E', symObjAddr: 0xB908, symBinAddr: 0x108F08, symSize: 0x0 }
  - { offset: 0x10F586, size: 0x8, addend: 0x0, symName: '__ZN4pyo33gil9GIL_COUNT29_$u7b$$u7b$constant$u7d$$u7d$28_$u7b$$u7b$closure$u7d$$u7d$17hb39e6bb7733eafabE', symObjAddr: 0x1E40, symBinAddr: 0x3B024, symSize: 0x30 }
  - { offset: 0x10F653, size: 0x8, addend: 0x0, symName: __ZN4pyo33gil14register_owned17h7ff213a37c237e2fE, symObjAddr: 0x15A8, symBinAddr: 0x3A868, symSize: 0x68 }
  - { offset: 0x10F6B2, size: 0x8, addend: 0x0, symName: '__ZN4pyo33gil14register_owned28_$u7b$$u7b$closure$u7d$$u7d$17h5d29dfcad685feedE', symObjAddr: 0x1610, symBinAddr: 0x3A8D0, symSize: 0x9C }
  - { offset: 0x10F6F3, size: 0x8, addend: 0x0, symName: '__ZN4pyo33gil15gil_is_acquired28_$u7b$$u7b$closure$u7d$$u7d$17hcf600f13e636c010E', symObjAddr: 0x16AC, symBinAddr: 0x3A96C, symSize: 0x2C }
  - { offset: 0x10F731, size: 0x8, addend: 0x0, symName: __ZN4pyo33gil15register_decref17h6d61e00150557e19E, symObjAddr: 0x16D8, symBinAddr: 0x3A998, symSize: 0x180 }
  - { offset: 0x10F78E, size: 0x8, addend: 0x0, symName: __ZN4pyo33gil15register_incref17h34d7604bf6789963E, symObjAddr: 0x1858, symBinAddr: 0x3AB18, symSize: 0x124 }
  - { offset: 0x10F7F0, size: 0x8, addend: 0x0, symName: '__ZN4pyo33gil19decrement_gil_count28_$u7b$$u7b$closure$u7d$$u7d$17hb5ff9133eb101589E', symObjAddr: 0x197C, symBinAddr: 0x3AC3C, symSize: 0x8C }
  - { offset: 0x10F848, size: 0x8, addend: 0x0, symName: '__ZN4pyo33gil19increment_gil_count28_$u7b$$u7b$closure$u7d$$u7d$17h8e615d73adeaf595E', symObjAddr: 0x1A08, symBinAddr: 0x3ACC8, symSize: 0x74 }
  - { offset: 0x10F89B, size: 0x8, addend: 0x0, symName: __ZN4pyo33gil27prepare_freethreaded_python17hb946b350334f7df0E, symObjAddr: 0x1A7C, symBinAddr: 0x3AD3C, symSize: 0x1C }
  - { offset: 0x10F8B9, size: 0x8, addend: 0x0, symName: '__ZN4pyo33gil27prepare_freethreaded_python28_$u7b$$u7b$closure$u7d$$u7d$17hd6ecb448d67425d9E', symObjAddr: 0x1A98, symBinAddr: 0x3AD58, symSize: 0x38 }
  - { offset: 0x10F906, size: 0x8, addend: 0x0, symName: '__ZN4pyo33gil7GILPool3new28_$u7b$$u7b$closure$u7d$$u7d$17ha5a282d0394cb4a9E', symObjAddr: 0x1B0C, symBinAddr: 0x3ADCC, symSize: 0x94 }
  - { offset: 0x10F99F, size: 0x8, addend: 0x0, symName: '__ZN4pyo33gil8GILGuard7acquire28_$u7b$$u7b$closure$u7d$$u7d$17h204b1f9dd43ecf12E', symObjAddr: 0x1DB0, symBinAddr: 0x3AF94, symSize: 0x90 }
  - { offset: 0x10FA29, size: 0x8, addend: 0x0, symName: '__ZN60_$LT$pyo3..gil..GILPool$u20$as$u20$core..ops..drop..Drop$GT$4drop17hf908e6f60df60daaE', symObjAddr: 0x7B50, symBinAddr: 0x3D2F8, symSize: 0x260 }
  - { offset: 0x10FB05, size: 0x8, addend: 0x0, symName: '__ZN60_$LT$pyo3..gil..GILPool$u20$as$u20$core..ops..drop..Drop$GT$4drop28_$u7b$$u7b$closure$u7d$$u7d$17he230cc4ab67a7289E', symObjAddr: 0x7DB0, symBinAddr: 0x3D558, symSize: 0x100 }
  - { offset: 0x10FB61, size: 0x8, addend: 0x0, symName: '__ZN61_$LT$pyo3..gil..GILGuard$u20$as$u20$core..ops..drop..Drop$GT$4drop17h222eaa0f3fa3ec6bE', symObjAddr: 0x7F18, symBinAddr: 0x3D658, symSize: 0x34 }
  - { offset: 0x10FBA7, size: 0x8, addend: 0x0, symName: __ZN4pyo35types6module7__all__8INTERNED17he9680aa4a9241b89E, symObjAddr: 0xB970, symBinAddr: 0x1084F0, symSize: 0x0 }
  - { offset: 0x10FBB5, size: 0x8, addend: 0x0, symName: __ZN4pyo35types6module7__all__17h0d8c2714bed88fabE, symObjAddr: 0x3108, symBinAddr: 0x3B694, symSize: 0x24 }
  - { offset: 0x10FDAA, size: 0x8, addend: 0x0, symName: '__ZN73_$LT$pyo3..types..module..PyModule$u20$as$u20$core..ops..deref..Deref$GT$5deref17hc5ec9b192277eaedE', symObjAddr: 0x8994, symBinAddr: 0x3D884, symSize: 0x14 }
  - { offset: 0x10FDF7, size: 0x8, addend: 0x0, symName: '__ZN4pyo35types6string146_$LT$impl$u20$core..convert..From$LT$$RF$pyo3..types..string..PyString$GT$$u20$for$u20$pyo3..instance..Py$LT$pyo3..types..string..PyString$GT$$GT$4from17h516881223183c972E', symObjAddr: 0x471C, symBinAddr: 0x3B90C, symSize: 0x38 }
  - { offset: 0x10FE7A, size: 0x8, addend: 0x0, symName: '__ZN4pyo35types10typeobject150_$LT$impl$u20$core..convert..From$LT$$RF$pyo3..types..typeobject..PyType$GT$$u20$for$u20$pyo3..instance..Py$LT$pyo3..types..typeobject..PyType$GT$$GT$4from17h56956feca7f50dc3E', symObjAddr: 0x2FC4, symBinAddr: 0x3B65C, symSize: 0x38 }
  - { offset: 0x1102E8, size: 0x8, addend: 0x0, symName: '__ZN102_$LT$pyo3..instance..Py$LT$pyo3..types..any..PyAny$GT$$u20$as$u20$core..convert..From$LT$$RF$T$GT$$GT$4from17h1512362f0faeffb9E', symObjAddr: 0x50, symBinAddr: 0x398F4, symSize: 0x38 }
  - { offset: 0x11031F, size: 0x8, addend: 0x0, symName: '__ZN102_$LT$pyo3..instance..Py$LT$pyo3..types..any..PyAny$GT$$u20$as$u20$core..convert..From$LT$$RF$T$GT$$GT$4from17h894398cf3db9b1d0E', symObjAddr: 0x88, symBinAddr: 0x3992C, symSize: 0x38 }
  - { offset: 0x110356, size: 0x8, addend: 0x0, symName: '__ZN102_$LT$pyo3..instance..Py$LT$pyo3..types..any..PyAny$GT$$u20$as$u20$core..convert..From$LT$$RF$T$GT$$GT$4from17h96a1ea7b1f7e0e0fE', symObjAddr: 0xC0, symBinAddr: 0x39964, symSize: 0x38 }
  - { offset: 0x11038D, size: 0x8, addend: 0x0, symName: '__ZN102_$LT$pyo3..instance..Py$LT$pyo3..types..any..PyAny$GT$$u20$as$u20$core..convert..From$LT$$RF$T$GT$$GT$4from17hd27de38243634d58E', symObjAddr: 0x168, symBinAddr: 0x3999C, symSize: 0x38 }
  - { offset: 0x1103CA, size: 0x8, addend: 0x0, symName: '__ZN124_$LT$pyo3..instance..Py$LT$pyo3..types..any..PyAny$GT$$u20$as$u20$core..convert..From$LT$pyo3..instance..Py$LT$T$GT$$GT$$GT$4from17hf7ab3c3ec4f1e15eE', symObjAddr: 0x228, symBinAddr: 0x399D4, symSize: 0x28 }
  - { offset: 0x110407, size: 0x8, addend: 0x0, symName: '__ZN129_$LT$pyo3..instance..Py$LT$T$GT$$u20$as$u20$pyo3..conversion..IntoPy$LT$pyo3..instance..Py$LT$pyo3..types..any..PyAny$GT$$GT$$GT$7into_py17h2ef03850485fb190E', symObjAddr: 0x250, symBinAddr: 0x399FC, symSize: 0x28 }
  - { offset: 0x110A88, size: 0x8, addend: 0x0, symName: '__ZN4pyo38instance11Py$LT$T$GT$21from_owned_ptr_or_opt28_$u7b$$u7b$closure$u7d$$u7d$17h958e68d0a4fa6707E', symObjAddr: 0x61B8, symBinAddr: 0x3C1E0, symSize: 0x14 }
  - { offset: 0x110ACA, size: 0x8, addend: 0x0, symName: '__ZN4pyo38instance11Py$LT$T$GT$21from_owned_ptr_or_opt28_$u7b$$u7b$closure$u7d$$u7d$17haa6a3f5bdfd0086eE', symObjAddr: 0x61CC, symBinAddr: 0x3C1F4, symSize: 0x14 }
  - { offset: 0x110B0C, size: 0x8, addend: 0x0, symName: '__ZN4pyo38instance11Py$LT$T$GT$21from_owned_ptr_or_opt28_$u7b$$u7b$closure$u7d$$u7d$17hdf8974699930009bE', symObjAddr: 0x61E0, symBinAddr: 0x3C208, symSize: 0x14 }
  - { offset: 0x110B4E, size: 0x8, addend: 0x0, symName: '__ZN4pyo38instance11Py$LT$T$GT$21from_owned_ptr_or_opt28_$u7b$$u7b$closure$u7d$$u7d$17hf86c22bd861c4cb4E', symObjAddr: 0x61F4, symBinAddr: 0x3C21C, symSize: 0x14 }
  - { offset: 0x110BB2, size: 0x8, addend: 0x0, symName: '__ZN4pyo38instance11Py$LT$T$GT$24from_borrowed_ptr_or_opt28_$u7b$$u7b$closure$u7d$$u7d$17h6348b9f8d02c0e9aE', symObjAddr: 0x6340, symBinAddr: 0x3C334, symSize: 0xF4 }
  - { offset: 0x110C18, size: 0x8, addend: 0x0, symName: '__ZN4pyo38instance11Py$LT$T$GT$24from_borrowed_ptr_or_opt28_$u7b$$u7b$closure$u7d$$u7d$17h65af251b892faef7E', symObjAddr: 0x6434, symBinAddr: 0x3C428, symSize: 0xF4 }
  - { offset: 0x110C7E, size: 0x8, addend: 0x0, symName: '__ZN4pyo38instance11Py$LT$T$GT$24from_borrowed_ptr_or_opt28_$u7b$$u7b$closure$u7d$$u7d$17h9a9a3669061dd95aE', symObjAddr: 0x661C, symBinAddr: 0x3C51C, symSize: 0xF4 }
  - { offset: 0x110CE4, size: 0x8, addend: 0x0, symName: '__ZN4pyo38instance11Py$LT$T$GT$24from_borrowed_ptr_or_opt28_$u7b$$u7b$closure$u7d$$u7d$17hcf0a3ae991542a07E', symObjAddr: 0x6710, symBinAddr: 0x3C610, symSize: 0xF4 }
  - { offset: 0x110D4A, size: 0x8, addend: 0x0, symName: '__ZN4pyo38instance11Py$LT$T$GT$24from_borrowed_ptr_or_opt28_$u7b$$u7b$closure$u7d$$u7d$17hea6939ff9971f9e6E', symObjAddr: 0x6804, symBinAddr: 0x3C704, symSize: 0xF4 }
  - { offset: 0x110DB7, size: 0x8, addend: 0x0, symName: __ZN4pyo38instance12PyNativeType18unchecked_downcast17h913d1b993966f561E, symObjAddr: 0x7420, symBinAddr: 0x3CE2C, symSize: 0x70 }
  - { offset: 0x110DF2, size: 0x8, addend: 0x0, symName: '__ZN66_$LT$pyo3..instance..Py$LT$T$GT$$u20$as$u20$core..clone..Clone$GT$5clone17h2dc8e751092c4b7aE', symObjAddr: 0x7FEC, symBinAddr: 0x3D6A4, symSize: 0x34 }
  - { offset: 0x110E29, size: 0x8, addend: 0x0, symName: '__ZN66_$LT$pyo3..instance..Py$LT$T$GT$$u20$as$u20$core..clone..Clone$GT$5clone17h3ae0f456d3621c4fE', symObjAddr: 0x8020, symBinAddr: 0x3D6D8, symSize: 0x34 }
  - { offset: 0x110E60, size: 0x8, addend: 0x0, symName: '__ZN66_$LT$pyo3..instance..Py$LT$T$GT$$u20$as$u20$core..clone..Clone$GT$5clone17h4524fe5248677534E', symObjAddr: 0x8054, symBinAddr: 0x3D70C, symSize: 0x34 }
  - { offset: 0x110E9D, size: 0x8, addend: 0x0, symName: '__ZN69_$LT$pyo3..instance..Py$LT$T$GT$$u20$as$u20$core..ops..drop..Drop$GT$4drop17h429169126e4c8f73E', symObjAddr: 0x84F8, symBinAddr: 0x3D740, symSize: 0x28 }
  - { offset: 0x110ED0, size: 0x8, addend: 0x0, symName: '__ZN69_$LT$pyo3..instance..Py$LT$T$GT$$u20$as$u20$core..ops..drop..Drop$GT$4drop17h4a37f99c886b3c59E', symObjAddr: 0x8520, symBinAddr: 0x3D768, symSize: 0x28 }
  - { offset: 0x110F03, size: 0x8, addend: 0x0, symName: '__ZN69_$LT$pyo3..instance..Py$LT$T$GT$$u20$as$u20$core..ops..drop..Drop$GT$4drop17h789870cc25a84ea8E', symObjAddr: 0x8598, symBinAddr: 0x3D790, symSize: 0x28 }
  - { offset: 0x110F36, size: 0x8, addend: 0x0, symName: '__ZN69_$LT$pyo3..instance..Py$LT$T$GT$$u20$as$u20$core..ops..drop..Drop$GT$4drop17h905b8dc7b9bd6d4eE', symObjAddr: 0x85E8, symBinAddr: 0x3D7B8, symSize: 0x28 }
  - { offset: 0x110F69, size: 0x8, addend: 0x0, symName: '__ZN69_$LT$pyo3..instance..Py$LT$T$GT$$u20$as$u20$core..ops..drop..Drop$GT$4drop17hef544f6d3a6d73c8E', symObjAddr: 0x8688, symBinAddr: 0x3D7E0, symSize: 0x28 }
  - { offset: 0x110F9C, size: 0x8, addend: 0x0, symName: '__ZN69_$LT$pyo3..instance..Py$LT$T$GT$$u20$as$u20$core..ops..drop..Drop$GT$4drop17hf36bf3ee64cf5df0E', symObjAddr: 0x86B0, symBinAddr: 0x3D808, symSize: 0x28 }
  - { offset: 0x110FCF, size: 0x8, addend: 0x0, symName: '__ZN69_$LT$pyo3..instance..Py$LT$T$GT$$u20$as$u20$core..ops..drop..Drop$GT$4drop17hfadec4b93e05be09E', symObjAddr: 0x86D8, symBinAddr: 0x3D830, symSize: 0x28 }
  - { offset: 0x111008, size: 0x8, addend: 0x0, symName: '__ZN76_$LT$pyo3..instance..Py$LT$T$GT$$u20$as$u20$pyo3..conversion..ToPyObject$GT$9to_object17h5ff2018908462bfcE', symObjAddr: 0x89BC, symBinAddr: 0x3D898, symSize: 0x28 }
  - { offset: 0x111924, size: 0x8, addend: 0x0, symName: __ZN4pyo315internal_tricks16extract_c_string17h1dae18257c673a47E, symObjAddr: 0xA70, symBinAddr: 0x39F20, symSize: 0x20C }
  - { offset: 0x111A11, size: 0x8, addend: 0x0, symName: '__ZN4pyo315internal_tricks16extract_c_string28_$u7b$$u7b$closure$u7d$$u7d$17h97ba5012c999246fE', symObjAddr: 0xC7C, symBinAddr: 0x3A12C, symSize: 0x68 }
  - { offset: 0x111A4A, size: 0x8, addend: 0x0, symName: '__ZN4pyo315internal_tricks16extract_c_string28_$u7b$$u7b$closure$u7d$$u7d$17hc0aa4e5b6517d66aE', symObjAddr: 0xCE4, symBinAddr: 0x3A194, symSize: 0x38 }
  - { offset: 0x111B11, size: 0x8, addend: 0x0, symName: __ZN4pyo35impl_7pyclass17build_pyclass_doc17hcc980951c44dfe96E, symObjAddr: 0x29E4, symBinAddr: 0x3B07C, symSize: 0x1D8 }
  - { offset: 0x111C0B, size: 0x8, addend: 0x0, symName: '__ZN4pyo35impl_7pyclass17build_pyclass_doc28_$u7b$$u7b$closure$u7d$$u7d$17h9f5218bcd8054c3cE', symObjAddr: 0x2BBC, symBinAddr: 0x3B254, symSize: 0x64 }
  - { offset: 0x111C46, size: 0x8, addend: 0x0, symName: __ZN4pyo35impl_7pyclass30get_sequence_item_from_mapping17h2101a6976d6ea416E, symObjAddr: 0x2C20, symBinAddr: 0x3B2B8, symSize: 0x1B4 }
  - { offset: 0x111CE2, size: 0x8, addend: 0x0, symName: __ZN4pyo35impl_7pyclass33assign_sequence_item_from_mapping17h2b61da11b859d0ebE, symObjAddr: 0x2DD4, symBinAddr: 0x3B46C, symSize: 0x1F0 }
  - { offset: 0x111D85, size: 0x8, addend: 0x0, symName: '__ZN97_$LT$pyo3..impl_..pyclass..PyClassItemsIter$u20$as$u20$core..iter..traits..iterator..Iterator$GT$4next17hd2dc1310492786baE', symObjAddr: 0x9C50, symBinAddr: 0x3DFF4, symSize: 0xD0 }
  - { offset: 0x1120E2, size: 0x8, addend: 0x0, symName: '__ZN72_$LT$pyo3..pycell..impl_..BorrowFlag$u20$as$u20$core..cmp..PartialEq$GT$2eq17h8c6f40602bb22a8cE', symObjAddr: 0x8968, symBinAddr: 0x3D858, symSize: 0x2C }
  - { offset: 0x112122, size: 0x8, addend: 0x0, symName: '__ZN96_$LT$pyo3..pycell..impl_..BorrowChecker$u20$as$u20$pyo3..pycell..impl_..PyClassBorrowChecker$GT$10try_borrow17hfc3d42d93c77f6bcE', symObjAddr: 0x9AA4, symBinAddr: 0x3DF40, symSize: 0x78 }
  - { offset: 0x11216B, size: 0x8, addend: 0x0, symName: '__ZN96_$LT$pyo3..pycell..impl_..BorrowChecker$u20$as$u20$pyo3..pycell..impl_..PyClassBorrowChecker$GT$14release_borrow17hbe1ea0a6750d260dE', symObjAddr: 0x9B1C, symBinAddr: 0x3DFB8, symSize: 0x3C }
  - { offset: 0x112936, size: 0x8, addend: 0x0, symName: '__ZN77_$LT$alloc..raw_vec..RawVec$LT$T$C$A$GT$$u20$as$u20$core..ops..drop..Drop$GT$4drop17h20ae36bc6b36e51aE', symObjAddr: 0x89E4, symBinAddr: 0x3D8C0, symSize: 0x34 }
  - { offset: 0x112972, size: 0x8, addend: 0x0, symName: '__ZN77_$LT$alloc..raw_vec..RawVec$LT$T$C$A$GT$$u20$as$u20$core..ops..drop..Drop$GT$4drop17h4314ea16e11b8d4dE', symObjAddr: 0x8A18, symBinAddr: 0x3D8F4, symSize: 0x34 }
  - { offset: 0x1129AE, size: 0x8, addend: 0x0, symName: '__ZN77_$LT$alloc..raw_vec..RawVec$LT$T$C$A$GT$$u20$as$u20$core..ops..drop..Drop$GT$4drop17h4eac8c680687d2e5E', symObjAddr: 0x8A4C, symBinAddr: 0x3D928, symSize: 0x34 }
  - { offset: 0x1129EA, size: 0x8, addend: 0x0, symName: '__ZN77_$LT$alloc..raw_vec..RawVec$LT$T$C$A$GT$$u20$as$u20$core..ops..drop..Drop$GT$4drop17h56ff3508f4e049b3E', symObjAddr: 0x8A80, symBinAddr: 0x3D95C, symSize: 0x34 }
  - { offset: 0x112A26, size: 0x8, addend: 0x0, symName: '__ZN77_$LT$alloc..raw_vec..RawVec$LT$T$C$A$GT$$u20$as$u20$core..ops..drop..Drop$GT$4drop17h59582930812141fbE', symObjAddr: 0x8AB4, symBinAddr: 0x3D990, symSize: 0x30 }
  - { offset: 0x112A62, size: 0x8, addend: 0x0, symName: '__ZN77_$LT$alloc..raw_vec..RawVec$LT$T$C$A$GT$$u20$as$u20$core..ops..drop..Drop$GT$4drop17h8c4daea88aa97f56E', symObjAddr: 0x8AE4, symBinAddr: 0x3D9C0, symSize: 0x34 }
  - { offset: 0x112A9E, size: 0x8, addend: 0x0, symName: '__ZN77_$LT$alloc..raw_vec..RawVec$LT$T$C$A$GT$$u20$as$u20$core..ops..drop..Drop$GT$4drop17h97339713952ed518E', symObjAddr: 0x8B18, symBinAddr: 0x3D9F4, symSize: 0x34 }
  - { offset: 0x112ADA, size: 0x8, addend: 0x0, symName: '__ZN77_$LT$alloc..raw_vec..RawVec$LT$T$C$A$GT$$u20$as$u20$core..ops..drop..Drop$GT$4drop17hb840d85551361f53E', symObjAddr: 0x8B4C, symBinAddr: 0x3DA28, symSize: 0x30 }
  - { offset: 0x112B16, size: 0x8, addend: 0x0, symName: '__ZN77_$LT$alloc..raw_vec..RawVec$LT$T$C$A$GT$$u20$as$u20$core..ops..drop..Drop$GT$4drop17hc2bcff28fd09c201E', symObjAddr: 0x8B7C, symBinAddr: 0x3DA58, symSize: 0x34 }
  - { offset: 0x112B52, size: 0x8, addend: 0x0, symName: '__ZN77_$LT$alloc..raw_vec..RawVec$LT$T$C$A$GT$$u20$as$u20$core..ops..drop..Drop$GT$4drop17hccfa0814c4db94daE', symObjAddr: 0x8BB0, symBinAddr: 0x3DA8C, symSize: 0x34 }
  - { offset: 0x112F3D, size: 0x8, addend: 0x0, symName: __ZN8pyo3_ffi6object10_Py_NewRef17h6ab8bd0b55c26e29E, symObjAddr: 0x9354, symBinAddr: 0x3DAC0, symSize: 0xE4 }
  - { offset: 0x112F89, size: 0x8, addend: 0x0, symName: __ZN8pyo3_ffi6object12PyType_Check17h2992185783959b76E, symObjAddr: 0x9438, symBinAddr: 0x3DBA4, symSize: 0x30 }
  - { offset: 0x112FB7, size: 0x8, addend: 0x0, symName: __ZN8pyo3_ffi6object17PyType_HasFeature17hd560e36e0876a90dE, symObjAddr: 0x9468, symBinAddr: 0x3DBD4, symSize: 0x88 }
  - { offset: 0x112FF4, size: 0x8, addend: 0x0, symName: __ZN8pyo3_ffi6object18PyObject_TypeCheck17h0f799b8bf8727781E, symObjAddr: 0x94FC, symBinAddr: 0x3DC5C, symSize: 0x74 }
  - { offset: 0x113031, size: 0x8, addend: 0x0, symName: __ZN8pyo3_ffi6object19PyType_FastSubclass17hba4a6489a8b2636eE, symObjAddr: 0x9570, symBinAddr: 0x3DCD0, symSize: 0x28 }
  - { offset: 0x11306E, size: 0x8, addend: 0x0, symName: __ZN8pyo3_ffi6object7Py_SIZE17h02828a796be8550bE, symObjAddr: 0x95A4, symBinAddr: 0x3DCF8, symSize: 0x1D4 }
  - { offset: 0x11311C, size: 0x8, addend: 0x0, symName: __ZN8pyo3_ffi6object7Py_TYPE17h4b9d6f882c0bd328E, symObjAddr: 0x9778, symBinAddr: 0x3DECC, symSize: 0x74 }
  - { offset: 0x113EA3, size: 0x8, addend: 0x0, symName: __ZN3std6thread6thread6Thread2id17heebea025ff8811a0E, symObjAddr: 0x388, symBinAddr: 0x39B34, symSize: 0x1C }
  - { offset: 0x113FCB, size: 0x8, addend: 0x0, symName: __ZN4core3fmt2rt8Argument11new_display17h28c3df8696e00badE, symObjAddr: 0x49C, symBinAddr: 0x39B80, symSize: 0x2C }
  - { offset: 0x113FF6, size: 0x8, addend: 0x0, symName: __ZN4core3fmt2rt8Argument11new_display17h3e872e96b4af3ddcE, symObjAddr: 0x4C8, symBinAddr: 0x39BAC, symSize: 0x2C }
  - { offset: 0x11403B, size: 0x8, addend: 0x0, symName: __ZN4core3fmt2rt8Argument11new_display17h965d23c8a21141faE, symObjAddr: 0x4F4, symBinAddr: 0x39BD8, symSize: 0x2C }
  - { offset: 0x114073, size: 0x8, addend: 0x0, symName: __ZN4core3fmt2rt8Argument11new_display17ha139e7f8c32e0336E, symObjAddr: 0x520, symBinAddr: 0x39C04, symSize: 0x2C }
  - { offset: 0x1140B8, size: 0x8, addend: 0x0, symName: __ZN4core3fmt2rt8Argument11new_display17ha14646d00645e958E, symObjAddr: 0x54C, symBinAddr: 0x39C30, symSize: 0x2C }
  - { offset: 0x11410A, size: 0x8, addend: 0x0, symName: __ZN4core3fmt2rt8Argument11new_display17hf2cd125536dd52feE, symObjAddr: 0x5D0, symBinAddr: 0x39C5C, symSize: 0x2C }
  - { offset: 0x11418A, size: 0x8, addend: 0x0, symName: __ZN4core3fmt2rt8Argument11new_display17hf96329cdc6b7b68bE, symObjAddr: 0x5FC, symBinAddr: 0x39C88, symSize: 0x2C }
  - { offset: 0x11440B, size: 0x8, addend: 0x0, symName: __ZN4pyo33gil13ReferencePool13update_counts17h6f85665f8a50f58cE, symObjAddr: 0xF40, symBinAddr: 0x3A200, symSize: 0x54C }
  - { offset: 0x11455D, size: 0x8, addend: 0x0, symName: __ZN4pyo33gil13ReferencePool15register_decref17hb9b9e10ac9a83f13E, symObjAddr: 0x148C, symBinAddr: 0x3A74C, symSize: 0x90 }
  - { offset: 0x11458F, size: 0x8, addend: 0x0, symName: __ZN4pyo33gil13ReferencePool15register_incref17hec84b1a9056dc2dbE, symObjAddr: 0x151C, symBinAddr: 0x3A7DC, symSize: 0x8C }
  - { offset: 0x1145C1, size: 0x8, addend: 0x0, symName: __ZN4pyo33gil7GILPool3new17he616e035988a18f5E, symObjAddr: 0x1AD0, symBinAddr: 0x3AD90, symSize: 0x3C }
  - { offset: 0x1145F7, size: 0x8, addend: 0x0, symName: __ZN4pyo33gil7GILPool6python17hf9eaf68d6fe45946E, symObjAddr: 0x1BA0, symBinAddr: 0x3AE60, symSize: 0x20 }
  - { offset: 0x11461A, size: 0x8, addend: 0x0, symName: __ZN4pyo33gil7LockGIL4bail17h9915dd62b4bd9ffcE, symObjAddr: 0x1C40, symBinAddr: 0xA3030, symSize: 0x5C }
  - { offset: 0x11463D, size: 0x8, addend: 0x0, symName: __ZN4pyo33gil8GILGuard17acquire_unchecked17h8a1e94b066ca1ff7E, symObjAddr: 0x1C9C, symBinAddr: 0x3AE80, symSize: 0x94 }
  - { offset: 0x11469F, size: 0x8, addend: 0x0, symName: __ZN4pyo33gil8GILGuard7acquire17h089c123673b8b7edE, symObjAddr: 0x1D30, symBinAddr: 0x3AF14, symSize: 0x80 }
  - { offset: 0x11477D, size: 0x8, addend: 0x0, symName: __ZN4pyo35impl_7pyclass16PyClassItemsIter3new17hd5d8c14d619cd8edE, symObjAddr: 0x2780, symBinAddr: 0x3B054, symSize: 0x28 }
  - { offset: 0x1147FF, size: 0x8, addend: 0x0, symName: __ZN4pyo35types6module8PyModule5index17ha6a9e57655a68d11E, symObjAddr: 0x3CC4, symBinAddr: 0x3B6B8, symSize: 0x254 }
  - { offset: 0x1148E8, size: 0x8, addend: 0x0, symName: __ZN4pyo36marker6Python14from_owned_ptr17h1d21ef67cb312c24E, symObjAddr: 0x4C04, symBinAddr: 0x3B944, symSize: 0x24 }
  - { offset: 0x11493C, size: 0x8, addend: 0x0, symName: __ZN4pyo36marker6Python14from_owned_ptr17h544d0b412a3e4c8aE, symObjAddr: 0x4C94, symBinAddr: 0x3B968, symSize: 0x24 }
  - { offset: 0x114983, size: 0x8, addend: 0x0, symName: __ZN4pyo36marker6Python14from_owned_ptr17h82f9fa6a83915af4E, symObjAddr: 0x4CB8, symBinAddr: 0x3B98C, symSize: 0x24 }
  - { offset: 0x1149CA, size: 0x8, addend: 0x0, symName: __ZN4pyo36marker6Python14from_owned_ptr17ha36f5c052a97eec1E, symObjAddr: 0x4CDC, symBinAddr: 0x3B9B0, symSize: 0x24 }
  - { offset: 0x114A2B, size: 0x8, addend: 0x0, symName: __ZN4pyo36marker6Python14from_owned_ptr17hd29afe10d99c0cd6E, symObjAddr: 0x4D24, symBinAddr: 0x3B9D4, symSize: 0x24 }
  - { offset: 0x114A7F, size: 0x8, addend: 0x0, symName: __ZN4pyo36marker6Python14from_owned_ptr17hd883843e35eee8ddE, symObjAddr: 0x4D6C, symBinAddr: 0x3B9F8, symSize: 0x24 }
  - { offset: 0x114AED, size: 0x8, addend: 0x0, symName: __ZN4pyo36marker6Python17from_borrowed_ptr17h573b9b6dee1aa308E, symObjAddr: 0x4DD8, symBinAddr: 0x3BA1C, symSize: 0x24 }
  - { offset: 0x114B41, size: 0x8, addend: 0x0, symName: __ZN4pyo36marker6Python17from_borrowed_ptr17h6b6afe10e41ffcebE, symObjAddr: 0x4DFC, symBinAddr: 0x3BA40, symSize: 0x24 }
  - { offset: 0x114B88, size: 0x8, addend: 0x0, symName: __ZN4pyo36marker6Python17from_borrowed_ptr17ha1bbbb2b56d644a9E, symObjAddr: 0x4E20, symBinAddr: 0x3BA64, symSize: 0x24 }
  - { offset: 0x114BCF, size: 0x8, addend: 0x0, symName: __ZN4pyo36marker6Python19assume_gil_acquired17h2154bc55aa9c13bfE, symObjAddr: 0x4E44, symBinAddr: 0x3BA88, symSize: 0x4 }
  - { offset: 0x114C23, size: 0x8, addend: 0x0, symName: __ZN4pyo36marker6Python21from_owned_ptr_or_err17h60cf34b49997a49fE, symObjAddr: 0x4F44, symBinAddr: 0x3BA8C, symSize: 0x24 }
  - { offset: 0x114C84, size: 0x8, addend: 0x0, symName: __ZN4pyo36marker6Python21from_owned_ptr_or_err17hf7c712f653520e53E, symObjAddr: 0x5040, symBinAddr: 0x3BAB0, symSize: 0x24 }
  - { offset: 0x114CCB, size: 0x8, addend: 0x0, symName: __ZN4pyo36marker6Python21from_owned_ptr_or_opt17h19356c86f524726aE, symObjAddr: 0x50AC, symBinAddr: 0x3BAD4, symSize: 0x24 }
  - { offset: 0x114D12, size: 0x8, addend: 0x0, symName: __ZN4pyo36marker6Python8get_type17hc8274a64a8de0b6bE, symObjAddr: 0x52F4, symBinAddr: 0x3BAF8, symSize: 0x1C }
  - { offset: 0x114D4A, size: 0x8, addend: 0x0, symName: __ZN4pyo36marker6Python8with_gil17h6f35ce0347c78457E, symObjAddr: 0x5928, symBinAddr: 0x3BB14, symSize: 0xDC }
  - { offset: 0x114D95, size: 0x8, addend: 0x0, symName: __ZN4pyo36marker6Python8with_gil17hf2a680eddd4dc11dE, symObjAddr: 0x5A04, symBinAddr: 0x3BBF0, symSize: 0xDC }
  - { offset: 0x114DE0, size: 0x8, addend: 0x0, symName: __ZN4pyo36pycell5impl_10BorrowFlag9decrement17h94a2a6614665ced3E, symObjAddr: 0x5AE0, symBinAddr: 0x3BCCC, symSize: 0x40 }
  - { offset: 0x114E02, size: 0x8, addend: 0x0, symName: __ZN4pyo36pycell5impl_10BorrowFlag9increment17h7fec7a8360818896E, symObjAddr: 0x5B20, symBinAddr: 0x3BD0C, symSize: 0x40 }
  - { offset: 0x114E24, size: 0x8, addend: 0x0, symName: '__ZN4pyo38instance11Py$LT$T$GT$13from_non_null17h0e8d829cfb954568E', symObjAddr: 0x5B60, symBinAddr: 0x3BD4C, symSize: 0x14 }
  - { offset: 0x114E50, size: 0x8, addend: 0x0, symName: '__ZN4pyo38instance11Py$LT$T$GT$13into_non_null17h844129810e73f248E', symObjAddr: 0x5B74, symBinAddr: 0x3BD60, symSize: 0x34 }
  - { offset: 0x114E9A, size: 0x8, addend: 0x0, symName: '__ZN4pyo38instance11Py$LT$T$GT$13into_non_null17he42c805ec3f8668eE', symObjAddr: 0x5BDC, symBinAddr: 0x3BD94, symSize: 0x34 }
  - { offset: 0x114EE4, size: 0x8, addend: 0x0, symName: '__ZN4pyo38instance11Py$LT$T$GT$14from_owned_ptr17h63e74110a62fa8b0E', symObjAddr: 0x5C58, symBinAddr: 0x3BDC8, symSize: 0x48 }
  - { offset: 0x114F2B, size: 0x8, addend: 0x0, symName: '__ZN4pyo38instance11Py$LT$T$GT$14from_owned_ptr17h8308785077889d1dE', symObjAddr: 0x5CA0, symBinAddr: 0x3BE10, symSize: 0x48 }
  - { offset: 0x114F72, size: 0x8, addend: 0x0, symName: '__ZN4pyo38instance11Py$LT$T$GT$17from_borrowed_ptr17h1d174bbdcbe6d148E', symObjAddr: 0x5CE8, symBinAddr: 0x3BE58, symSize: 0x48 }
  - { offset: 0x114FB9, size: 0x8, addend: 0x0, symName: '__ZN4pyo38instance11Py$LT$T$GT$17from_borrowed_ptr17h3d602f50f1df3757E', symObjAddr: 0x5D30, symBinAddr: 0x3BEA0, symSize: 0x48 }
  - { offset: 0x115000, size: 0x8, addend: 0x0, symName: '__ZN4pyo38instance11Py$LT$T$GT$17from_borrowed_ptr17h789df6a879b95ab3E', symObjAddr: 0x5DC0, symBinAddr: 0x3BEE8, symSize: 0x48 }
  - { offset: 0x115047, size: 0x8, addend: 0x0, symName: '__ZN4pyo38instance11Py$LT$T$GT$17from_borrowed_ptr17h921d34fb521d4356E', symObjAddr: 0x5E08, symBinAddr: 0x3BF30, symSize: 0x48 }
  - { offset: 0x11508E, size: 0x8, addend: 0x0, symName: '__ZN4pyo38instance11Py$LT$T$GT$17from_borrowed_ptr17h93309ec65913d693E', symObjAddr: 0x5E50, symBinAddr: 0x3BF78, symSize: 0x48 }
  - { offset: 0x1150D5, size: 0x8, addend: 0x0, symName: '__ZN4pyo38instance11Py$LT$T$GT$21from_owned_ptr_or_err17h042e8e4c508a19caE', symObjAddr: 0x5E98, symBinAddr: 0x3BFC0, symSize: 0x80 }
  - { offset: 0x11513A, size: 0x8, addend: 0x0, symName: '__ZN4pyo38instance11Py$LT$T$GT$21from_owned_ptr_or_err17h6e3e708664c39a4aE', symObjAddr: 0x5F98, symBinAddr: 0x3C040, symSize: 0x80 }
  - { offset: 0x11519F, size: 0x8, addend: 0x0, symName: '__ZN4pyo38instance11Py$LT$T$GT$21from_owned_ptr_or_err17ha550bd271f80fd27E', symObjAddr: 0x6098, symBinAddr: 0x3C0C0, symSize: 0x80 }
  - { offset: 0x115204, size: 0x8, addend: 0x0, symName: '__ZN4pyo38instance11Py$LT$T$GT$21from_owned_ptr_or_opt17h2c777edcbd73466bE', symObjAddr: 0x6118, symBinAddr: 0x3C140, symSize: 0x28 }
  - { offset: 0x11524B, size: 0x8, addend: 0x0, symName: '__ZN4pyo38instance11Py$LT$T$GT$21from_owned_ptr_or_opt17h7afd40908cbe5a55E', symObjAddr: 0x6140, symBinAddr: 0x3C168, symSize: 0x28 }
  - { offset: 0x115292, size: 0x8, addend: 0x0, symName: '__ZN4pyo38instance11Py$LT$T$GT$21from_owned_ptr_or_opt17ha393fa82252fc0e7E', symObjAddr: 0x6168, symBinAddr: 0x3C190, symSize: 0x28 }
  - { offset: 0x1152D9, size: 0x8, addend: 0x0, symName: '__ZN4pyo38instance11Py$LT$T$GT$21from_owned_ptr_or_opt17hcdaac7515e9aa236E', symObjAddr: 0x6190, symBinAddr: 0x3C1B8, symSize: 0x28 }
  - { offset: 0x115320, size: 0x8, addend: 0x0, symName: '__ZN4pyo38instance11Py$LT$T$GT$24from_borrowed_ptr_or_opt17h2748d709bad6e3a7E', symObjAddr: 0x6208, symBinAddr: 0x3C230, symSize: 0x34 }
  - { offset: 0x115367, size: 0x8, addend: 0x0, symName: '__ZN4pyo38instance11Py$LT$T$GT$24from_borrowed_ptr_or_opt17h505fc74fc9c73b7aE', symObjAddr: 0x623C, symBinAddr: 0x3C264, symSize: 0x34 }
  - { offset: 0x1153AE, size: 0x8, addend: 0x0, symName: '__ZN4pyo38instance11Py$LT$T$GT$24from_borrowed_ptr_or_opt17h72c01a3c311d2f4cE', symObjAddr: 0x62A4, symBinAddr: 0x3C298, symSize: 0x34 }
  - { offset: 0x1153F5, size: 0x8, addend: 0x0, symName: '__ZN4pyo38instance11Py$LT$T$GT$24from_borrowed_ptr_or_opt17h8c54e83593787edbE', symObjAddr: 0x62D8, symBinAddr: 0x3C2CC, symSize: 0x34 }
  - { offset: 0x11543C, size: 0x8, addend: 0x0, symName: '__ZN4pyo38instance11Py$LT$T$GT$24from_borrowed_ptr_or_opt17he64e92faad5015b3E', symObjAddr: 0x630C, symBinAddr: 0x3C300, symSize: 0x34 }
  - { offset: 0x115490, size: 0x8, addend: 0x0, symName: '__ZN4pyo38instance11Py$LT$T$GT$6as_ptr17h429008254079fb5cE', symObjAddr: 0x694C, symBinAddr: 0x3C7F8, symSize: 0x1C }
  - { offset: 0x1154C9, size: 0x8, addend: 0x0, symName: '__ZN4pyo38instance11Py$LT$T$GT$6as_ptr17h548166c52a358838E', symObjAddr: 0x6968, symBinAddr: 0x3C814, symSize: 0x1C }
  - { offset: 0x115502, size: 0x8, addend: 0x0, symName: '__ZN4pyo38instance11Py$LT$T$GT$6as_ptr17h6df3521e1bda6d67E', symObjAddr: 0x6984, symBinAddr: 0x3C830, symSize: 0x1C }
  - { offset: 0x11553B, size: 0x8, addend: 0x0, symName: '__ZN4pyo38instance11Py$LT$T$GT$6as_ptr17h75813f5776b217a4E', symObjAddr: 0x69A0, symBinAddr: 0x3C84C, symSize: 0x1C }
  - { offset: 0x115574, size: 0x8, addend: 0x0, symName: '__ZN4pyo38instance11Py$LT$T$GT$6as_ptr17hc4794b08699a89ddE', symObjAddr: 0x69F4, symBinAddr: 0x3C868, symSize: 0x1C }
  - { offset: 0x1155AD, size: 0x8, addend: 0x0, symName: '__ZN4pyo38instance11Py$LT$T$GT$6as_ptr17hc8c098b2ac6197bbE', symObjAddr: 0x6A10, symBinAddr: 0x3C884, symSize: 0x1C }
  - { offset: 0x1155E6, size: 0x8, addend: 0x0, symName: '__ZN4pyo38instance11Py$LT$T$GT$6as_ptr17he44a51c029173b8fE', symObjAddr: 0x6A48, symBinAddr: 0x3C8A0, symSize: 0x1C }
  - { offset: 0x115612, size: 0x8, addend: 0x0, symName: '__ZN4pyo38instance11Py$LT$T$GT$6as_ref17h0ab61257d0f2cf6aE', symObjAddr: 0x6ADC, symBinAddr: 0x3C8BC, symSize: 0x78 }
  - { offset: 0x11566F, size: 0x8, addend: 0x0, symName: '__ZN4pyo38instance11Py$LT$T$GT$6as_ref17h0c5f19e162441102E', symObjAddr: 0x6B54, symBinAddr: 0x3C934, symSize: 0x78 }
  - { offset: 0x1156CC, size: 0x8, addend: 0x0, symName: '__ZN4pyo38instance11Py$LT$T$GT$6as_ref17h162dba9da25715e5E', symObjAddr: 0x6BCC, symBinAddr: 0x3C9AC, symSize: 0x78 }
  - { offset: 0x115729, size: 0x8, addend: 0x0, symName: '__ZN4pyo38instance11Py$LT$T$GT$6as_ref17ha64ddc61fd5d7f15E', symObjAddr: 0x6C44, symBinAddr: 0x3CA24, symSize: 0x78 }
  - { offset: 0x115786, size: 0x8, addend: 0x0, symName: '__ZN4pyo38instance11Py$LT$T$GT$6as_ref17hbb9ea3457597235fE', symObjAddr: 0x6CBC, symBinAddr: 0x3CA9C, symSize: 0x78 }
  - { offset: 0x1157F0, size: 0x8, addend: 0x0, symName: '__ZN4pyo38instance11Py$LT$T$GT$6as_ref17heaeed52733d7bc89E', symObjAddr: 0x6D34, symBinAddr: 0x3CB14, symSize: 0x78 }
  - { offset: 0x11584D, size: 0x8, addend: 0x0, symName: '__ZN4pyo38instance11Py$LT$T$GT$8into_ptr17h00a753e895908aabE', symObjAddr: 0x6F38, symBinAddr: 0x3CB8C, symSize: 0x88 }
  - { offset: 0x1158B5, size: 0x8, addend: 0x0, symName: '__ZN4pyo38instance11Py$LT$T$GT$8into_ptr17h4ce4fd8912adf23fE', symObjAddr: 0x7048, symBinAddr: 0x3CC14, symSize: 0x88 }
  - { offset: 0x11591D, size: 0x8, addend: 0x0, symName: '__ZN4pyo38instance11Py$LT$T$GT$8into_ptr17ha3d55053cf5048c6E', symObjAddr: 0x7158, symBinAddr: 0x3CC9C, symSize: 0x88 }
  - { offset: 0x115985, size: 0x8, addend: 0x0, symName: '__ZN4pyo38instance11Py$LT$T$GT$8into_ptr17hcfdb8d3513bccba4E', symObjAddr: 0x72F0, symBinAddr: 0x3CD24, symSize: 0x88 }
  - { offset: 0x1159ED, size: 0x8, addend: 0x0, symName: '__ZN4pyo38instance11Py$LT$T$GT$8into_ref17hedfa4f53ec6574b6E', symObjAddr: 0x73A0, symBinAddr: 0x3CDAC, symSize: 0x28 }
  - { offset: 0x115A34, size: 0x8, addend: 0x0, symName: '__ZN4pyo38instance11Py$LT$T$GT$9clone_ref17h32fdab700cdf67f0E', symObjAddr: 0x73C8, symBinAddr: 0x3CDD4, symSize: 0x2C }
  - { offset: 0x115A7B, size: 0x8, addend: 0x0, symName: '__ZN4pyo38instance11Py$LT$T$GT$9clone_ref17h8308883518e48e6fE', symObjAddr: 0x73F4, symBinAddr: 0x3CE00, symSize: 0x2C }
  - { offset: 0x115B14, size: 0x8, addend: 0x0, symName: '__ZN5alloc7raw_vec19RawVec$LT$T$C$A$GT$8grow_one17h08329cde290d9519E', symObjAddr: 0x7718, symBinAddr: 0x3CEC0, symSize: 0x88 }
  - { offset: 0x115BC4, size: 0x8, addend: 0x0, symName: '__ZN5alloc7raw_vec19RawVec$LT$T$C$A$GT$8grow_one17h14efca690b15f1cbE', symObjAddr: 0x77A0, symBinAddr: 0x3CF48, symSize: 0x88 }
  - { offset: 0x115C74, size: 0x8, addend: 0x0, symName: '__ZN5alloc7raw_vec19RawVec$LT$T$C$A$GT$8grow_one17h30bac6d118bf7eebE', symObjAddr: 0x7828, symBinAddr: 0x3CFD0, symSize: 0x84 }
  - { offset: 0x115D69, size: 0x8, addend: 0x0, symName: '__ZN5alloc7raw_vec19RawVec$LT$T$C$A$GT$8grow_one17h45a7fde4ca858d66E', symObjAddr: 0x78AC, symBinAddr: 0x3D054, symSize: 0x88 }
  - { offset: 0x115E19, size: 0x8, addend: 0x0, symName: '__ZN5alloc7raw_vec19RawVec$LT$T$C$A$GT$8grow_one17h4d8e590cfafe0c31E', symObjAddr: 0x7934, symBinAddr: 0x3D0DC, symSize: 0x88 }
  - { offset: 0x115EC9, size: 0x8, addend: 0x0, symName: '__ZN5alloc7raw_vec19RawVec$LT$T$C$A$GT$8grow_one17hacb275b615d46da0E', symObjAddr: 0x79BC, symBinAddr: 0x3D164, symSize: 0x88 }
  - { offset: 0x115F86, size: 0x8, addend: 0x0, symName: '__ZN5alloc7raw_vec19RawVec$LT$T$C$A$GT$8grow_one17he63aabad3daad272E', symObjAddr: 0x7A44, symBinAddr: 0x3D1EC, symSize: 0x88 }
  - { offset: 0x116036, size: 0x8, addend: 0x0, symName: '__ZN5alloc7raw_vec19RawVec$LT$T$C$A$GT$8grow_one17hee86b4c919f709abE', symObjAddr: 0x7ACC, symBinAddr: 0x3D274, symSize: 0x84 }
  - { offset: 0x11630F, size: 0x8, addend: 0x0, symName: '__ZN100_$LT$core..array..iter..iter_inner..PolymorphicIter$LT$DATA$GT$$u20$as$u20$core..ops..drop..Drop$GT$4drop17h3c1745f4ab84e7f9E', symObjAddr: 0x0, symBinAddr: 0x3E0C4, symSize: 0x30 }
  - { offset: 0x1168F8, size: 0x8, addend: 0x0, symName: '__ZN70_$LT$core..num..error..TryFromIntError$u20$as$u20$core..fmt..Debug$GT$3fmt17h0ad9e14c0f537f87E', symObjAddr: 0x7450, symBinAddr: 0x3F294, symSize: 0x54 }
  - { offset: 0x11786C, size: 0x8, addend: 0x0, symName: __ZN4core3cmp9PartialEq2ne17h7c81c44cb45526a3E, symObjAddr: 0x714, symBinAddr: 0x3E2B0, symSize: 0x30 }
  - { offset: 0x1179F6, size: 0x8, addend: 0x0, symName: '__ZN100_$LT$core..array..iter..iter_inner..PolymorphicIter$LT$DATA$GT$$u20$as$u20$core..ops..drop..Drop$GT$4drop17h3c1745f4ab84e7f9E', symObjAddr: 0x0, symBinAddr: 0x3E0C4, symSize: 0x30 }
  - { offset: 0x117A43, size: 0x8, addend: 0x0, symName: '__ZN100_$LT$core..array..iter..iter_inner..PolymorphicIter$LT$DATA$GT$$u20$as$u20$core..ops..drop..Drop$GT$4drop17h9ee10532284ff757E', symObjAddr: 0x30, symBinAddr: 0x3E0F4, symSize: 0x30 }
  - { offset: 0x117ED0, size: 0x8, addend: 0x0, symName: '__ZN44_$LT$$RF$T$u20$as$u20$core..fmt..Display$GT$3fmt17hf2d5b8796472437fE', symObjAddr: 0x324, symBinAddr: 0x3E1B8, symSize: 0x30 }
  - { offset: 0x1180E6, size: 0x8, addend: 0x0, symName: '__ZN4core5slice29_$LT$impl$u20$$u5b$T$u5d$$GT$8contains17h2fe535cf7a388920E', symObjAddr: 0xAE8, symBinAddr: 0x3E470, symSize: 0x48 }
  - { offset: 0x11818E, size: 0x8, addend: 0x0, symName: __ZN4core5slice6memchr6memchr17hd498baf61124c131E, symObjAddr: 0xB30, symBinAddr: 0x3E4B8, symSize: 0x114 }
  - { offset: 0x11825C, size: 0x8, addend: 0x0, symName: '__ZN53_$LT$T$u20$as$u20$core..slice..cmp..SliceContains$GT$14slice_contains17h396758f490a7cf38E', symObjAddr: 0x6AC8, symBinAddr: 0x3EEC4, symSize: 0x78 }
  - { offset: 0x11CCE7, size: 0x8, addend: 0x0, symName: '__ZN50_$LT$T$u20$as$u20$core..convert..Into$LT$U$GT$$GT$4into17h30ee25d3d8ba9b1eE', symObjAddr: 0x6AAC, symBinAddr: 0x3EEA8, symSize: 0x1C }
  - { offset: 0x11CD5A, size: 0x8, addend: 0x0, symName: __ZN4pyo35types3any5PyAny7getattr5inner17heff515ae92f70a04E, symObjAddr: 0x3D84, symBinAddr: 0x3E8B4, symSize: 0x4C }
  - { offset: 0x11CD99, size: 0x8, addend: 0x0, symName: '__ZN4pyo35types3any5PyAny7getattr5inner28_$u7b$$u7b$closure$u7d$$u7d$17h7db80442e23e5153E', symObjAddr: 0x3DD0, symBinAddr: 0x3E900, symSize: 0x90 }
  - { offset: 0x11CDDC, size: 0x8, addend: 0x0, symName: __ZN4pyo35types3any5PyAny7setattr5inner17he341c5d7288099f8E, symObjAddr: 0x4300, symBinAddr: 0x3EBB4, symSize: 0xDC }
  - { offset: 0x11E2B5, size: 0x8, addend: 0x0, symName: __ZN4pyo35types3any14PyObject_Check17h8c88536a5abf935aE, symObjAddr: 0x2E44, symBinAddr: 0x3E67C, symSize: 0x14 }
  - { offset: 0x11E2E2, size: 0x8, addend: 0x0, symName: '__ZN62_$LT$pyo3..types..any..PyAny$u20$as$u20$core..fmt..Display$GT$3fmt17h4fa50c8ef14d2b15E', symObjAddr: 0x6D14, symBinAddr: 0x3F018, symSize: 0x250 }
  - { offset: 0x11E3BC, size: 0x8, addend: 0x0, symName: '__ZN73_$LT$pyo3..types..any..PyAny$u20$as$u20$pyo3..type_object..PyTypeInfo$GT$10is_type_of17hf76b4dedc4bf5c5fE', symObjAddr: 0x74CC, symBinAddr: 0x3F2E8, symSize: 0x30 }
  - { offset: 0x11E3EE, size: 0x8, addend: 0x0, symName: '__ZN78_$LT$$RF$pyo3..types..any..PyAny$u20$as$u20$pyo3..conversion..FromPyObject$GT$7extract17h7f1b43753ce99bd2E', symObjAddr: 0x752C, symBinAddr: 0x3F318, symSize: 0x3C }
  - { offset: 0x11E895, size: 0x8, addend: 0x0, symName: __ZN4pyo38instance12PyNativeType18unchecked_downcast17h5a5d6ddca5a7499bE, symObjAddr: 0x6988, symBinAddr: 0x3EE18, symSize: 0x70 }
  - { offset: 0x11E8CA, size: 0x8, addend: 0x0, symName: __ZN4pyo38instance12PyNativeType2py17h747674330561f9efE, symObjAddr: 0x6A68, symBinAddr: 0x3EE88, symSize: 0x20 }
  - { offset: 0x11E907, size: 0x8, addend: 0x0, symName: '__ZN49_$LT$T$u20$as$u20$pyo3..conversion..PyTryFrom$GT$18try_from_unchecked17h4495d563df811b60E', symObjAddr: 0x5B4, symBinAddr: 0x3E1E8, symSize: 0x30 }
  - { offset: 0x11E947, size: 0x8, addend: 0x0, symName: '__ZN49_$LT$T$u20$as$u20$pyo3..conversion..PyTryFrom$GT$8try_from17h49ab81ed73015228E', symObjAddr: 0x5E4, symBinAddr: 0x3E218, symSize: 0x98 }
  - { offset: 0x11E9AB, size: 0x8, addend: 0x0, symName: __ZN4pyo310conversion13FromPyPointer14from_owned_ptr17h576ae9fb69aede6eE, symObjAddr: 0xC44, symBinAddr: 0x3E5CC, symSize: 0x24 }
  - { offset: 0x11E9FD, size: 0x8, addend: 0x0, symName: __ZN4pyo310conversion13FromPyPointer17from_borrowed_ptr17h606ca436bdfb8065E, symObjAddr: 0xC68, symBinAddr: 0x3E5F0, symSize: 0x24 }
  - { offset: 0x11EA4F, size: 0x8, addend: 0x0, symName: __ZN4pyo310conversion13FromPyPointer23from_owned_ptr_or_panic17hc62fc0e6c2ee550aE, symObjAddr: 0xCC0, symBinAddr: 0x3E614, symSize: 0x34 }
  - { offset: 0x11EAA1, size: 0x8, addend: 0x0, symName: __ZN4pyo310conversion13FromPyPointer26from_borrowed_ptr_or_panic17h319671aef9b6b9deE, symObjAddr: 0xD28, symBinAddr: 0x3E648, symSize: 0x34 }
  - { offset: 0x11EAF9, size: 0x8, addend: 0x0, symName: '__ZN53_$LT$T$u20$as$u20$pyo3..conversion..FromPyPointer$GT$21from_owned_ptr_or_opt17h3eed550f50ffb79cE', symObjAddr: 0x6B40, symBinAddr: 0x3EF3C, symSize: 0xB4 }
  - { offset: 0x11EB69, size: 0x8, addend: 0x0, symName: '__ZN53_$LT$T$u20$as$u20$pyo3..conversion..FromPyPointer$GT$24from_borrowed_ptr_or_opt17ha7917409d703f70dE', symObjAddr: 0x6BF4, symBinAddr: 0x3EFF0, symSize: 0x28 }
  - { offset: 0x1200FB, size: 0x8, addend: 0x0, symName: '__ZN78_$LT$$u21$$u20$as$u20$std..sys..thread_local..native..lazy..DestroyedState$GT$13register_dtor17h90f9fe74f17d5086E', symObjAddr: 0x7568, symBinAddr: 0x3F354, symSize: 0x10 }
  - { offset: 0x120151, size: 0x8, addend: 0x0, symName: '__ZN66_$LT$std..thread..id..ThreadId$u20$as$u20$core..cmp..PartialEq$GT$2eq17h178278c97bae7963E', symObjAddr: 0x73AC, symBinAddr: 0x3F268, symSize: 0x2C }
  - { offset: 0x120275, size: 0x8, addend: 0x0, symName: '__ZN3std3sys12thread_local6native4lazy20Storage$LT$T$C$D$GT$11get_or_init17h4443d9bf5af08ffbE', symObjAddr: 0x88, symBinAddr: 0x3E124, symSize: 0x94 }
  - { offset: 0x1204A1, size: 0x8, addend: 0x0, symName: '__ZN3std3sys12thread_local6native4lazy20Storage$LT$T$C$D$GT$16get_or_init_slow17hc0f137289204f00cE', symObjAddr: 0x11C, symBinAddr: 0xA308C, symSize: 0x1D8 }
  - { offset: 0x12080F, size: 0x8, addend: 0x0, symName: '__ZN4core3mem13manually_drop21ManuallyDrop$LT$T$GT$4drop17h35afc41840f2c148E', symObjAddr: 0x744, symBinAddr: 0x3E2E0, symSize: 0x20 }
  - { offset: 0x12097E, size: 0x8, addend: 0x0, symName: '__ZN4core5array4iter10iter_inner78PolymorphicIter$LT$$u5b$core..mem..maybe_uninit..MaybeUninit$LT$T$GT$$u5d$$GT$4next17h0ef7a8c2d4dc70e6E', symObjAddr: 0x764, symBinAddr: 0x3E300, symSize: 0x170 }
  - { offset: 0x120C82, size: 0x8, addend: 0x0, symName: __ZN4pyo35types3any5PyAny14downcast_exact17h0e3d0e970184695fE, symObjAddr: 0x308C, symBinAddr: 0x3E690, symSize: 0x24 }
  - { offset: 0x120CE2, size: 0x8, addend: 0x0, symName: __ZN4pyo35types3any5PyAny18downcast_unchecked17h9d572626cc928f64E, symObjAddr: 0x311C, symBinAddr: 0x3E6B4, symSize: 0x24 }
  - { offset: 0x120D35, size: 0x8, addend: 0x0, symName: __ZN4pyo35types3any5PyAny2py17hcdaf96a489c82fe5E, symObjAddr: 0x31D4, symBinAddr: 0x3E6D8, symSize: 0x24 }
  - { offset: 0x120D72, size: 0x8, addend: 0x0, symName: __ZN4pyo35types3any5PyAny3str17h6ee0c140952b1de2E, symObjAddr: 0x32EC, symBinAddr: 0x3E6FC, symSize: 0x40 }
  - { offset: 0x120DED, size: 0x8, addend: 0x0, symName: __ZN4pyo35types3any5PyAny4iter17h1b8e513eedadc9b3E, symObjAddr: 0x37D0, symBinAddr: 0x3E73C, symSize: 0x24 }
  - { offset: 0x120E10, size: 0x8, addend: 0x0, symName: __ZN4pyo35types3any5PyAny4repr17hb0c327ab101683c0E, symObjAddr: 0x37F4, symBinAddr: 0x3E760, symSize: 0x40 }
  - { offset: 0x120E33, size: 0x8, addend: 0x0, symName: __ZN4pyo35types3any5PyAny6as_ptr17h6df47e108e6ba216E, symObjAddr: 0x390C, symBinAddr: 0x3E7A0, symSize: 0x14 }
  - { offset: 0x120E56, size: 0x8, addend: 0x0, symName: __ZN4pyo35types3any5PyAny7extract17h196e4308db30b3f9E, symObjAddr: 0x3A34, symBinAddr: 0x3E7B4, symSize: 0x24 }
  - { offset: 0x120E89, size: 0x8, addend: 0x0, symName: __ZN4pyo35types3any5PyAny7extract17h2336558b1511e2b1E, symObjAddr: 0x3A58, symBinAddr: 0x3E7D8, symSize: 0x24 }
  - { offset: 0x120EBC, size: 0x8, addend: 0x0, symName: __ZN4pyo35types3any5PyAny7extract17h9c7f584a526ad059E, symObjAddr: 0x3B0C, symBinAddr: 0x3E7FC, symSize: 0x24 }
  - { offset: 0x120F09, size: 0x8, addend: 0x0, symName: __ZN4pyo35types3any5PyAny7getattr17h7364e478eefca3d9E, symObjAddr: 0x3CF0, symBinAddr: 0x3E820, symSize: 0x94 }
  - { offset: 0x120F42, size: 0x8, addend: 0x0, symName: __ZN4pyo35types3any5PyAny7setattr17h663fad3145b34566E, symObjAddr: 0x40DC, symBinAddr: 0x3E990, symSize: 0x128 }
  - { offset: 0x120FA7, size: 0x8, addend: 0x0, symName: __ZN4pyo35types3any5PyAny7setattr17h99ba480dc94e7b7dE, symObjAddr: 0x4204, symBinAddr: 0x3EAB8, symSize: 0xFC }
  - { offset: 0x12100C, size: 0x8, addend: 0x0, symName: __ZN4pyo35types3any5PyAny8_getattr17hfa2ea3b5dff50d7bE, symObjAddr: 0x4764, symBinAddr: 0x3EC90, symSize: 0x9C }
  - { offset: 0x1210F2, size: 0x8, addend: 0x0, symName: __ZN4pyo35types3any5PyAny8downcast17h238d491a63ae6cc7E, symObjAddr: 0x4A94, symBinAddr: 0x3ED2C, symSize: 0x24 }
  - { offset: 0x1211BA, size: 0x8, addend: 0x0, symName: __ZN4pyo35types3any5PyAny8downcast17h3fba47f3826c161eE, symObjAddr: 0x4C8C, symBinAddr: 0x3ED50, symSize: 0x24 }
  - { offset: 0x121227, size: 0x8, addend: 0x0, symName: __ZN4pyo35types3any5PyAny8downcast17h4aa07e64eac16f54E, symObjAddr: 0x4D64, symBinAddr: 0x3ED74, symSize: 0x24 }
  - { offset: 0x12133D, size: 0x8, addend: 0x0, symName: __ZN4pyo35types3any5PyAny8downcast17h90e585619e6a4a3fE, symObjAddr: 0x50A0, symBinAddr: 0x3ED98, symSize: 0x24 }
  - { offset: 0x121557, size: 0x8, addend: 0x0, symName: __ZN4pyo35types3any5PyAny8downcast17hde691d8e17a4c5caE, symObjAddr: 0x5664, symBinAddr: 0x3EDBC, symSize: 0x24 }
  - { offset: 0x121646, size: 0x8, addend: 0x0, symName: __ZN4pyo35types3any5PyAny8get_type17h73029b52db18c291E, symObjAddr: 0x5940, symBinAddr: 0x3EDE0, symSize: 0x38 }
  - { offset: 0x1218EF, size: 0x8, addend: 0x0, symName: '__ZN103_$LT$alloc..vec..into_iter..IntoIter$LT$T$C$A$GT$$u20$as$u20$core..iter..traits..iterator..Iterator$GT$4next17h07a64ac6ab800525E', symObjAddr: 0x100, symBinAddr: 0x3F3F4, symSize: 0x88 }
  - { offset: 0x121A49, size: 0x8, addend: 0x0, symName: '__ZN103_$LT$alloc..vec..into_iter..IntoIter$LT$T$C$A$GT$$u20$as$u20$core..iter..traits..iterator..Iterator$GT$4next17h19d5e96dfd65ae60E', symObjAddr: 0x188, symBinAddr: 0x3F47C, symSize: 0x94 }
  - { offset: 0x121BA3, size: 0x8, addend: 0x0, symName: '__ZN103_$LT$alloc..vec..into_iter..IntoIter$LT$T$C$A$GT$$u20$as$u20$core..iter..traits..iterator..Iterator$GT$4next17h3cc92e300e4d4bf9E', symObjAddr: 0x21C, symBinAddr: 0x3F510, symSize: 0xAC }
  - { offset: 0x121D01, size: 0x8, addend: 0x0, symName: '__ZN103_$LT$alloc..vec..into_iter..IntoIter$LT$T$C$A$GT$$u20$as$u20$core..iter..traits..iterator..Iterator$GT$9size_hint17h034dd5b48a6eef65E', symObjAddr: 0x2C8, symBinAddr: 0x3F5BC, symSize: 0xB4 }
  - { offset: 0x121E1A, size: 0x8, addend: 0x0, symName: '__ZN103_$LT$alloc..vec..into_iter..IntoIter$LT$T$C$A$GT$$u20$as$u20$core..iter..traits..iterator..Iterator$GT$9size_hint17h5927a2041807e242E', symObjAddr: 0x37C, symBinAddr: 0x3F670, symSize: 0xB4 }
  - { offset: 0x121F33, size: 0x8, addend: 0x0, symName: '__ZN103_$LT$alloc..vec..into_iter..IntoIter$LT$T$C$A$GT$$u20$as$u20$core..iter..traits..iterator..Iterator$GT$9size_hint17h644fe826555133f7E', symObjAddr: 0x430, symBinAddr: 0x3F724, symSize: 0xB4 }
  - { offset: 0x12205C, size: 0x8, addend: 0x0, symName: '__ZN157_$LT$$LT$alloc..vec..into_iter..IntoIter$LT$T$C$A$GT$$u20$as$u20$core..ops..drop..Drop$GT$..drop..DropGuard$LT$T$C$A$GT$$u20$as$u20$core..ops..drop..Drop$GT$4drop17h4a0432a408857db1E', symObjAddr: 0xC40, symBinAddr: 0x3FBC0, symSize: 0x6C }
  - { offset: 0x12219F, size: 0x8, addend: 0x0, symName: '__ZN157_$LT$$LT$alloc..vec..into_iter..IntoIter$LT$T$C$A$GT$$u20$as$u20$core..ops..drop..Drop$GT$..drop..DropGuard$LT$T$C$A$GT$$u20$as$u20$core..ops..drop..Drop$GT$4drop17hbc9f7eb50dbb0886E', symObjAddr: 0xCAC, symBinAddr: 0x3FC2C, symSize: 0x6C }
  - { offset: 0x1222E2, size: 0x8, addend: 0x0, symName: '__ZN157_$LT$$LT$alloc..vec..into_iter..IntoIter$LT$T$C$A$GT$$u20$as$u20$core..ops..drop..Drop$GT$..drop..DropGuard$LT$T$C$A$GT$$u20$as$u20$core..ops..drop..Drop$GT$4drop17hd70601949ab5c61bE', symObjAddr: 0xD18, symBinAddr: 0x3FC98, symSize: 0x6C }
  - { offset: 0x12249C, size: 0x8, addend: 0x0, symName: '__ZN86_$LT$alloc..vec..into_iter..IntoIter$LT$T$C$A$GT$$u20$as$u20$core..ops..drop..Drop$GT$4drop17h62e93cca365837ddE', symObjAddr: 0x6B84, symBinAddr: 0x43B60, symSize: 0x78 }
  - { offset: 0x1224EE, size: 0x8, addend: 0x0, symName: '__ZN86_$LT$alloc..vec..into_iter..IntoIter$LT$T$C$A$GT$$u20$as$u20$core..ops..drop..Drop$GT$4drop17ha55d785a0d695324E', symObjAddr: 0x6BFC, symBinAddr: 0x43BD8, symSize: 0x78 }
  - { offset: 0x122540, size: 0x8, addend: 0x0, symName: '__ZN86_$LT$alloc..vec..into_iter..IntoIter$LT$T$C$A$GT$$u20$as$u20$core..ops..drop..Drop$GT$4drop17hce7e6f24c12ec1abE', symObjAddr: 0x6C74, symBinAddr: 0x43C50, symSize: 0x64 }
  - { offset: 0x123750, size: 0x8, addend: 0x0, symName: '__ZN4core3ptr101drop_in_place$LT$core..option..Option$LT$pyo3..pyclass..create_type_object..PyClassTypeObject$GT$$GT$17hcc7c517da4d0af11E', symObjAddr: 0x222C, symBinAddr: 0x408B0, symSize: 0x48 }
  - { offset: 0x12377F, size: 0x8, addend: 0x0, symName: '__ZN4core3ptr101drop_in_place$LT$core..result..Result$LT$$RF$pyo3..types..string..PyString$C$pyo3..err..PyErr$GT$$GT$17h9f06f86d09b74c24E', symObjAddr: 0x2274, symBinAddr: 0x408F8, symSize: 0x40 }
  - { offset: 0x1237AE, size: 0x8, addend: 0x0, symName: '__ZN4core3ptr104drop_in_place$LT$core..option..Option$LT$pyo3..instance..Py$LT$pyo3..types..module..PyModule$GT$$GT$$GT$17hc65b3b5ba9ffecfdE', symObjAddr: 0x22FC, symBinAddr: 0x40938, symSize: 0x44 }
  - { offset: 0x1237DD, size: 0x8, addend: 0x0, symName: '__ZN4core3ptr104drop_in_place$LT$core..option..Option$LT$pyo3..instance..Py$LT$pyo3..types..string..PyString$GT$$GT$$GT$17h864747ad7f0a42a4E', symObjAddr: 0x2340, symBinAddr: 0x4097C, symSize: 0x44 }
  - { offset: 0x12380C, size: 0x8, addend: 0x0, symName: '__ZN4core3ptr105drop_in_place$LT$alloc..raw_vec..RawVec$LT$pyo3..pyclass..create_type_object..GetSetDefDestructor$GT$$GT$17h17574d5ca4352bccE', symObjAddr: 0x2384, symBinAddr: 0x409C0, symSize: 0x24 }
  - { offset: 0x12383B, size: 0x8, addend: 0x0, symName: '__ZN4core3ptr106drop_in_place$LT$alloc..vec..Vec$LT$core..ptr..non_null..NonNull$LT$pyo3_ffi..object..PyObject$GT$$GT$$GT$17h13272cd05601839fE', symObjAddr: 0x23A8, symBinAddr: 0x409E4, symSize: 0x5C }
  - { offset: 0x12386A, size: 0x8, addend: 0x0, symName: '__ZN4core3ptr106drop_in_place$LT$core..option..Option$LT$pyo3..instance..Py$LT$pyo3..types..typeobject..PyType$GT$$GT$$GT$17h8cd61356aebf9899E', symObjAddr: 0x2404, symBinAddr: 0x40A40, symSize: 0x44 }
  - { offset: 0x123899, size: 0x8, addend: 0x0, symName: '__ZN4core3ptr108drop_in_place$LT$core..option..Option$LT$pyo3..instance..Py$LT$pyo3..exceptions..PyBaseException$GT$$GT$$GT$17h8532d47d93644aa0E', symObjAddr: 0x246C, symBinAddr: 0x40A84, symSize: 0x44 }
  - { offset: 0x1238C8, size: 0x8, addend: 0x0, symName: '__ZN4core3ptr110drop_in_place$LT$core..option..Option$LT$pyo3..instance..Py$LT$pyo3..types..traceback..PyTraceback$GT$$GT$$GT$17h8744211cf4ed0c45E', symObjAddr: 0x251C, symBinAddr: 0x40AC8, symSize: 0x44 }
  - { offset: 0x1238F7, size: 0x8, addend: 0x0, symName: '__ZN4core3ptr111drop_in_place$LT$core..cell..UnsafeCell$LT$core..option..Option$LT$pyo3..err..err_state..PyErrState$GT$$GT$$GT$17hf4be3fd8a95b0d8dE', symObjAddr: 0x2560, symBinAddr: 0x40B0C, symSize: 0x24 }
  - { offset: 0x123926, size: 0x8, addend: 0x0, symName: '__ZN4core3ptr111drop_in_place$LT$core..result..Result$LT$$RF$pyo3..types..floatob..PyFloat$C$pyo3..err..PyDowncastError$GT$$GT$17h8db74773e7be3111E', symObjAddr: 0x2584, symBinAddr: 0x40B30, symSize: 0x48 }
  - { offset: 0x123955, size: 0x8, addend: 0x0, symName: '__ZN4core3ptr112drop_in_place$LT$core..result..Result$LT$$LP$$RP$$C$pyo3..pyclass..create_type_object..PyClassTypeObject$GT$$GT$17h69e56f2685e08d60E', symObjAddr: 0x25CC, symBinAddr: 0x40B78, symSize: 0x48 }
  - { offset: 0x123984, size: 0x8, addend: 0x0, symName: '__ZN4core3ptr113drop_in_place$LT$alloc..raw_vec..RawVec$LT$core..ptr..non_null..NonNull$LT$pyo3_ffi..object..PyObject$GT$$GT$$GT$17h0ff0b2b870293ea2E', symObjAddr: 0x2614, symBinAddr: 0x40BC0, symSize: 0x24 }
  - { offset: 0x1239B3, size: 0x8, addend: 0x0, symName: '__ZN4core3ptr114drop_in_place$LT$core..pin..Pin$LT$alloc..sync..Arc$LT$std..thread..thread..Inner$C$std..alloc..System$GT$$GT$$GT$17h3b456292aa31a991E', symObjAddr: 0x2638, symBinAddr: 0x40BE4, symSize: 0x24 }
  - { offset: 0x1239E2, size: 0x8, addend: 0x0, symName: '__ZN4core3ptr114drop_in_place$LT$pyo3..impl_..pyclass..lazy_type_object..LazyTypeObjectInner..ensure_init..InitializationGuard$GT$17h1173a41d0ca292d0E', symObjAddr: 0x265C, symBinAddr: 0x40C08, symSize: 0x24 }
  - { offset: 0x123A11, size: 0x8, addend: 0x0, symName: '__ZN4core3ptr115drop_in_place$LT$core..array..iter..IntoIter$LT$pyo3..instance..Py$LT$pyo3..types..any..PyAny$GT$$C$1_usize$GT$$GT$17h194efca984e55647E', symObjAddr: 0x2680, symBinAddr: 0x40C2C, symSize: 0x24 }
  - { offset: 0x123A40, size: 0x8, addend: 0x0, symName: '__ZN4core3ptr115drop_in_place$LT$core..array..iter..IntoIter$LT$pyo3..instance..Py$LT$pyo3..types..any..PyAny$GT$$C$2_usize$GT$$GT$17hc677d66d3c473c84E', symObjAddr: 0x26A4, symBinAddr: 0x40C50, symSize: 0x24 }
  - { offset: 0x123A6F, size: 0x8, addend: 0x0, symName: '__ZN4core3ptr115drop_in_place$LT$core..result..Result$LT$$LP$$RP$$C$pyo3..instance..Py$LT$pyo3..types..module..PyModule$GT$$GT$$GT$17h4d1be57461c5c314E', symObjAddr: 0x26C8, symBinAddr: 0x40C74, symSize: 0x44 }
  - { offset: 0x123A9E, size: 0x8, addend: 0x0, symName: '__ZN4core3ptr115drop_in_place$LT$core..result..Result$LT$$LP$$RP$$C$pyo3..instance..Py$LT$pyo3..types..string..PyString$GT$$GT$$GT$17h33fad2cf58d96237E', symObjAddr: 0x270C, symBinAddr: 0x40CB8, symSize: 0x44 }
  - { offset: 0x123ACD, size: 0x8, addend: 0x0, symName: '__ZN4core3ptr117drop_in_place$LT$core..result..Result$LT$$LP$$RP$$C$pyo3..instance..Py$LT$pyo3..types..typeobject..PyType$GT$$GT$$GT$17h015a9c6e6cd32c83E', symObjAddr: 0x2798, symBinAddr: 0x40CFC, symSize: 0x44 }
  - { offset: 0x123AFC, size: 0x8, addend: 0x0, symName: '__ZN4core3ptr117drop_in_place$LT$core..result..Result$LT$pyo3..instance..Py$LT$pyo3..types..any..PyAny$GT$$C$pyo3..err..PyErr$GT$$GT$17hc1324af016f9e7b8E', symObjAddr: 0x27DC, symBinAddr: 0x40D40, symSize: 0x50 }
  - { offset: 0x123B2B, size: 0x8, addend: 0x0, symName: '__ZN4core3ptr121drop_in_place$LT$core..option..Option$LT$core..result..Result$LT$core..convert..Infallible$C$pyo3..err..PyErr$GT$$GT$$GT$17h5d59a07ad9d7ca9cE', symObjAddr: 0x282C, symBinAddr: 0x40D90, symSize: 0x40 }
  - { offset: 0x123B5A, size: 0x8, addend: 0x0, symName: '__ZN4core3ptr122drop_in_place$LT$alloc..vec..into_iter..IntoIter$LT$core..ptr..non_null..NonNull$LT$pyo3_ffi..object..PyObject$GT$$GT$$GT$17h9800fc34f9382ab1E', symObjAddr: 0x286C, symBinAddr: 0x40DD0, symSize: 0x24 }
  - { offset: 0x123B89, size: 0x8, addend: 0x0, symName: '__ZN4core3ptr122drop_in_place$LT$hashbrown..raw..RawTable$LT$$LP$$RF$str$C$pyo3..pyclass..create_type_object..GetSetDefBuilder$RP$$GT$$GT$17h0cc193e99f81d2a1E', symObjAddr: 0x2890, symBinAddr: 0x40DF4, symSize: 0x24 }
  - { offset: 0x123BB8, size: 0x8, addend: 0x0, symName: '__ZN4core3ptr122drop_in_place$LT$pyo3..impl_..pyclass..lazy_type_object..LazyTypeObjectInner..ensure_init..$u7b$$u7b$closure$u7d$$u7d$$GT$17h54cd8d95e583a66fE', symObjAddr: 0x28B4, symBinAddr: 0x40E18, symSize: 0x60 }
  - { offset: 0x123BE7, size: 0x8, addend: 0x0, symName: '__ZN4core3ptr123drop_in_place$LT$core..option..Option$LT$core..result..Result$LT$$RF$pyo3..types..any..PyAny$C$pyo3..err..PyErr$GT$$GT$$GT$17hc0cf2e76bc14d857E', symObjAddr: 0x2914, symBinAddr: 0x40E78, symSize: 0x44 }
  - { offset: 0x123C16, size: 0x8, addend: 0x0, symName: '__ZN4core3ptr126drop_in_place$LT$std..collections..hash..map..HashMap$LT$$RF$str$C$pyo3..pyclass..create_type_object..GetSetDefBuilder$GT$$GT$17h89b2b2b19007953cE', symObjAddr: 0x2958, symBinAddr: 0x40EBC, symSize: 0x24 }
  - { offset: 0x123C45, size: 0x8, addend: 0x0, symName: '__ZN4core3ptr129drop_in_place$LT$$LP$alloc..borrow..Cow$LT$core..ffi..c_str..CStr$GT$$C$pyo3..instance..Py$LT$pyo3..types..any..PyAny$GT$$RP$$GT$17h1f0ef7c7ed46afddE', symObjAddr: 0x297C, symBinAddr: 0x40EE0, symSize: 0x60 }
  - { offset: 0x123C74, size: 0x8, addend: 0x0, symName: '__ZN4core3ptr129drop_in_place$LT$alloc..vec..Vec$LT$T$C$A$GT$..retain_mut..PanicGuard$LT$std..thread..id..ThreadId$C$alloc..alloc..Global$GT$$GT$17h97dfd0d635e4b95fE', symObjAddr: 0x29DC, symBinAddr: 0x40F40, symSize: 0x24 }
  - { offset: 0x123CA3, size: 0x8, addend: 0x0, symName: '__ZN4core3ptr129drop_in_place$LT$core..cell..Ref$LT$alloc..vec..Vec$LT$core..ptr..non_null..NonNull$LT$pyo3_ffi..object..PyObject$GT$$GT$$GT$$GT$17h75e8fd0a99dcef7fE', symObjAddr: 0x2A00, symBinAddr: 0x40F64, symSize: 0x24 }
  - { offset: 0x123CD2, size: 0x8, addend: 0x0, symName: '__ZN4core3ptr132drop_in_place$LT$core..cell..RefMut$LT$alloc..vec..Vec$LT$core..ptr..non_null..NonNull$LT$pyo3_ffi..object..PyObject$GT$$GT$$GT$$GT$17h1fee513caac2c842E', symObjAddr: 0x2A48, symBinAddr: 0x40F88, symSize: 0x24 }
  - { offset: 0x123D01, size: 0x8, addend: 0x0, symName: '__ZN4core3ptr132drop_in_place$LT$pyo3..err..PyErr..new$LT$pyo3..exceptions..PyTypeError$C$alloc..string..String$GT$..$u7b$$u7b$closure$u7d$$u7d$$GT$17h7920a1febbe30713E', symObjAddr: 0x2A6C, symBinAddr: 0x40FAC, symSize: 0x24 }
  - { offset: 0x123D30, size: 0x8, addend: 0x0, symName: '__ZN4core3ptr133drop_in_place$LT$core..cell..RefCell$LT$alloc..vec..Vec$LT$core..ptr..non_null..NonNull$LT$pyo3_ffi..object..PyObject$GT$$GT$$GT$$GT$17hf8bbaadb79be2549E', symObjAddr: 0x2A90, symBinAddr: 0x40FD0, symSize: 0x24 }
  - { offset: 0x123D5F, size: 0x8, addend: 0x0, symName: '__ZN4core3ptr135drop_in_place$LT$pyo3..err..PyErr..new$LT$pyo3..exceptions..PyRuntimeError$C$alloc..string..String$GT$..$u7b$$u7b$closure$u7d$$u7d$$GT$17h837d7f1de39548daE', symObjAddr: 0x2AFC, symBinAddr: 0x40FF4, symSize: 0x24 }
  - { offset: 0x123D8E, size: 0x8, addend: 0x0, symName: '__ZN4core3ptr136drop_in_place$LT$core..cell..UnsafeCell$LT$alloc..vec..Vec$LT$core..ptr..non_null..NonNull$LT$pyo3_ffi..object..PyObject$GT$$GT$$GT$$GT$17h587b5f6ef9a20012E', symObjAddr: 0x2B44, symBinAddr: 0x41018, symSize: 0x24 }
  - { offset: 0x123DBD, size: 0x8, addend: 0x0, symName: '__ZN4core3ptr139drop_in_place$LT$$u5b$$LP$alloc..borrow..Cow$LT$core..ffi..c_str..CStr$GT$$C$pyo3..instance..Py$LT$pyo3..types..any..PyAny$GT$$RP$$u5d$$GT$17h408d5cca6e5b6a05E', symObjAddr: 0x2C40, symBinAddr: 0x4103C, symSize: 0xB4 }
  - { offset: 0x123DEC, size: 0x8, addend: 0x0, symName: '__ZN4core3ptr139drop_in_place$LT$pyo3..err..PyErr..new$LT$pyo3..exceptions..PyValueError$C$alloc..ffi..c_str..NulError$GT$..$u7b$$u7b$closure$u7d$$u7d$$GT$17h041a06568cdd570fE', symObjAddr: 0x2D18, symBinAddr: 0x410F0, symSize: 0x24 }
  - { offset: 0x123E1B, size: 0x8, addend: 0x0, symName: '__ZN4core3ptr141drop_in_place$LT$pyo3..err..PyErr..new$LT$pyo3..panic..PanicException$C$$LP$alloc..string..String$C$$RP$$GT$..$u7b$$u7b$closure$u7d$$u7d$$GT$17ha33a9b3681a9f7f7E', symObjAddr: 0x2D60, symBinAddr: 0x41114, symSize: 0x24 }
  - { offset: 0x123E4A, size: 0x8, addend: 0x0, symName: '__ZN4core3ptr146drop_in_place$LT$hashbrown..map..HashMap$LT$$RF$str$C$pyo3..pyclass..create_type_object..GetSetDefBuilder$C$std..hash..random..RandomState$GT$$GT$17h886eb3fbbb0d908bE', symObjAddr: 0x2E50, symBinAddr: 0x41138, symSize: 0x24 }
  - { offset: 0x123E79, size: 0x8, addend: 0x0, symName: '__ZN4core3ptr146drop_in_place$LT$pyo3..err..PyErr..new$LT$pyo3..exceptions..PyTypeError$C$pyo3..err..PyDowncastErrorArguments$GT$..$u7b$$u7b$closure$u7d$$u7d$$GT$17hb74020e0eacc9123E', symObjAddr: 0x2E74, symBinAddr: 0x4115C, symSize: 0x24 }
  - { offset: 0x123EA8, size: 0x8, addend: 0x0, symName: '__ZN4core3ptr152drop_in_place$LT$alloc..vec..Vec$LT$$LP$alloc..borrow..Cow$LT$core..ffi..c_str..CStr$GT$$C$pyo3..instance..Py$LT$pyo3..types..any..PyAny$GT$$RP$$GT$$GT$17h514e9db62b1e1701E', symObjAddr: 0x2EBC, symBinAddr: 0x41180, symSize: 0x5C }
  - { offset: 0x123ED7, size: 0x8, addend: 0x0, symName: '__ZN4core3ptr159drop_in_place$LT$alloc..raw_vec..RawVec$LT$$LP$alloc..borrow..Cow$LT$core..ffi..c_str..CStr$GT$$C$pyo3..instance..Py$LT$pyo3..types..any..PyAny$GT$$RP$$GT$$GT$17h95708c91b165afbaE', symObjAddr: 0x2F3C, symBinAddr: 0x411DC, symSize: 0x24 }
  - { offset: 0x123F06, size: 0x8, addend: 0x0, symName: '__ZN4core3ptr165drop_in_place$LT$core..iter..adapters..enumerate..Enumerate$LT$core..array..iter..IntoIter$LT$pyo3..instance..Py$LT$pyo3..types..any..PyAny$GT$$C$1_usize$GT$$GT$$GT$17h88119413c4f718e1E', symObjAddr: 0x2F84, symBinAddr: 0x41200, symSize: 0x24 }
  - { offset: 0x123F35, size: 0x8, addend: 0x0, symName: '__ZN4core3ptr165drop_in_place$LT$core..iter..adapters..enumerate..Enumerate$LT$core..array..iter..IntoIter$LT$pyo3..instance..Py$LT$pyo3..types..any..PyAny$GT$$C$2_usize$GT$$GT$$GT$17h0f087965530ea338E', symObjAddr: 0x2FA8, symBinAddr: 0x41224, symSize: 0x24 }
  - { offset: 0x123F64, size: 0x8, addend: 0x0, symName: '__ZN4core3ptr168drop_in_place$LT$alloc..vec..into_iter..IntoIter$LT$$LP$alloc..borrow..Cow$LT$core..ffi..c_str..CStr$GT$$C$pyo3..instance..Py$LT$pyo3..types..any..PyAny$GT$$RP$$GT$$GT$17h2808e2829964d114E', symObjAddr: 0x2FCC, symBinAddr: 0x41248, symSize: 0x24 }
  - { offset: 0x123F93, size: 0x8, addend: 0x0, symName: '__ZN4core3ptr181drop_in_place$LT$hashbrown..scopeguard..ScopeGuard$LT$$RF$mut$u20$hashbrown..raw..RawTableInner$C$hashbrown..raw..RawTableInner..rehash_in_place..$u7b$$u7b$closure$u7d$$u7d$$GT$$GT$17h3b45306937a0c924E', symObjAddr: 0x3038, symBinAddr: 0x4126C, symSize: 0x24 }
  - { offset: 0x123FC2, size: 0x8, addend: 0x0, symName: '__ZN4core3ptr189drop_in_place$LT$core..array..iter..iter_inner..PolymorphicIter$LT$$u5b$core..mem..maybe_uninit..MaybeUninit$LT$pyo3..instance..Py$LT$pyo3..types..any..PyAny$GT$$GT$$u3b$$u20$1$u5d$$GT$$GT$17hf3639038ba3de390E', symObjAddr: 0x3080, symBinAddr: 0x41290, symSize: 0x24 }
  - { offset: 0x123FF1, size: 0x8, addend: 0x0, symName: '__ZN4core3ptr189drop_in_place$LT$core..array..iter..iter_inner..PolymorphicIter$LT$$u5b$core..mem..maybe_uninit..MaybeUninit$LT$pyo3..instance..Py$LT$pyo3..types..any..PyAny$GT$$GT$$u3b$$u20$2$u5d$$GT$$GT$17h2a39902fe07d780fE', symObjAddr: 0x30A4, symBinAddr: 0x412B4, symSize: 0x24 }
  - { offset: 0x124020, size: 0x8, addend: 0x0, symName: '__ZN4core3ptr196drop_in_place$LT$hashbrown..scopeguard..ScopeGuard$LT$hashbrown..raw..RawTableInner$C$hashbrown..raw..RawTableInner..prepare_resize$LT$alloc..alloc..Global$GT$..$u7b$$u7b$closure$u7d$$u7d$$GT$$GT$17h15d17f45f7a1c84dE', symObjAddr: 0x30C8, symBinAddr: 0x412D8, symSize: 0x24 }
  - { offset: 0x12404F, size: 0x8, addend: 0x0, symName: '__ZN4core3ptr216drop_in_place$LT$$LT$alloc..vec..into_iter..IntoIter$LT$T$C$A$GT$$u20$as$u20$core..ops..drop..Drop$GT$..drop..DropGuard$LT$core..ptr..non_null..NonNull$LT$pyo3_ffi..object..PyObject$GT$$C$alloc..alloc..Global$GT$$GT$17h3abfe399dfb21d4dE', symObjAddr: 0x31DC, symBinAddr: 0x412FC, symSize: 0x24 }
  - { offset: 0x12407E, size: 0x8, addend: 0x0, symName: '__ZN4core3ptr233drop_in_place$LT$alloc..boxed..Box$LT$dyn$u20$core..ops..function..Fn$LT$$LP$$RF$pyo3..pyclass..create_type_object..PyTypeBuilder$C$$BP$mut$u20$pyo3_ffi..cpython..object..PyTypeObject$RP$$GT$$u2b$Output$u20$$u3d$$u20$$LP$$RP$$GT$$GT$17hd6bb4313e6c5c834E', symObjAddr: 0x3224, symBinAddr: 0x41320, symSize: 0x80 }
  - { offset: 0x1240AD, size: 0x8, addend: 0x0, symName: '__ZN4core3ptr236drop_in_place$LT$alloc..boxed..Box$LT$dyn$u20$core..ops..function..FnOnce$LT$$LP$pyo3..marker..Python$C$$RP$$GT$$u2b$Output$u20$$u3d$$u20$pyo3..err..err_state..PyErrStateLazyFnOutput$u2b$core..marker..Sync$u2b$core..marker..Send$GT$$GT$17h3f7251f56d61b802E', symObjAddr: 0x32A4, symBinAddr: 0x413A0, symSize: 0x80 }
  - { offset: 0x1240DC, size: 0x8, addend: 0x0, symName: '__ZN4core3ptr243drop_in_place$LT$$u5b$alloc..boxed..Box$LT$dyn$u20$core..ops..function..Fn$LT$$LP$$RF$pyo3..pyclass..create_type_object..PyTypeBuilder$C$$BP$mut$u20$pyo3_ffi..cpython..object..PyTypeObject$RP$$GT$$u2b$Output$u20$$u3d$$u20$$LP$$RP$$GT$$u5d$$GT$17h9a139bea7733938bE', symObjAddr: 0x3324, symBinAddr: 0x41420, symSize: 0xB4 }
  - { offset: 0x12410B, size: 0x8, addend: 0x0, symName: '__ZN4core3ptr256drop_in_place$LT$alloc..vec..Vec$LT$alloc..boxed..Box$LT$dyn$u20$core..ops..function..Fn$LT$$LP$$RF$pyo3..pyclass..create_type_object..PyTypeBuilder$C$$BP$mut$u20$pyo3_ffi..cpython..object..PyTypeObject$RP$$GT$$u2b$Output$u20$$u3d$$u20$$LP$$RP$$GT$$GT$$GT$17h27b16444642538ffE', symObjAddr: 0x33D8, symBinAddr: 0x414D4, symSize: 0x5C }
  - { offset: 0x12413A, size: 0x8, addend: 0x0, symName: '__ZN4core3ptr262drop_in_place$LT$$LT$alloc..vec..into_iter..IntoIter$LT$T$C$A$GT$$u20$as$u20$core..ops..drop..Drop$GT$..drop..DropGuard$LT$$LP$alloc..borrow..Cow$LT$core..ffi..c_str..CStr$GT$$C$pyo3..instance..Py$LT$pyo3..types..any..PyAny$GT$$RP$$C$alloc..alloc..Global$GT$$GT$17hb520d0f490b85127E', symObjAddr: 0x3458, symBinAddr: 0x41530, symSize: 0x24 }
  - { offset: 0x124169, size: 0x8, addend: 0x0, symName: '__ZN4core3ptr263drop_in_place$LT$alloc..raw_vec..RawVec$LT$alloc..boxed..Box$LT$dyn$u20$core..ops..function..Fn$LT$$LP$$RF$pyo3..pyclass..create_type_object..PyTypeBuilder$C$$BP$mut$u20$pyo3_ffi..cpython..object..PyTypeObject$RP$$GT$$u2b$Output$u20$$u3d$$u20$$LP$$RP$$GT$$GT$$GT$17he57aa68ef774ed0dE', symObjAddr: 0x347C, symBinAddr: 0x41554, symSize: 0x24 }
  - { offset: 0x124198, size: 0x8, addend: 0x0, symName: '__ZN4core3ptr272drop_in_place$LT$alloc..vec..into_iter..IntoIter$LT$alloc..boxed..Box$LT$dyn$u20$core..ops..function..Fn$LT$$LP$$RF$pyo3..pyclass..create_type_object..PyTypeBuilder$C$$BP$mut$u20$pyo3_ffi..cpython..object..PyTypeObject$RP$$GT$$u2b$Output$u20$$u3d$$u20$$LP$$RP$$GT$$GT$$GT$17h9b498eb05b3ed2c3E', symObjAddr: 0x34C4, symBinAddr: 0x41578, symSize: 0x24 }
  - { offset: 0x1241C7, size: 0x8, addend: 0x0, symName: '__ZN4core3ptr272drop_in_place$LT$lock_api..mutex..MutexGuard$LT$parking_lot..raw_mutex..RawMutex$C$$LP$alloc..vec..Vec$LT$core..ptr..non_null..NonNull$LT$pyo3_ffi..object..PyObject$GT$$GT$$C$alloc..vec..Vec$LT$core..ptr..non_null..NonNull$LT$pyo3_ffi..object..PyObject$GT$$GT$$RP$$GT$$GT$17hd5b0be254a25bc36E', symObjAddr: 0x34E8, symBinAddr: 0x4159C, symSize: 0x24 }
  - { offset: 0x1241F6, size: 0x8, addend: 0x0, symName: '__ZN4core3ptr366drop_in_place$LT$$LT$alloc..vec..into_iter..IntoIter$LT$T$C$A$GT$$u20$as$u20$core..ops..drop..Drop$GT$..drop..DropGuard$LT$alloc..boxed..Box$LT$dyn$u20$core..ops..function..Fn$LT$$LP$$RF$pyo3..pyclass..create_type_object..PyTypeBuilder$C$$BP$mut$u20$pyo3_ffi..cpython..object..PyTypeObject$RP$$GT$$u2b$Output$u20$$u3d$$u20$$LP$$RP$$GT$$C$alloc..alloc..Global$GT$$GT$17h10a2d516223f2c5bE', symObjAddr: 0x350C, symBinAddr: 0x415C0, symSize: 0x24 }
  - { offset: 0x124225, size: 0x8, addend: 0x0, symName: '__ZN4core3ptr37drop_in_place$LT$pyo3..err..PyErr$GT$17h0f43c68ada541fc0E', symObjAddr: 0x3530, symBinAddr: 0x415E4, symSize: 0x24 }
  - { offset: 0x124254, size: 0x8, addend: 0x0, symName: '__ZN4core3ptr39drop_in_place$LT$pyo3..gil..GILPool$GT$17h15ba8b4e5b82623bE', symObjAddr: 0x3554, symBinAddr: 0x41608, symSize: 0x24 }
  - { offset: 0x124283, size: 0x8, addend: 0x0, symName: '__ZN4core3ptr40drop_in_place$LT$pyo3..gil..GILGuard$GT$17hfb26adccc457a7b6E', symObjAddr: 0x3578, symBinAddr: 0x4162C, symSize: 0x24 }
  - { offset: 0x1242B2, size: 0x8, addend: 0x0, symName: '__ZN4core3ptr42drop_in_place$LT$alloc..string..String$GT$17h4331c37a1f98d9dcE', symObjAddr: 0x35C0, symBinAddr: 0x41650, symSize: 0x24 }
  - { offset: 0x1242E1, size: 0x8, addend: 0x0, symName: '__ZN4core3ptr42drop_in_place$LT$core..cell..BorrowRef$GT$17hed2bd549b64b453fE', symObjAddr: 0x35E4, symBinAddr: 0x41674, symSize: 0x24 }
  - { offset: 0x124310, size: 0x8, addend: 0x0, symName: '__ZN4core3ptr45drop_in_place$LT$core..cell..BorrowRefMut$GT$17h1d874bb5fe442740E', symObjAddr: 0x3608, symBinAddr: 0x41698, symSize: 0x24 }
  - { offset: 0x12433F, size: 0x8, addend: 0x0, symName: '__ZN4core3ptr47drop_in_place$LT$pyo3..err..PyDowncastError$GT$17h8f73f34e0c16fd00E', symObjAddr: 0x3698, symBinAddr: 0x416BC, symSize: 0x24 }
  - { offset: 0x12436E, size: 0x8, addend: 0x0, symName: '__ZN4core3ptr48drop_in_place$LT$std..thread..thread..Thread$GT$17h3e8e123daeb51f6aE', symObjAddr: 0x36E0, symBinAddr: 0x416E0, symSize: 0x24 }
  - { offset: 0x12439D, size: 0x8, addend: 0x0, symName: '__ZN4core3ptr50drop_in_place$LT$alloc..borrow..Cow$LT$str$GT$$GT$17h0c8c992c8fae6399E', symObjAddr: 0x3728, symBinAddr: 0x41704, symSize: 0x48 }
  - { offset: 0x1243CC, size: 0x8, addend: 0x0, symName: '__ZN4core3ptr50drop_in_place$LT$pyo3..impl_..panic..PanicTrap$GT$17h969a01a2f93f5790E', symObjAddr: 0x3770, symBinAddr: 0x4174C, symSize: 0x24 }
  - { offset: 0x1243FB, size: 0x8, addend: 0x0, symName: '__ZN4core3ptr51drop_in_place$LT$alloc..vec..Vec$LT$$RF$str$GT$$GT$17h16eae69918c46a93E', symObjAddr: 0x3794, symBinAddr: 0x41770, symSize: 0x5C }
  - { offset: 0x12442A, size: 0x8, addend: 0x0, symName: '__ZN4core3ptr53drop_in_place$LT$$LP$alloc..string..String$C$$RP$$GT$17h47f3aff4d3ba2e3eE', symObjAddr: 0x37F0, symBinAddr: 0x417CC, symSize: 0x24 }
  - { offset: 0x124459, size: 0x8, addend: 0x0, symName: '__ZN4core3ptr53drop_in_place$LT$pyo3..err..err_state..PyErrState$GT$17hdc3380390f689ff4E', symObjAddr: 0x3814, symBinAddr: 0x417F0, symSize: 0xE0 }
  - { offset: 0x124488, size: 0x8, addend: 0x0, symName: '__ZN4core3ptr56drop_in_place$LT$pyo3..err..PyDowncastErrorArguments$GT$17hb15edbad6cbc0978E', symObjAddr: 0x3918, symBinAddr: 0x418D0, symSize: 0x5C }
  - { offset: 0x1244B7, size: 0x8, addend: 0x0, symName: '__ZN4core3ptr58drop_in_place$LT$alloc..raw_vec..RawVec$LT$$RF$str$GT$$GT$17h02038f49d407f86dE', symObjAddr: 0x3974, symBinAddr: 0x4192C, symSize: 0x24 }
  - { offset: 0x1244E6, size: 0x8, addend: 0x0, symName: '__ZN4core3ptr63drop_in_place$LT$pyo3..err..err_state..PyErrStateNormalized$GT$17h477470d47293e4f0E', symObjAddr: 0x39E0, symBinAddr: 0x41950, symSize: 0x90 }
  - { offset: 0x124515, size: 0x8, addend: 0x0, symName: '__ZN4core3ptr65drop_in_place$LT$core..option..Option$LT$pyo3..err..PyErr$GT$$GT$17h41943b16c64d5d42E', symObjAddr: 0x3A70, symBinAddr: 0x419E0, symSize: 0x40 }
  - { offset: 0x124544, size: 0x8, addend: 0x0, symName: '__ZN4core3ptr66drop_in_place$LT$pyo3..impl_..pymethods..PyMethodDefDestructor$GT$17h20c5b5c220031935E', symObjAddr: 0x3AF8, symBinAddr: 0x41A20, symSize: 0x60 }
  - { offset: 0x124573, size: 0x8, addend: 0x0, symName: '__ZN4core3ptr68drop_in_place$LT$core..option..Option$LT$pyo3..gil..GILGuard$GT$$GT$17h95fab76e6e959d13E', symObjAddr: 0x3B58, symBinAddr: 0x41A80, symSize: 0x44 }
  - { offset: 0x1245A2, size: 0x8, addend: 0x0, symName: '__ZN4core3ptr69drop_in_place$LT$alloc..borrow..Cow$LT$core..ffi..c_str..CStr$GT$$GT$17h78a3af8fcbe16a62E', symObjAddr: 0x3B9C, symBinAddr: 0x41AC4, symSize: 0x40 }
  - { offset: 0x1245D1, size: 0x8, addend: 0x0, symName: '__ZN4core3ptr69drop_in_place$LT$alloc..vec..Vec$LT$std..thread..id..ThreadId$GT$$GT$17h1c32db7ba6591961E', symObjAddr: 0x3BDC, symBinAddr: 0x41B04, symSize: 0x5C }
  - { offset: 0x124600, size: 0x8, addend: 0x0, symName: '__ZN4core3ptr69drop_in_place$LT$pyo3..pyclass..create_type_object..GetSetDefType$GT$17h1ab6ee3f512a83e0E', symObjAddr: 0x3C5C, symBinAddr: 0x41B60, symSize: 0x48 }
  - { offset: 0x12462F, size: 0x8, addend: 0x0, symName: '__ZN4core3ptr69drop_in_place$LT$pyo3..pyclass..create_type_object..PyTypeBuilder$GT$17h3e801c72d68ab921E', symObjAddr: 0x3CA4, symBinAddr: 0x41BA8, symSize: 0xC0 }
  - { offset: 0x12465E, size: 0x8, addend: 0x0, symName: '__ZN4core3ptr70drop_in_place$LT$pyo3..instance..Py$LT$pyo3..types..any..PyAny$GT$$GT$17ha83a09bab2ae711eE', symObjAddr: 0x3D64, symBinAddr: 0x41C68, symSize: 0x24 }
  - { offset: 0x12468D, size: 0x8, addend: 0x0, symName: '__ZN4core3ptr71drop_in_place$LT$core..result..Result$LT$i64$C$pyo3..err..PyErr$GT$$GT$17h036e424395d6f254E', symObjAddr: 0x3DAC, symBinAddr: 0x41C8C, symSize: 0x40 }
  - { offset: 0x1246BC, size: 0x8, addend: 0x0, symName: '__ZN4core3ptr72drop_in_place$LT$core..result..Result$LT$bool$C$pyo3..err..PyErr$GT$$GT$17h0d929cb94e63d0ebE', symObjAddr: 0x3EAC, symBinAddr: 0x41CCC, symSize: 0x40 }
  - { offset: 0x1246EB, size: 0x8, addend: 0x0, symName: '__ZN4core3ptr73drop_in_place$LT$alloc..vec..Vec$LT$pyo3_ffi..object..PyType_Slot$GT$$GT$17hce6c3f0e948daecfE', symObjAddr: 0x3EEC, symBinAddr: 0x41D0C, symSize: 0x5C }
  - { offset: 0x12471A, size: 0x8, addend: 0x0, symName: '__ZN4core3ptr73drop_in_place$LT$pyo3..pyclass..create_type_object..PyClassTypeObject$GT$17hb83450b9c3c8701dE', symObjAddr: 0x3F48, symBinAddr: 0x41D68, symSize: 0x5C }
  - { offset: 0x124749, size: 0x8, addend: 0x0, symName: '__ZN4core3ptr74drop_in_place$LT$pyo3..instance..Py$LT$pyo3..types..tuple..PyTuple$GT$$GT$17h6a67c4a648dbcfacE', symObjAddr: 0x3FC8, symBinAddr: 0x41DC4, symSize: 0x24 }
  - { offset: 0x124778, size: 0x8, addend: 0x0, symName: '__ZN4core3ptr75drop_in_place$LT$core..option..Option$LT$alloc..ffi..c_str..CString$GT$$GT$17h43d38042b8a61481E', symObjAddr: 0x3FEC, symBinAddr: 0x41DE8, symSize: 0x44 }
  - { offset: 0x1247A7, size: 0x8, addend: 0x0, symName: '__ZN4core3ptr75drop_in_place$LT$core..result..Result$LT$$RF$str$C$pyo3..err..PyErr$GT$$GT$17h15b09bacc09500e8E', symObjAddr: 0x4030, symBinAddr: 0x41E2C, symSize: 0x40 }
  - { offset: 0x1247D6, size: 0x8, addend: 0x0, symName: '__ZN4core3ptr75drop_in_place$LT$pyo3..pyclass..create_type_object..GetSetDefDestructor$GT$17hb43a70446d92bbacE', symObjAddr: 0x4070, symBinAddr: 0x41E6C, symSize: 0x90 }
  - { offset: 0x124805, size: 0x8, addend: 0x0, symName: '__ZN4core3ptr76drop_in_place$LT$alloc..raw_vec..RawVec$LT$std..thread..id..ThreadId$GT$$GT$17h4daadb0f6bd24ab5E', symObjAddr: 0x4100, symBinAddr: 0x41EFC, symSize: 0x24 }
  - { offset: 0x124834, size: 0x8, addend: 0x0, symName: '__ZN4core3ptr76drop_in_place$LT$core..result..Result$LT$$LP$$RP$$C$pyo3..err..PyErr$GT$$GT$17hc58be03dd5a141f7E', symObjAddr: 0x4124, symBinAddr: 0x41F20, symSize: 0x40 }
  - { offset: 0x124863, size: 0x8, addend: 0x0, symName: '__ZN4core3ptr76drop_in_place$LT$pyo3..instance..Py$LT$pyo3..types..module..PyModule$GT$$GT$17hb6de43bd2dde8c43E', symObjAddr: 0x4164, symBinAddr: 0x41F60, symSize: 0x24 }
  - { offset: 0x124892, size: 0x8, addend: 0x0, symName: '__ZN4core3ptr76drop_in_place$LT$pyo3..instance..Py$LT$pyo3..types..string..PyString$GT$$GT$17hef067620140110bdE', symObjAddr: 0x4188, symBinAddr: 0x41F84, symSize: 0x24 }
  - { offset: 0x1248C1, size: 0x8, addend: 0x0, symName: '__ZN4core3ptr78drop_in_place$LT$alloc..vec..Vec$LT$pyo3_ffi..descrobject..PyGetSetDef$GT$$GT$17he7616a58627497ceE', symObjAddr: 0x41AC, symBinAddr: 0x41FA8, symSize: 0x5C }
  - { offset: 0x1248F0, size: 0x8, addend: 0x0, symName: '__ZN4core3ptr78drop_in_place$LT$alloc..vec..Vec$LT$pyo3_ffi..descrobject..PyMemberDef$GT$$GT$17h50240379208014f5E', symObjAddr: 0x4208, symBinAddr: 0x42004, symSize: 0x5C }
  - { offset: 0x12491F, size: 0x8, addend: 0x0, symName: '__ZN4core3ptr78drop_in_place$LT$pyo3..instance..Py$LT$pyo3..types..typeobject..PyType$GT$$GT$17hb66fbaa53d199d76E', symObjAddr: 0x4288, symBinAddr: 0x42060, symSize: 0x24 }
  - { offset: 0x12494E, size: 0x8, addend: 0x0, symName: '__ZN4core3ptr79drop_in_place$LT$alloc..vec..Vec$LT$pyo3_ffi..methodobject..PyMethodDef$GT$$GT$17h88810ef7171ebb07E', symObjAddr: 0x42AC, symBinAddr: 0x42084, symSize: 0x5C }
  - { offset: 0x12497D, size: 0x8, addend: 0x0, symName: '__ZN4core3ptr80drop_in_place$LT$$u5b$pyo3..instance..Py$LT$pyo3..types..any..PyAny$GT$$u5d$$GT$17h9ee9a01b3d203f81E', symObjAddr: 0x4308, symBinAddr: 0x420E0, symSize: 0xB4 }
  - { offset: 0x1249AC, size: 0x8, addend: 0x0, symName: '__ZN4core3ptr80drop_in_place$LT$alloc..raw_vec..RawVec$LT$pyo3_ffi..object..PyType_Slot$GT$$GT$17hee4d541e9e563f7dE', symObjAddr: 0x43BC, symBinAddr: 0x42194, symSize: 0x24 }
  - { offset: 0x1249DB, size: 0x8, addend: 0x0, symName: '__ZN4core3ptr80drop_in_place$LT$pyo3..instance..Py$LT$pyo3..exceptions..PyBaseException$GT$$GT$17hc963dfde00fc1799E', symObjAddr: 0x43E0, symBinAddr: 0x421B8, symSize: 0x24 }
  - { offset: 0x124A0A, size: 0x8, addend: 0x0, symName: '__ZN4core3ptr81drop_in_place$LT$core..option..Option$LT$pyo3..err..err_state..PyErrState$GT$$GT$17hf4ed031b5d92fc32E', symObjAddr: 0x4470, symBinAddr: 0x421DC, symSize: 0x44 }
  - { offset: 0x124A39, size: 0x8, addend: 0x0, symName: '__ZN4core3ptr82drop_in_place$LT$pyo3..instance..Py$LT$pyo3..types..traceback..PyTraceback$GT$$GT$17h263428515d26b176E', symObjAddr: 0x44D8, symBinAddr: 0x42220, symSize: 0x24 }
  - { offset: 0x124A68, size: 0x8, addend: 0x0, symName: '__ZN4core3ptr85drop_in_place$LT$$u5b$pyo3..pyclass..create_type_object..GetSetDefDestructor$u5d$$GT$17hd4b96aa9969f8478E', symObjAddr: 0x44FC, symBinAddr: 0x42244, symSize: 0xB4 }
  - { offset: 0x124A97, size: 0x8, addend: 0x0, symName: '__ZN4core3ptr85drop_in_place$LT$alloc..raw_vec..RawVec$LT$pyo3_ffi..descrobject..PyGetSetDef$GT$$GT$17hbb7c94ec42b44ef1E', symObjAddr: 0x45B0, symBinAddr: 0x422F8, symSize: 0x24 }
  - { offset: 0x124AC6, size: 0x8, addend: 0x0, symName: '__ZN4core3ptr85drop_in_place$LT$alloc..raw_vec..RawVec$LT$pyo3_ffi..descrobject..PyMemberDef$GT$$GT$17hc2462a1e01793569E', symObjAddr: 0x45D4, symBinAddr: 0x4231C, symSize: 0x24 }
  - { offset: 0x124AF5, size: 0x8, addend: 0x0, symName: '__ZN4core3ptr86drop_in_place$LT$alloc..raw_vec..RawVec$LT$pyo3_ffi..methodobject..PyMethodDef$GT$$GT$17hb9bdbe9dc9e17ce5E', symObjAddr: 0x45F8, symBinAddr: 0x42340, symSize: 0x24 }
  - { offset: 0x124B24, size: 0x8, addend: 0x0, symName: '__ZN4core3ptr91drop_in_place$LT$$u5b$pyo3..instance..Py$LT$pyo3..types..any..PyAny$GT$$u3b$$u20$1$u5d$$GT$17hedba16e1b9786e15E', symObjAddr: 0x461C, symBinAddr: 0x42364, symSize: 0xA4 }
  - { offset: 0x124B53, size: 0x8, addend: 0x0, symName: '__ZN4core3ptr91drop_in_place$LT$$u5b$pyo3..instance..Py$LT$pyo3..types..any..PyAny$GT$$u3b$$u20$2$u5d$$GT$17h65a2c8eef280bd96E', symObjAddr: 0x46C0, symBinAddr: 0x42408, symSize: 0xA4 }
  - { offset: 0x124B82, size: 0x8, addend: 0x0, symName: '__ZN4core3ptr91drop_in_place$LT$alloc..boxed..Box$LT$dyn$u20$core..any..Any$u2b$core..marker..Send$GT$$GT$17h7ea94539dbce66cdE', symObjAddr: 0x4764, symBinAddr: 0x424AC, symSize: 0x80 }
  - { offset: 0x124BB1, size: 0x8, addend: 0x0, symName: '__ZN4core3ptr92drop_in_place$LT$alloc..sync..Arc$LT$std..thread..thread..Inner$C$std..alloc..System$GT$$GT$17h1daa19cd16e5b5ceE', symObjAddr: 0x4824, symBinAddr: 0x4252C, symSize: 0x24 }
  - { offset: 0x124BE0, size: 0x8, addend: 0x0, symName: '__ZN4core3ptr93drop_in_place$LT$core..result..Result$LT$core..convert..Infallible$C$pyo3..err..PyErr$GT$$GT$17hf548870fda60b6c3E', symObjAddr: 0x4888, symBinAddr: 0x42550, symSize: 0x30 }
  - { offset: 0x124C0F, size: 0x8, addend: 0x0, symName: '__ZN4core3ptr95drop_in_place$LT$core..cell..RefMut$LT$alloc..vec..Vec$LT$std..thread..id..ThreadId$GT$$GT$$GT$17h085da80182e43af0E', symObjAddr: 0x48B8, symBinAddr: 0x42580, symSize: 0x24 }
  - { offset: 0x124C3E, size: 0x8, addend: 0x0, symName: '__ZN4core3ptr95drop_in_place$LT$core..result..Result$LT$$RF$pyo3..types..any..PyAny$C$pyo3..err..PyErr$GT$$GT$17h5ad27606286c2408E', symObjAddr: 0x48DC, symBinAddr: 0x425A4, symSize: 0x40 }
  - { offset: 0x124C6D, size: 0x8, addend: 0x0, symName: '__ZN4core3ptr96drop_in_place$LT$alloc..boxed..Box$LT$pyo3..pyclass..create_type_object..GetterAndSetter$GT$$GT$17h973d28d200f79599E', symObjAddr: 0x491C, symBinAddr: 0x425E4, symSize: 0x2C }
  - { offset: 0x124C9C, size: 0x8, addend: 0x0, symName: '__ZN4core3ptr97drop_in_place$LT$core..option..Option$LT$alloc..borrow..Cow$LT$core..ffi..c_str..CStr$GT$$GT$$GT$17h6b6ff589ea73231dE', symObjAddr: 0x4948, symBinAddr: 0x42610, symSize: 0x44 }
  - { offset: 0x124CCB, size: 0x8, addend: 0x0, symName: '__ZN4core3ptr98drop_in_place$LT$alloc..vec..Vec$LT$pyo3..pyclass..create_type_object..GetSetDefDestructor$GT$$GT$17h2c2deb05e4a483fbE', symObjAddr: 0x498C, symBinAddr: 0x42654, symSize: 0x5C }
  - { offset: 0x124CFA, size: 0x8, addend: 0x0, symName: '__ZN4core3ptr98drop_in_place$LT$core..option..Option$LT$pyo3..instance..Py$LT$pyo3..types..any..PyAny$GT$$GT$$GT$17heb44988ff2545065E', symObjAddr: 0x49E8, symBinAddr: 0x426B0, symSize: 0x44 }
  - { offset: 0x1250D5, size: 0x8, addend: 0x0, symName: '__ZN4core3cmp5impls54_$LT$impl$u20$core..cmp..PartialEq$u20$for$u20$i32$GT$2ne17h787bc94b20a657a2E', symObjAddr: 0xF9C, symBinAddr: 0x3FD74, symSize: 0x2C }
  - { offset: 0x125118, size: 0x8, addend: 0x0, symName: '__ZN4core3cmp5impls54_$LT$impl$u20$core..cmp..PartialEq$u20$for$u20$i64$GT$2eq17hc6617b8c284b502dE', symObjAddr: 0xFC8, symBinAddr: 0x3FDA0, symSize: 0x2C }
  - { offset: 0x125155, size: 0x8, addend: 0x0, symName: '__ZN4core3cmp5impls54_$LT$impl$u20$core..cmp..PartialEq$u20$for$u20$i64$GT$2ne17haa07d21667662ed3E', symObjAddr: 0xFF4, symBinAddr: 0x3FDCC, symSize: 0x2C }
  - { offset: 0x125198, size: 0x8, addend: 0x0, symName: '__ZN4core3cmp5impls56_$LT$impl$u20$core..cmp..PartialEq$u20$for$u20$isize$GT$2ne17h4578f99d11a7a091E', symObjAddr: 0x1088, symBinAddr: 0x3FDF8, symSize: 0x2C }
  - { offset: 0x12525F, size: 0x8, addend: 0x0, symName: '__ZN4core3cmp5impls69_$LT$impl$u20$core..cmp..PartialEq$LT$$RF$B$GT$$u20$for$u20$$RF$A$GT$2eq17h07494e77dd6d5065E', symObjAddr: 0x10E0, symBinAddr: 0x3FE24, symSize: 0x44 }
  - { offset: 0x1252E9, size: 0x8, addend: 0x0, symName: '__ZN102_$LT$core..iter..adapters..zip..Zip$LT$A$C$B$GT$$u20$as$u20$core..iter..traits..iterator..Iterator$GT$4next17haf50b6f972e2f0cfE', symObjAddr: 0x4C, symBinAddr: 0x3F364, symSize: 0x24 }
  - { offset: 0x125327, size: 0x8, addend: 0x0, symName: '__ZN102_$LT$core..iter..adapters..zip..Zip$LT$A$C$B$GT$$u20$as$u20$core..iter..traits..iterator..Iterator$GT$4next17he1621bb7221343eeE', symObjAddr: 0x70, symBinAddr: 0x3F388, symSize: 0x24 }
  - { offset: 0x125365, size: 0x8, addend: 0x0, symName: '__ZN102_$LT$core..iter..adapters..zip..Zip$LT$A$C$B$GT$$u20$as$u20$core..iter..traits..iterator..Iterator$GT$9size_hint17hb47b61fc6d44c2f4E', symObjAddr: 0xB8, symBinAddr: 0x3F3AC, symSize: 0x24 }
  - { offset: 0x1253A3, size: 0x8, addend: 0x0, symName: '__ZN102_$LT$core..iter..adapters..zip..Zip$LT$A$C$B$GT$$u20$as$u20$core..iter..traits..iterator..Iterator$GT$9size_hint17hd2cca0766e3b038fE', symObjAddr: 0xDC, symBinAddr: 0x3F3D0, symSize: 0x24 }
  - { offset: 0x1253E7, size: 0x8, addend: 0x0, symName: '__ZN111_$LT$core..iter..adapters..zip..Zip$LT$A$C$B$GT$$u20$as$u20$core..iter..adapters..zip..ZipImpl$LT$A$C$B$GT$$GT$3new17hf44a981104f34732E', symObjAddr: 0x78C, symBinAddr: 0x3F814, symSize: 0xBC }
  - { offset: 0x12547A, size: 0x8, addend: 0x0, symName: '__ZN111_$LT$core..iter..adapters..zip..Zip$LT$A$C$B$GT$$u20$as$u20$core..iter..adapters..zip..ZipImpl$LT$A$C$B$GT$$GT$4next17h441571fae5247e02E', symObjAddr: 0x848, symBinAddr: 0x3F8D0, symSize: 0xB0 }
  - { offset: 0x1254D0, size: 0x8, addend: 0x0, symName: '__ZN111_$LT$core..iter..adapters..zip..Zip$LT$A$C$B$GT$$u20$as$u20$core..iter..adapters..zip..ZipImpl$LT$A$C$B$GT$$GT$9size_hint17h8408a405e078e366E', symObjAddr: 0xC0C, symBinAddr: 0x3FB8C, symSize: 0x34 }
  - { offset: 0x125516, size: 0x8, addend: 0x0, symName: '__ZN111_$LT$core..iter..adapters..zip..Zip$LT$A$C$B$GT$$u20$as$u20$core..iter..adapters..zip..ZipImpl$LT$A$C$B$GT$$GT$3new17h2c339077fb152381E', symObjAddr: 0x750, symBinAddr: 0x3F7D8, symSize: 0x3C }
  - { offset: 0x125562, size: 0x8, addend: 0x0, symName: '__ZN111_$LT$core..iter..adapters..zip..Zip$LT$A$C$B$GT$$u20$as$u20$core..iter..adapters..zip..ZipImpl$LT$A$C$B$GT$$GT$4next17h4c382002d6f65a6dE', symObjAddr: 0x8F8, symBinAddr: 0x3F980, symSize: 0xE0 }
  - { offset: 0x1256C3, size: 0x8, addend: 0x0, symName: '__ZN111_$LT$core..iter..adapters..zip..Zip$LT$A$C$B$GT$$u20$as$u20$core..iter..adapters..zip..ZipImpl$LT$A$C$B$GT$$GT$9size_hint17h0c1de5afe920cbc5E', symObjAddr: 0xAE0, symBinAddr: 0x3FA60, symSize: 0x12C }
  - { offset: 0x125A06, size: 0x8, addend: 0x0, symName: __ZN4core4iter6traits8iterator8Iterator10filter_map17h14ee3f6008fe021bE, symObjAddr: 0x4A44, symBinAddr: 0x4270C, symSize: 0x30 }
  - { offset: 0x125A74, size: 0x8, addend: 0x0, symName: __ZN4core4iter6traits8iterator8Iterator10filter_map17h5bc95d374452f1cdE, symObjAddr: 0x4A74, symBinAddr: 0x4273C, symSize: 0x30 }
  - { offset: 0x125AE2, size: 0x8, addend: 0x0, symName: __ZN4core4iter6traits8iterator8Iterator8find_map17h870496df5a4890fcE, symObjAddr: 0x4B60, symBinAddr: 0x4276C, symSize: 0x8C }
  - { offset: 0x125B6A, size: 0x8, addend: 0x0, symName: __ZN4core4iter6traits8iterator8Iterator8find_map17hdd430575e5c773e7E, symObjAddr: 0x4BEC, symBinAddr: 0x427F8, symSize: 0x8C }
  - { offset: 0x125BF2, size: 0x8, addend: 0x0, symName: __ZN4core4iter6traits8iterator8Iterator8try_fold17h2f87a8f7670708b6E, symObjAddr: 0x4C78, symBinAddr: 0x42884, symSize: 0x190 }
  - { offset: 0x125CA8, size: 0x8, addend: 0x0, symName: __ZN4core4iter6traits8iterator8Iterator8try_fold17h3d9012f11150f941E, symObjAddr: 0x4E08, symBinAddr: 0x42A14, symSize: 0x190 }
  - { offset: 0x127F1D, size: 0x8, addend: 0x0, symName: __ZN4core3ops8function5FnMut8call_mut17h0a661fa92733bee1E, symObjAddr: 0x1690, symBinAddr: 0x40218, symSize: 0x48 }
  - { offset: 0x127F67, size: 0x8, addend: 0x0, symName: '__ZN4core3ops8function6FnOnce40call_once$u7b$$u7b$vtable.shim$u7d$$u7d$17h0bebe60755ee1a01E', symObjAddr: 0x1708, symBinAddr: 0x40260, symSize: 0x24 }
  - { offset: 0x127FAB, size: 0x8, addend: 0x0, symName: '__ZN4core3ops8function6FnOnce40call_once$u7b$$u7b$vtable.shim$u7d$$u7d$17h15cb7da0834f1123E', symObjAddr: 0x1790, symBinAddr: 0x40284, symSize: 0x24 }
  - { offset: 0x127FEF, size: 0x8, addend: 0x0, symName: '__ZN4core3ops8function6FnOnce40call_once$u7b$$u7b$vtable.shim$u7d$$u7d$17h2b0daaa608f07c48E', symObjAddr: 0x1824, symBinAddr: 0x402A8, symSize: 0x30 }
  - { offset: 0x12802F, size: 0x8, addend: 0x0, symName: '__ZN4core3ops8function6FnOnce40call_once$u7b$$u7b$vtable.shim$u7d$$u7d$17h2e69c95db547131fE', symObjAddr: 0x187C, symBinAddr: 0x402D8, symSize: 0x30 }
  - { offset: 0x128073, size: 0x8, addend: 0x0, symName: '__ZN4core3ops8function6FnOnce40call_once$u7b$$u7b$vtable.shim$u7d$$u7d$17h4145c2fcc7c51322E', symObjAddr: 0x1924, symBinAddr: 0x40308, symSize: 0x30 }
  - { offset: 0x1280B7, size: 0x8, addend: 0x0, symName: '__ZN4core3ops8function6FnOnce40call_once$u7b$$u7b$vtable.shim$u7d$$u7d$17h4f5734537cbe94ebE', symObjAddr: 0x19C8, symBinAddr: 0x40338, symSize: 0x30 }
  - { offset: 0x1280F7, size: 0x8, addend: 0x0, symName: '__ZN4core3ops8function6FnOnce40call_once$u7b$$u7b$vtable.shim$u7d$$u7d$17h58c41edf851522d0E', symObjAddr: 0x19F8, symBinAddr: 0x40368, symSize: 0x38 }
  - { offset: 0x12813B, size: 0x8, addend: 0x0, symName: '__ZN4core3ops8function6FnOnce40call_once$u7b$$u7b$vtable.shim$u7d$$u7d$17h67ac8d1c6c017c10E', symObjAddr: 0x1A30, symBinAddr: 0x403A0, symSize: 0x30 }
  - { offset: 0x12817F, size: 0x8, addend: 0x0, symName: '__ZN4core3ops8function6FnOnce40call_once$u7b$$u7b$vtable.shim$u7d$$u7d$17h7686d0a298a4a195E', symObjAddr: 0x1A60, symBinAddr: 0x403D0, symSize: 0x24 }
  - { offset: 0x1281C3, size: 0x8, addend: 0x0, symName: '__ZN4core3ops8function6FnOnce40call_once$u7b$$u7b$vtable.shim$u7d$$u7d$17h904921d33153cfd2E', symObjAddr: 0x1ADC, symBinAddr: 0x403F4, symSize: 0x24 }
  - { offset: 0x128207, size: 0x8, addend: 0x0, symName: '__ZN4core3ops8function6FnOnce40call_once$u7b$$u7b$vtable.shim$u7d$$u7d$17hb48b4e98ef69148cE', symObjAddr: 0x1B28, symBinAddr: 0x40418, symSize: 0x30 }
  - { offset: 0x12824B, size: 0x8, addend: 0x0, symName: '__ZN4core3ops8function6FnOnce40call_once$u7b$$u7b$vtable.shim$u7d$$u7d$17hd851eb9b001ede2dE', symObjAddr: 0x1C40, symBinAddr: 0x40448, symSize: 0x38 }
  - { offset: 0x12828F, size: 0x8, addend: 0x0, symName: '__ZN4core3ops8function6FnOnce40call_once$u7b$$u7b$vtable.shim$u7d$$u7d$17he92321a06b447c49E', symObjAddr: 0x1C9C, symBinAddr: 0x40480, symSize: 0x24 }
  - { offset: 0x1282D3, size: 0x8, addend: 0x0, symName: __ZN4core3ops8function6FnOnce9call_once17h10a76619ed6966d2E, symObjAddr: 0x1D80, symBinAddr: 0x404A4, symSize: 0x4C }
  - { offset: 0x128317, size: 0x8, addend: 0x0, symName: __ZN4core3ops8function6FnOnce9call_once17h1a33ff5d241d684eE, symObjAddr: 0x1DCC, symBinAddr: 0x404F0, symSize: 0x2C }
  - { offset: 0x12835B, size: 0x8, addend: 0x0, symName: __ZN4core3ops8function6FnOnce9call_once17h3d0b618e6784b421E, symObjAddr: 0x1DF8, symBinAddr: 0x4051C, symSize: 0x4C }
  - { offset: 0x12839F, size: 0x8, addend: 0x0, symName: __ZN4core3ops8function6FnOnce9call_once17h420a2660647b6ee8E, symObjAddr: 0x1E44, symBinAddr: 0x40568, symSize: 0x4C }
  - { offset: 0x1283DF, size: 0x8, addend: 0x0, symName: __ZN4core3ops8function6FnOnce9call_once17h436dc809381f1e7cE, symObjAddr: 0x1E90, symBinAddr: 0x405B4, symSize: 0x24 }
  - { offset: 0x128423, size: 0x8, addend: 0x0, symName: __ZN4core3ops8function6FnOnce9call_once17h45db342d8f6488ccE, symObjAddr: 0x1EB4, symBinAddr: 0x405D8, symSize: 0x34 }
  - { offset: 0x128467, size: 0x8, addend: 0x0, symName: __ZN4core3ops8function6FnOnce9call_once17h5ee12acedf72a755E, symObjAddr: 0x1EE8, symBinAddr: 0x4060C, symSize: 0x24 }
  - { offset: 0x1284AB, size: 0x8, addend: 0x0, symName: __ZN4core3ops8function6FnOnce9call_once17h607cab2c616b57c5E, symObjAddr: 0x1F0C, symBinAddr: 0x40630, symSize: 0x1C }
  - { offset: 0x1284EF, size: 0x8, addend: 0x0, symName: __ZN4core3ops8function6FnOnce9call_once17h64bd3c137f588db4E, symObjAddr: 0x1F28, symBinAddr: 0x4064C, symSize: 0x24 }
  - { offset: 0x128533, size: 0x8, addend: 0x0, symName: __ZN4core3ops8function6FnOnce9call_once17h7245bf2668ab26c9E, symObjAddr: 0x1F4C, symBinAddr: 0x40670, symSize: 0x58 }
  - { offset: 0x128577, size: 0x8, addend: 0x0, symName: __ZN4core3ops8function6FnOnce9call_once17h7a11a7f5a164b76aE, symObjAddr: 0x1FA4, symBinAddr: 0x406C8, symSize: 0x2C }
  - { offset: 0x1285BB, size: 0x8, addend: 0x0, symName: __ZN4core3ops8function6FnOnce9call_once17h96610999e41869feE, symObjAddr: 0x1FFC, symBinAddr: 0x406F4, symSize: 0x4C }
  - { offset: 0x1285FB, size: 0x8, addend: 0x0, symName: __ZN4core3ops8function6FnOnce9call_once17ha78db1224e20b5c2E, symObjAddr: 0x2090, symBinAddr: 0x40740, symSize: 0x34 }
  - { offset: 0x12863F, size: 0x8, addend: 0x0, symName: __ZN4core3ops8function6FnOnce9call_once17hae003974d35f159eE, symObjAddr: 0x20C4, symBinAddr: 0x40774, symSize: 0x3C }
  - { offset: 0x128683, size: 0x8, addend: 0x0, symName: __ZN4core3ops8function6FnOnce9call_once17hb362cdab2f7eb939E, symObjAddr: 0x2100, symBinAddr: 0x407B0, symSize: 0x2C }
  - { offset: 0x1286E4, size: 0x8, addend: 0x0, symName: __ZN4core3ops8function6FnOnce9call_once17hc7c922b37a200283E, symObjAddr: 0x2158, symBinAddr: 0x407DC, symSize: 0x5C }
  - { offset: 0x128728, size: 0x8, addend: 0x0, symName: __ZN4core3ops8function6FnOnce9call_once17hd5b5886758fe73aeE, symObjAddr: 0x21B4, symBinAddr: 0x40838, symSize: 0x2C }
  - { offset: 0x12876C, size: 0x8, addend: 0x0, symName: __ZN4core3ops8function6FnOnce9call_once17he0c4533aa3131c7cE, symObjAddr: 0x21E0, symBinAddr: 0x40864, symSize: 0x4C }
  - { offset: 0x128820, size: 0x8, addend: 0x0, symName: '__ZN4core7convert3num67_$LT$impl$u20$core..convert..TryFrom$LT$u64$GT$$u20$for$u20$u32$GT$8try_from17h9f3b5eafd56de8a3E', symObjAddr: 0x5680, symBinAddr: 0x42E14, symSize: 0x5C }
  - { offset: 0x128854, size: 0x8, addend: 0x0, symName: '__ZN4core7convert3num71_$LT$impl$u20$core..convert..TryFrom$LT$usize$GT$$u20$for$u20$isize$GT$8try_from17h85a0351467e74666E', symObjAddr: 0x56DC, symBinAddr: 0x42E70, symSize: 0x5C }
  - { offset: 0x12888F, size: 0x8, addend: 0x0, symName: '__ZN42_$LT$$RF$T$u20$as$u20$core..fmt..Debug$GT$3fmt17ha007f864d71b19daE', symObjAddr: 0xDE4, symBinAddr: 0x3FD04, symSize: 0x30 }
  - { offset: 0x1288DB, size: 0x8, addend: 0x0, symName: '__ZN45_$LT$$LP$$RP$$u20$as$u20$core..fmt..Debug$GT$3fmt17he3652fd072738140E', symObjAddr: 0xE44, symBinAddr: 0x3FD34, symSize: 0x40 }
  - { offset: 0x128DEB, size: 0x8, addend: 0x0, symName: '__ZN53_$LT$core..fmt..Error$u20$as$u20$core..fmt..Debug$GT$3fmt17h95878b85e034d4eaE', symObjAddr: 0x6358, symBinAddr: 0x43888, symSize: 0x40 }
  - { offset: 0x128E30, size: 0x8, addend: 0x0, symName: '__ZN54_$LT$$BP$const$u20$T$u20$as$u20$core..fmt..Pointer$GT$3fmt28_$u7b$$u7b$closure$u7d$$u7d$17hc9a2f72ae33a9bf0E', symObjAddr: 0x6398, symBinAddr: 0x438C8, symSize: 0x34 }
  - { offset: 0x129935, size: 0x8, addend: 0x0, symName: __ZN4core5slice3raw14from_raw_parts17hf289db9f9404b6e8E, symObjAddr: 0x50E8, symBinAddr: 0x42BA4, symSize: 0x58 }
  - { offset: 0x12997D, size: 0x8, addend: 0x0, symName: __ZN4core5slice3raw14from_raw_parts18precondition_check17h012ca36e256cf4e0E, symObjAddr: 0x5140, symBinAddr: 0x42BFC, symSize: 0x10C }
  - { offset: 0x129A99, size: 0x8, addend: 0x0, symName: __ZN4core5slice3raw18from_raw_parts_mut18precondition_check17h7513c0a9806cad34E, symObjAddr: 0x52A4, symBinAddr: 0x42D08, symSize: 0x10C }
  - { offset: 0x129C64, size: 0x8, addend: 0x0, symName: __ZN4core3str8converts19from_utf8_unchecked17hfd6cb9c9bcbd81edE, symObjAddr: 0x4A2C, symBinAddr: 0x426F4, symSize: 0x18 }
  - { offset: 0x12A6C5, size: 0x8, addend: 0x0, symName: __ZN8pyo3_ffi10boolobject12PyBool_Check17h2faef384bb967b04E, symObjAddr: 0x6D14, symBinAddr: 0x43CB4, symSize: 0x34 }
  - { offset: 0x12A6F1, size: 0x8, addend: 0x0, symName: __ZN8pyo3_ffi10boolobject7Py_True17hf0f23abb82f7d1feE, symObjAddr: 0x6D48, symBinAddr: 0x43CE8, symSize: 0xC }
  - { offset: 0x12A714, size: 0x8, addend: 0x0, symName: __ZN8pyo3_ffi10dictobject12PyDict_Check17heb305b854b9b06e1E, symObjAddr: 0x6D54, symBinAddr: 0x43CF4, symSize: 0x30 }
  - { offset: 0x12B357, size: 0x8, addend: 0x0, symName: __ZN4pyo35impl_10trampoline10trampoline17h066942939ac81197E, symObjAddr: 0x599C, symBinAddr: 0x42ECC, symSize: 0x164 }
  - { offset: 0x12B3FB, size: 0x8, addend: 0x0, symName: __ZN4pyo35impl_10trampoline10trampoline17h6e44319a1beac6d5E, symObjAddr: 0x5B00, symBinAddr: 0x43030, symSize: 0x168 }
  - { offset: 0x12B49F, size: 0x8, addend: 0x0, symName: __ZN4pyo35impl_10trampoline10trampoline17h842ea3f4e9f45f08E, symObjAddr: 0x5C68, symBinAddr: 0x43198, symSize: 0x168 }
  - { offset: 0x12B543, size: 0x8, addend: 0x0, symName: __ZN4pyo35impl_10trampoline10trampoline17hd78d4cdb4bd55a84E, symObjAddr: 0x5DD0, symBinAddr: 0x43300, symSize: 0x14C }
  - { offset: 0x12B5E5, size: 0x8, addend: 0x0, symName: __ZN4pyo35impl_10trampoline10trampoline17hf9b070238daf4447E, symObjAddr: 0x5F1C, symBinAddr: 0x4344C, symSize: 0x164 }
  - { offset: 0x12B68E, size: 0x8, addend: 0x0, symName: '__ZN4pyo35impl_10trampoline10trampoline28_$u7b$$u7b$closure$u7d$$u7d$17h083ae4f542079344E', symObjAddr: 0x6080, symBinAddr: 0x435B0, symSize: 0x2C }
  - { offset: 0x12B6DC, size: 0x8, addend: 0x0, symName: '__ZN4pyo35impl_10trampoline10trampoline28_$u7b$$u7b$closure$u7d$$u7d$17h233971afabf897afE', symObjAddr: 0x60AC, symBinAddr: 0x435DC, symSize: 0x2C }
  - { offset: 0x12B72A, size: 0x8, addend: 0x0, symName: '__ZN4pyo35impl_10trampoline10trampoline28_$u7b$$u7b$closure$u7d$$u7d$17h56e97cb4ce401e0cE', symObjAddr: 0x60D8, symBinAddr: 0x43608, symSize: 0x34 }
  - { offset: 0x12B779, size: 0x8, addend: 0x0, symName: '__ZN4pyo35impl_10trampoline10trampoline28_$u7b$$u7b$closure$u7d$$u7d$17h9db97f5f1f8d425fE', symObjAddr: 0x610C, symBinAddr: 0x4363C, symSize: 0x1C }
  - { offset: 0x12B7C7, size: 0x8, addend: 0x0, symName: '__ZN4pyo35impl_10trampoline10trampoline28_$u7b$$u7b$closure$u7d$$u7d$17ha1db600ba4b1e2d1E', symObjAddr: 0x6128, symBinAddr: 0x43658, symSize: 0x34 }
  - { offset: 0x12B817, size: 0x8, addend: 0x0, symName: __ZN4pyo35impl_10trampoline33panic_result_into_callback_output17h5eb517139cb9fc14E, symObjAddr: 0x615C, symBinAddr: 0x4368C, symSize: 0xF8 }
  - { offset: 0x12B8DA, size: 0x8, addend: 0x0, symName: __ZN4pyo35impl_10trampoline33panic_result_into_callback_output17h8cbcfbb6645d2194E, symObjAddr: 0x6254, symBinAddr: 0x43784, symSize: 0x104 }
  - { offset: 0x12C2F2, size: 0x8, addend: 0x0, symName: __ZN4core3fmt9Arguments17from_str_nonconst17h9693414b9a8f01a7E, symObjAddr: 0x1158, symBinAddr: 0x3FE68, symSize: 0x28 }
  - { offset: 0x12C380, size: 0x8, addend: 0x0, symName: __ZN4core3fmt9Arguments23as_statically_known_str17h16deea40d8e92ec8E, symObjAddr: 0x1180, symBinAddr: 0x3FE90, symSize: 0x104 }
  - { offset: 0x12C48E, size: 0x8, addend: 0x0, symName: __ZN4core3fmt9Arguments3new17h08170d49a022d034E, symObjAddr: 0x1284, symBinAddr: 0x3FF94, symSize: 0x1C }
  - { offset: 0x12C4DA, size: 0x8, addend: 0x0, symName: __ZN4core3fmt9Arguments3new17h0e49403de1a634bfE, symObjAddr: 0x12A0, symBinAddr: 0x3FFB0, symSize: 0x1C }
  - { offset: 0x12C55A, size: 0x8, addend: 0x0, symName: __ZN4core3fmt9Arguments3new17h12dd086a48d8696dE, symObjAddr: 0x12F4, symBinAddr: 0x3FFCC, symSize: 0x1C }
  - { offset: 0x12C60E, size: 0x8, addend: 0x0, symName: __ZN4core3fmt9Arguments3new17h32c7b57e850c5a63E, symObjAddr: 0x1364, symBinAddr: 0x3FFE8, symSize: 0x1C }
  - { offset: 0x12C640, size: 0x8, addend: 0x0, symName: __ZN4core3fmt9Arguments3new17h3fd6f724e5ce9ff5E, symObjAddr: 0x1380, symBinAddr: 0x40004, symSize: 0x1C }
  - { offset: 0x12C68C, size: 0x8, addend: 0x0, symName: __ZN4core3fmt9Arguments3new17h42fccd2e7ed14e4eE, symObjAddr: 0x139C, symBinAddr: 0x40020, symSize: 0x1C }
  - { offset: 0x12C6F2, size: 0x8, addend: 0x0, symName: __ZN4core3fmt9Arguments3new17h4b18bcca747097faE, symObjAddr: 0x13D4, symBinAddr: 0x4003C, symSize: 0x1C }
  - { offset: 0x12C758, size: 0x8, addend: 0x0, symName: __ZN4core3fmt9Arguments3new17h4ea72cc7c797b577E, symObjAddr: 0x140C, symBinAddr: 0x40058, symSize: 0x1C }
  - { offset: 0x12C7BE, size: 0x8, addend: 0x0, symName: __ZN4core3fmt9Arguments3new17h5deb47f7ffd5a259E, symObjAddr: 0x1444, symBinAddr: 0x40074, symSize: 0x1C }
  - { offset: 0x12C824, size: 0x8, addend: 0x0, symName: __ZN4core3fmt9Arguments3new17h6ce3bc1a6b6160bbE, symObjAddr: 0x1460, symBinAddr: 0x40090, symSize: 0x1C }
  - { offset: 0x12C88A, size: 0x8, addend: 0x0, symName: __ZN4core3fmt9Arguments3new17h6f958859001c5d9bE, symObjAddr: 0x147C, symBinAddr: 0x400AC, symSize: 0x1C }
  - { offset: 0x12C90A, size: 0x8, addend: 0x0, symName: __ZN4core3fmt9Arguments3new17h89d4b2d9f6e1e1fdE, symObjAddr: 0x14D0, symBinAddr: 0x400C8, symSize: 0x1C }
  - { offset: 0x12C956, size: 0x8, addend: 0x0, symName: __ZN4core3fmt9Arguments3new17h8fb65771cafa6accE, symObjAddr: 0x14EC, symBinAddr: 0x400E4, symSize: 0x1C }
  - { offset: 0x12C9A2, size: 0x8, addend: 0x0, symName: __ZN4core3fmt9Arguments3new17h970b167fa128ef18E, symObjAddr: 0x1508, symBinAddr: 0x40100, symSize: 0x1C }
  - { offset: 0x12C9EE, size: 0x8, addend: 0x0, symName: __ZN4core3fmt9Arguments3new17hb786733237676b22E, symObjAddr: 0x1540, symBinAddr: 0x4011C, symSize: 0x1C }
  - { offset: 0x12CA88, size: 0x8, addend: 0x0, symName: __ZN4core3fmt9Arguments3new17hf9b368dfbdc7e855E, symObjAddr: 0x15B0, symBinAddr: 0x40138, symSize: 0x1C }
  - { offset: 0x12CABA, size: 0x8, addend: 0x0, symName: __ZN4core3fmt9Arguments8from_str17hb10fc6214625c96cE, symObjAddr: 0x15CC, symBinAddr: 0x40154, symSize: 0x20 }
  - { offset: 0x12CADD, size: 0x8, addend: 0x0, symName: __ZN4core3fmt9Formatter9write_fmt17hff4f2b7058da7f0eE, symObjAddr: 0x15EC, symBinAddr: 0x40174, symSize: 0xA4 }
  - { offset: 0x12CCB6, size: 0x8, addend: 0x0, symName: '__ZN5alloc3vec9into_iter21IntoIter$LT$T$C$A$GT$16as_raw_mut_slice17h216c44d37fb7fd1bE', symObjAddr: 0x63CC, symBinAddr: 0x438FC, symSize: 0xCC }
  - { offset: 0x12CE06, size: 0x8, addend: 0x0, symName: '__ZN5alloc3vec9into_iter21IntoIter$LT$T$C$A$GT$16as_raw_mut_slice17h5f37527ea7eb54b1E', symObjAddr: 0x6498, symBinAddr: 0x439C8, symSize: 0xCC }
  - { offset: 0x12CF56, size: 0x8, addend: 0x0, symName: '__ZN5alloc3vec9into_iter21IntoIter$LT$T$C$A$GT$16as_raw_mut_slice17h9414d63a16ee5bd5E', symObjAddr: 0x6564, symBinAddr: 0x43A94, symSize: 0xCC }
  - { offset: 0x12E0BB, size: 0x8, addend: 0x0, symName: '__ZN45_$LT$T$u20$as$u20$alloc..string..ToString$GT$9to_string17h709d52e1a04b5008E', symObjAddr: 0x1418, symBinAddr: 0x44300, symSize: 0x24 }
  - { offset: 0x12E0F8, size: 0x8, addend: 0x0, symName: '__ZN49_$LT$T$u20$as$u20$alloc..string..SpecToString$GT$14spec_to_string17hc79c920758f87536E', symObjAddr: 0x153C, symBinAddr: 0x44330, symSize: 0xF4 }
  - { offset: 0x12ECFB, size: 0x8, addend: 0x0, symName: '__ZN4core3ptr9const_ptr33_$LT$impl$u20$$BP$const$u20$T$GT$20offset_from_unsigned18precondition_check17h08ee24e26db2944bE', symObjAddr: 0x1630, symBinAddr: 0x44424, symSize: 0x60 }
  - { offset: 0x12EDE4, size: 0x8, addend: 0x0, symName: '__ZN4core3ptr9const_ptr33_$LT$impl$u20$$BP$const$u20$T$GT$6offset18precondition_check17h04a3b685e186b833E', symObjAddr: 0x1690, symBinAddr: 0x44484, symSize: 0xC4 }
  - { offset: 0x12EFDD, size: 0x8, addend: 0x0, symName: '__ZN4core3ptr9const_ptr33_$LT$impl$u20$$BP$const$u20$T$GT$7is_null17hdaffc5b0f993bdfdE', symObjAddr: 0x176C, symBinAddr: 0x44548, symSize: 0x18 }
  - { offset: 0x1306D5, size: 0x8, addend: 0x0, symName: '__ZN4core3str6traits108_$LT$impl$u20$core..slice..index..SliceIndex$LT$str$GT$$u20$for$u20$core..ops..range..Range$LT$usize$GT$$GT$13get_unchecked18precondition_check17h48b4d6b7dc77f4edE', symObjAddr: 0x1784, symBinAddr: 0x44560, symSize: 0x80 }
  - { offset: 0x13073D, size: 0x8, addend: 0x0, symName: '__ZN4core3str6traits54_$LT$impl$u20$core..cmp..PartialEq$u20$for$u20$str$GT$2eq17he6e5c0a6e2f9fe5cE', symObjAddr: 0x1804, symBinAddr: 0x445E0, symSize: 0x4C }
  - { offset: 0x13121F, size: 0x8, addend: 0x0, symName: '__ZN42_$LT$$RF$T$u20$as$u20$core..fmt..Debug$GT$3fmt17h3d5fb14db71fee8aE', symObjAddr: 0x13C4, symBinAddr: 0x442D0, symSize: 0x30 }
  - { offset: 0x1312A4, size: 0x8, addend: 0x0, symName: '__ZN50_$LT$$BP$mut$u20$T$u20$as$u20$core..fmt..Debug$GT$3fmt17h005fded2b00b8aa4E', symObjAddr: 0x8024, symBinAddr: 0x475E8, symSize: 0x38 }
  - { offset: 0x131316, size: 0x8, addend: 0x0, symName: '__ZN54_$LT$$BP$const$u20$T$u20$as$u20$core..fmt..Pointer$GT$3fmt17h9c8bef20262fb651E', symObjAddr: 0x81A0, symBinAddr: 0x47750, symSize: 0xCC }
  - { offset: 0x13170E, size: 0x8, addend: 0x0, symName: '__ZN47_$LT$$LP$$RP$$u20$as$u20$core..unit..IsUnit$GT$7is_unit17h8b6766f3b8d4fdc2E', symObjAddr: 0x143C, symBinAddr: 0x44324, symSize: 0xC }
  - { offset: 0x1317E2, size: 0x8, addend: 0x0, symName: '__ZN50_$LT$T$u20$as$u20$core..convert..Into$LT$U$GT$$GT$4into17h8117455f8fc59247E', symObjAddr: 0x8070, symBinAddr: 0x47620, symSize: 0x14 }
  - { offset: 0x1323C0, size: 0x8, addend: 0x0, symName: '__ZN4pyo33err5PyErr3new28_$u7b$$u7b$closure$u7d$$u7d$17h0197cff8d762341fE', symObjAddr: 0x3F8C, symBinAddr: 0x453B4, symSize: 0xD4 }
  - { offset: 0x132419, size: 0x8, addend: 0x0, symName: '__ZN4pyo33err5PyErr3new28_$u7b$$u7b$closure$u7d$$u7d$17h22d9b4e945912bbfE', symObjAddr: 0x4354, symBinAddr: 0x45488, symSize: 0xD4 }
  - { offset: 0x132472, size: 0x8, addend: 0x0, symName: '__ZN4pyo33err5PyErr3new28_$u7b$$u7b$closure$u7d$$u7d$17h4c046f3553c8bf96E', symObjAddr: 0x48D0, symBinAddr: 0x4555C, symSize: 0xD4 }
  - { offset: 0x1324CB, size: 0x8, addend: 0x0, symName: '__ZN4pyo33err5PyErr3new28_$u7b$$u7b$closure$u7d$$u7d$17h6707ad448034c2eaE', symObjAddr: 0x49A4, symBinAddr: 0x45630, symSize: 0xD4 }
  - { offset: 0x132524, size: 0x8, addend: 0x0, symName: '__ZN4pyo33err5PyErr3new28_$u7b$$u7b$closure$u7d$$u7d$17h70d67cc881703340E', symObjAddr: 0x4BF8, symBinAddr: 0x45704, symSize: 0xD4 }
  - { offset: 0x13257D, size: 0x8, addend: 0x0, symName: '__ZN4pyo33err5PyErr3new28_$u7b$$u7b$closure$u7d$$u7d$17h715b1f64512960acE', symObjAddr: 0x4CCC, symBinAddr: 0x457D8, symSize: 0xC0 }
  - { offset: 0x1325D5, size: 0x8, addend: 0x0, symName: '__ZN4pyo33err5PyErr3new28_$u7b$$u7b$closure$u7d$$u7d$17h90090ad812525e25E', symObjAddr: 0x4FB4, symBinAddr: 0x45898, symSize: 0xC0 }
  - { offset: 0x13262D, size: 0x8, addend: 0x0, symName: '__ZN4pyo33err5PyErr3new28_$u7b$$u7b$closure$u7d$$u7d$17haad8e6ab34eb0e8aE', symObjAddr: 0x5124, symBinAddr: 0x45958, symSize: 0xC0 }
  - { offset: 0x132685, size: 0x8, addend: 0x0, symName: '__ZN4pyo33err5PyErr3new28_$u7b$$u7b$closure$u7d$$u7d$17he2141c0fd8c50e06E', symObjAddr: 0x5724, symBinAddr: 0x45A18, symSize: 0xC0 }
  - { offset: 0x1326E3, size: 0x8, addend: 0x0, symName: '__ZN4pyo33err5PyErr16write_unraisable28_$u7b$$u7b$closure$u7d$$u7d$17hec25021fc84df7f5E', symObjAddr: 0x2934, symBinAddr: 0x44C58, symSize: 0x24 }
  - { offset: 0x132729, size: 0x8, addend: 0x0, symName: '__ZN4pyo33err5PyErr5_take28_$u7b$$u7b$closure$u7d$$u7d$17h199c0360f687518aE', symObjAddr: 0x5F0C, symBinAddr: 0x45F14, symSize: 0x44 }
  - { offset: 0x132762, size: 0x8, addend: 0x0, symName: '__ZN4pyo33err5PyErr5_take28_$u7b$$u7b$closure$u7d$$u7d$17h270501c679b78b1dE', symObjAddr: 0x5F50, symBinAddr: 0x45F58, symSize: 0x2C }
  - { offset: 0x13278C, size: 0x8, addend: 0x0, symName: '__ZN4pyo33err5PyErr5_take28_$u7b$$u7b$closure$u7d$$u7d$17h62679d1ceebba7faE', symObjAddr: 0x5F7C, symBinAddr: 0x45F84, symSize: 0x44 }
  - { offset: 0x1327FC, size: 0x8, addend: 0x0, symName: '__ZN4pyo33err5PyErr8new_type28_$u7b$$u7b$closure$u7d$$u7d$17h4c307f544914f6afE', symObjAddr: 0x64E4, symBinAddr: 0x46404, symSize: 0x50 }
  - { offset: 0x132842, size: 0x8, addend: 0x0, symName: '__ZN4pyo33err5PyErr9set_cause28_$u7b$$u7b$closure$u7d$$u7d$17h784863623e2523faE', symObjAddr: 0x66FC, symBinAddr: 0x4661C, symSize: 0x34 }
  - { offset: 0x132906, size: 0x8, addend: 0x0, symName: __ZN4pyo33err17error_on_minusone17h25c276d8d0124d85E, symObjAddr: 0x1A1C, symBinAddr: 0x44708, symSize: 0xB8 }
  - { offset: 0x132958, size: 0x8, addend: 0x0, symName: __ZN4pyo33err17error_on_minusone17h2c2fba5336d8797bE, symObjAddr: 0x1AD4, symBinAddr: 0x447C0, symSize: 0xB8 }
  - { offset: 0x1329AA, size: 0x8, addend: 0x0, symName: __ZN4pyo33err17error_on_minusone17h9295d8a9e9eb5afdE, symObjAddr: 0x1B8C, symBinAddr: 0x44878, symSize: 0xB8 }
  - { offset: 0x1329FC, size: 0x8, addend: 0x0, symName: __ZN4pyo33err17panic_after_error17hf99e7e313c7b089cE, symObjAddr: 0x1C44, symBinAddr: 0x44930, symSize: 0x30 }
  - { offset: 0x132A3C, size: 0x8, addend: 0x0, symName: '__ZN4pyo33err5impls101_$LT$impl$u20$core..convert..From$LT$alloc..ffi..c_str..NulError$GT$$u20$for$u20$pyo3..err..PyErr$GT$4from17hfe2a1693cc662f9bE', symObjAddr: 0x6758, symBinAddr: 0x46678, symSize: 0x34 }
  - { offset: 0x132A70, size: 0x8, addend: 0x0, symName: '__ZN53_$LT$pyo3..err..PyErr$u20$as$u20$core..fmt..Debug$GT$3fmt17h5843151eef891968E', symObjAddr: 0x8084, symBinAddr: 0x47634, symSize: 0x38 }
  - { offset: 0x132AB2, size: 0x8, addend: 0x0, symName: '__ZN53_$LT$pyo3..err..PyErr$u20$as$u20$core..fmt..Debug$GT$3fmt28_$u7b$$u7b$closure$u7d$$u7d$17h5d78ef57df6a9742E', symObjAddr: 0x80BC, symBinAddr: 0x4766C, symSize: 0xE4 }
  - { offset: 0x132B17, size: 0x8, addend: 0x0, symName: '__ZN55_$LT$pyo3..err..PyErr$u20$as$u20$core..fmt..Display$GT$3fmt17hcd71148f552f6cb6E', symObjAddr: 0x826C, symBinAddr: 0x4781C, symSize: 0x2C }
  - { offset: 0x132B59, size: 0x8, addend: 0x0, symName: '__ZN55_$LT$pyo3..err..PyErr$u20$as$u20$core..fmt..Display$GT$3fmt28_$u7b$$u7b$closure$u7d$$u7d$17hcfe07342ef27ec53E', symObjAddr: 0x8298, symBinAddr: 0x47848, symSize: 0x274 }
  - { offset: 0x132CD3, size: 0x8, addend: 0x0, symName: '__ZN55_$LT$pyo3..err..PyErr$u20$as$u20$core..fmt..Display$GT$3fmt28_$u7b$$u7b$closure$u7d$$u7d$28_$u7b$$u7b$closure$u7d$$u7d$17hf284f544d745553bE', symObjAddr: 0x850C, symBinAddr: 0x47ABC, symSize: 0x1C }
  - { offset: 0x132D14, size: 0x8, addend: 0x0, symName: '__ZN90_$LT$pyo3..err..PyErr$u20$as$u20$core..convert..From$LT$pyo3..err..PyDowncastError$GT$$GT$4from17hb45da7e214813859E', symObjAddr: 0x86D0, symBinAddr: 0x47AD8, symSize: 0xD8 }
  - { offset: 0x132D67, size: 0x8, addend: 0x0, symName: '__ZN92_$LT$pyo3..err..PyDowncastErrorArguments$u20$as$u20$pyo3..err..err_state..PyErrArguments$GT$9arguments17h52b98ea3d2262069E', symObjAddr: 0x87A8, symBinAddr: 0x47BB0, symSize: 0x174 }
  - { offset: 0x1332C5, size: 0x8, addend: 0x0, symName: '__ZN135_$LT$pyo3..impl_..pyclass..lazy_type_object..LazyTypeObjectInner..ensure_init..InitializationGuard$u20$as$u20$core..ops..drop..Drop$GT$4drop17hc691da8f6dd1750cE', symObjAddr: 0x74, symBinAddr: 0x43D24, symSize: 0x98 }
  - { offset: 0x133307, size: 0x8, addend: 0x0, symName: '__ZN135_$LT$pyo3..impl_..pyclass..lazy_type_object..LazyTypeObjectInner..ensure_init..InitializationGuard$u20$as$u20$core..ops..drop..Drop$GT$4drop28_$u7b$$u7b$closure$u7d$$u7d$17h24f9458667cde89bE', symObjAddr: 0x10C, symBinAddr: 0x43DBC, symSize: 0x38 }
  - { offset: 0x133346, size: 0x8, addend: 0x0, symName: '__ZN4pyo35impl_7pyclass16lazy_type_object19LazyTypeObjectInner11ensure_init28_$u7b$$u7b$closure$u7d$$u7d$17h8ceb8357e5acfa75E', symObjAddr: 0x7880, symBinAddr: 0x4713C, symSize: 0x164 }
  - { offset: 0x1333FB, size: 0x8, addend: 0x0, symName: '__ZN4pyo35impl_7pyclass16lazy_type_object19LazyTypeObjectInner15get_or_try_init28_$u7b$$u7b$closure$u7d$$u7d$17h7ceaec27b5b39e3bE', symObjAddr: 0x7A7C, symBinAddr: 0x47338, symSize: 0x150 }
  - { offset: 0x1334C3, size: 0x8, addend: 0x0, symName: '__ZN4pyo35impl_7pyclass16lazy_type_object19LazyTypeObjectInner15get_or_try_init28_$u7b$$u7b$closure$u7d$$u7d$17hb8bc211565751186E', symObjAddr: 0x7BCC, symBinAddr: 0x47488, symSize: 0xFC }
  - { offset: 0x133567, size: 0x8, addend: 0x0, symName: '__ZN4pyo35impl_7pyclass16lazy_type_object19LazyTypeObjectInner15get_or_try_init28_$u7b$$u7b$closure$u7d$$u7d$28_$u7b$$u7b$closure$u7d$$u7d$17h3d71803f3dc04e1cE', symObjAddr: 0x7CC8, symBinAddr: 0x47584, symSize: 0x2C }
  - { offset: 0x1335A7, size: 0x8, addend: 0x0, symName: __ZN4pyo35impl_7pyclass16lazy_type_object18initialize_tp_dict17hc1a7288268726c89E, symObjAddr: 0x6DF0, symBinAddr: 0x466AC, symSize: 0x238 }
  - { offset: 0x1336D2, size: 0x8, addend: 0x0, symName: __ZN4pyo35impl_7pyclass16lazy_type_object21wrap_in_runtime_error17hfef2d17255a9ccebE, symObjAddr: 0x7CF4, symBinAddr: 0xA34AC, symSize: 0xF0 }
  - { offset: 0x133B51, size: 0x8, addend: 0x0, symName: __ZN4pyo311type_object12get_tp_alloc17hfd07ed02db63dc36E, symObjAddr: 0x1940, symBinAddr: 0x4462C, symSize: 0x74 }
  - { offset: 0x133C03, size: 0x8, addend: 0x0, symName: '__ZN4pyo36pycell101_$LT$impl$u20$core..convert..From$LT$pyo3..pycell..PyBorrowError$GT$$u20$for$u20$pyo3..err..PyErr$GT$4from17h7e3b9dcd7caec744E', symObjAddr: 0x7DE4, symBinAddr: 0x475B0, symSize: 0x38 }
  - { offset: 0x134EF1, size: 0x8, addend: 0x0, symName: __ZN3std5panic12catch_unwind17h0a1cf12a7e44c3d1E, symObjAddr: 0xF5C, symBinAddr: 0x43E68, symSize: 0xDC }
  - { offset: 0x135016, size: 0x8, addend: 0x0, symName: __ZN3std5panic12catch_unwind17h0d4dd50b8bca8195E, symObjAddr: 0x1038, symBinAddr: 0x43F44, symSize: 0xF8 }
  - { offset: 0x135170, size: 0x8, addend: 0x0, symName: __ZN3std5panic12catch_unwind17h1a92f6dccf5a02feE, symObjAddr: 0x1130, symBinAddr: 0x4403C, symSize: 0xDC }
  - { offset: 0x135295, size: 0x8, addend: 0x0, symName: __ZN3std5panic12catch_unwind17h3ad3b53a97d2359aE, symObjAddr: 0x120C, symBinAddr: 0x44118, symSize: 0xF8 }
  - { offset: 0x1353EF, size: 0x8, addend: 0x0, symName: __ZN3std5panic12catch_unwind17h5f104005d38caf00E, symObjAddr: 0x1304, symBinAddr: 0x44210, symSize: 0xC0 }
  - { offset: 0x1356AE, size: 0x8, addend: 0x0, symName: __ZN15portable_atomic3imp11core_atomic9AtomicI6416compare_exchange17hc83c6ecf5c022249E, symObjAddr: 0x144, symBinAddr: 0x43DF4, symSize: 0x74 }
  - { offset: 0x135B1F, size: 0x8, addend: 0x0, symName: __ZN4pyo33err15PyDowncastError3new17hf5493bc1587cb1e2E, symObjAddr: 0x19B4, symBinAddr: 0x446A0, symSize: 0x68 }
  - { offset: 0x135B74, size: 0x8, addend: 0x0, symName: __ZN4pyo33err5PyErr10from_state17hf637aebc3236e6beE, symObjAddr: 0x1C74, symBinAddr: 0x44960, symSize: 0x3C }
  - { offset: 0x135BB5, size: 0x8, addend: 0x0, symName: __ZN4pyo33err5PyErr10into_value17hd217b0c492c355b8E, symObjAddr: 0x1DD8, symBinAddr: 0x4499C, symSize: 0x118 }
  - { offset: 0x135C3D, size: 0x8, addend: 0x0, symName: __ZN4pyo33err5PyErr10normalized17hec2691ceb8b8a2b1E, symObjAddr: 0x1EF0, symBinAddr: 0x44AB4, symSize: 0xCC }
  - { offset: 0x135C91, size: 0x8, addend: 0x0, symName: __ZN4pyo33err5PyErr11is_instance17h0815000ddf4c6083E, symObjAddr: 0x1FBC, symBinAddr: 0x44B80, symSize: 0x58 }
  - { offset: 0x135CDE, size: 0x8, addend: 0x0, symName: __ZN4pyo33err5PyErr14is_instance_of17h346c298a9ae28bb8E, symObjAddr: 0x2500, symBinAddr: 0x44BD8, symSize: 0x34 }
  - { offset: 0x135D5B, size: 0x8, addend: 0x0, symName: __ZN4pyo33err5PyErr15make_normalized17h8d8bbe65308aab40E, symObjAddr: 0x26A0, symBinAddr: 0xA3264, symSize: 0x248 }
  - { offset: 0x135DE6, size: 0x8, addend: 0x0, symName: __ZN4pyo33err5PyErr16write_unraisable17hdf3f3d9a2787a81aE, symObjAddr: 0x28E8, symBinAddr: 0x44C0C, symSize: 0x4C }
  - { offset: 0x135E41, size: 0x8, addend: 0x0, symName: __ZN4pyo33err5PyErr22print_panic_and_unwind17ha06c1172f693af3bE, symObjAddr: 0x2958, symBinAddr: 0x44C7C, symSize: 0x1A8 }
  - { offset: 0x135EBB, size: 0x8, addend: 0x0, symName: __ZN4pyo33err5PyErr3new17h7b30d77acb4048b8E, symObjAddr: 0x32B8, symBinAddr: 0x44E24, symSize: 0x9C }
  - { offset: 0x135F19, size: 0x8, addend: 0x0, symName: __ZN4pyo33err5PyErr3new17h885ae2c31aa533a0E, symObjAddr: 0x3504, symBinAddr: 0x44EC0, symSize: 0xA0 }
  - { offset: 0x135F78, size: 0x8, addend: 0x0, symName: __ZN4pyo33err5PyErr3new17h925fcdabd67ea0bbE, symObjAddr: 0x35A4, symBinAddr: 0x44F60, symSize: 0x9C }
  - { offset: 0x135FD6, size: 0x8, addend: 0x0, symName: __ZN4pyo33err5PyErr3new17hb61b6d810b890e95E, symObjAddr: 0x37CC, symBinAddr: 0x44FFC, symSize: 0xA0 }
  - { offset: 0x136035, size: 0x8, addend: 0x0, symName: __ZN4pyo33err5PyErr3new17hb862f969cf6c6909E, symObjAddr: 0x38EC, symBinAddr: 0x4509C, symSize: 0xA0 }
  - { offset: 0x136094, size: 0x8, addend: 0x0, symName: __ZN4pyo33err5PyErr3new17hcbfd2049731eef02E, symObjAddr: 0x3A1C, symBinAddr: 0x4513C, symSize: 0xA0 }
  - { offset: 0x1360F3, size: 0x8, addend: 0x0, symName: __ZN4pyo33err5PyErr3new17hdb1ef7bf09c93f77E, symObjAddr: 0x3ABC, symBinAddr: 0x451DC, symSize: 0x9C }
  - { offset: 0x136151, size: 0x8, addend: 0x0, symName: __ZN4pyo33err5PyErr3new17hfc11d9718ea590f8E, symObjAddr: 0x3CF8, symBinAddr: 0x45278, symSize: 0xA0 }
  - { offset: 0x1361B0, size: 0x8, addend: 0x0, symName: __ZN4pyo33err5PyErr3new17hfcd9dba4cbdb4873E, symObjAddr: 0x3D98, symBinAddr: 0x45318, symSize: 0x9C }
  - { offset: 0x136201, size: 0x8, addend: 0x0, symName: __ZN4pyo33err5PyErr4take17h7c74723feefcab75E, symObjAddr: 0x5974, symBinAddr: 0x45AD8, symSize: 0x1C }
  - { offset: 0x136230, size: 0x8, addend: 0x0, symName: __ZN4pyo33err5PyErr5_take17h70c571ca27f38924E, symObjAddr: 0x5AEC, symBinAddr: 0x45AF4, symSize: 0x420 }
  - { offset: 0x13639F, size: 0x8, addend: 0x0, symName: __ZN4pyo33err5PyErr5fetch17hac5af1903c7cecc9E, symObjAddr: 0x6010, symBinAddr: 0x45FC8, symSize: 0x5C }
  - { offset: 0x1363CE, size: 0x8, addend: 0x0, symName: __ZN4pyo33err5PyErr5print17h70abaaa7f45b706dE, symObjAddr: 0x606C, symBinAddr: 0x46024, symSize: 0x3C }
  - { offset: 0x136419, size: 0x8, addend: 0x0, symName: __ZN4pyo33err5PyErr5value17he2058935dce7c663E, symObjAddr: 0x60A8, symBinAddr: 0x46060, symSize: 0x2C }
  - { offset: 0x136470, size: 0x8, addend: 0x0, symName: __ZN4pyo33err5PyErr7restore17h976965c94a57959cE, symObjAddr: 0x616C, symBinAddr: 0x4608C, symSize: 0x68 }
  - { offset: 0x1364DA, size: 0x8, addend: 0x0, symName: __ZN4pyo33err5PyErr8get_type17h5231e5b1665746c0E, symObjAddr: 0x61D4, symBinAddr: 0x460F4, symSize: 0x28 }
  - { offset: 0x136515, size: 0x8, addend: 0x0, symName: __ZN4pyo33err5PyErr8new_type17had9b46d4a0af07e9E, symObjAddr: 0x61FC, symBinAddr: 0x4611C, symSize: 0x2E8 }
  - { offset: 0x136698, size: 0x8, addend: 0x0, symName: __ZN4pyo33err5PyErr9clone_ref17h9665b6c5f3f833c8E, symObjAddr: 0x6534, symBinAddr: 0x46454, symSize: 0x54 }
  - { offset: 0x1366D6, size: 0x8, addend: 0x0, symName: __ZN4pyo33err5PyErr9set_cause17hbc0a60c7f389a52eE, symObjAddr: 0x6588, symBinAddr: 0x464A8, symSize: 0x174 }
  - { offset: 0x136767, size: 0x8, addend: 0x0, symName: __ZN4pyo33err5PyErr9traceback17h1060f6608049c011E, symObjAddr: 0x6730, symBinAddr: 0x46650, symSize: 0x28 }
  - { offset: 0x136899, size: 0x8, addend: 0x0, symName: __ZN4pyo35impl_7pyclass16lazy_type_object19LazyTypeObjectInner11ensure_init17hbb315878dc954c0aE, symObjAddr: 0x7028, symBinAddr: 0x468E4, symSize: 0x858 }
  - { offset: 0x136B37, size: 0x8, addend: 0x0, symName: __ZN4pyo35impl_7pyclass16lazy_type_object19LazyTypeObjectInner15get_or_try_init17h604cc78e45a7569cE, symObjAddr: 0x79E4, symBinAddr: 0x472A0, symSize: 0x98 }
  - { offset: 0x136D66, size: 0x8, addend: 0x0, symName: '__ZN102_$LT$$RF$mut$u20$alloc..vec..Vec$LT$T$C$A$GT$$u20$as$u20$core..iter..traits..collect..IntoIterator$GT$9into_iter17h65d715d336453a8bE', symObjAddr: 0x0, symBinAddr: 0x47D78, symSize: 0x60 }
  - { offset: 0x136D99, size: 0x8, addend: 0x0, symName: __ZN4pyo35types10typeobject6PyType4name8INTERNED17h42ec860453e62ef4E, symObjAddr: 0x56A8, symBinAddr: 0x108508, symSize: 0x0 }
  - { offset: 0x136E20, size: 0x8, addend: 0x0, symName: '__ZN103_$LT$pyo3..types..typeobject..PyType$u20$as$u20$core..convert..AsRef$LT$pyo3..types..any..PyAny$GT$$GT$6as_ref17ha15bc1d946cfbcaaE', symObjAddr: 0x60, symBinAddr: 0x47DD8, symSize: 0x14 }
  - { offset: 0x136E52, size: 0x8, addend: 0x0, symName: '__ZN68_$LT$pyo3..types..typeobject..PyType$u20$as$u20$core..fmt..Debug$GT$3fmt17h13e3103847a18933E', symObjAddr: 0x39A0, symBinAddr: 0x4ABE4, symSize: 0xFC }
  - { offset: 0x136EC4, size: 0x8, addend: 0x0, symName: '__ZN75_$LT$pyo3..types..typeobject..PyType$u20$as$u20$core..ops..deref..Deref$GT$5deref17h8978a85c7786d74dE', symObjAddr: 0x439C, symBinAddr: 0x4B1C0, symSize: 0x14 }
  - { offset: 0x137065, size: 0x8, addend: 0x0, symName: __ZN4pyo38instance12PyNativeType18unchecked_downcast17h8e79ccf974b0c654E, symObjAddr: 0x15C8, symBinAddr: 0x48CE0, symSize: 0x70 }
  - { offset: 0x13709A, size: 0x8, addend: 0x0, symName: __ZN4pyo38instance12PyNativeType2py17hc9be84092d895d96E, symObjAddr: 0x16A8, symBinAddr: 0x48D50, symSize: 0x20 }
  - { offset: 0x1371F8, size: 0x8, addend: 0x0, symName: '__ZN107_$LT$$RF$T$u20$as$u20$pyo3..conversion..IntoPy$LT$pyo3..instance..Py$LT$pyo3..types..any..PyAny$GT$$GT$$GT$7into_py17hed16be4d2a9c8f14E', symObjAddr: 0x74, symBinAddr: 0x47DEC, symSize: 0x2C }
  - { offset: 0x137250, size: 0x8, addend: 0x0, symName: __ZN4pyo310conversion13FromPyPointer17from_borrowed_ptr17hb91d734290714a2eE, symObjAddr: 0x12AC, symBinAddr: 0x48B74, symSize: 0x24 }
  - { offset: 0x1372A2, size: 0x8, addend: 0x0, symName: __ZN4pyo310conversion13FromPyPointer26from_borrowed_ptr_or_panic17hf3397f222a472bd6E, symObjAddr: 0x12D0, symBinAddr: 0x48B98, symSize: 0x34 }
  - { offset: 0x1372FA, size: 0x8, addend: 0x0, symName: '__ZN53_$LT$T$u20$as$u20$pyo3..conversion..FromPyPointer$GT$24from_borrowed_ptr_or_opt17h328ac433795920ecE', symObjAddr: 0x1710, symBinAddr: 0x48DB8, symSize: 0x28 }
  - { offset: 0x13A719, size: 0x8, addend: 0x0, symName: '__ZN82_$LT$core..array..iter..IntoIter$LT$T$C$_$GT$$u20$as$u20$core..ops..drop..Drop$GT$4drop17h092965b31e374d8fE', symObjAddr: 0x4488, symBinAddr: 0x4B1EC, symSize: 0x30 }
  - { offset: 0x13A76A, size: 0x8, addend: 0x0, symName: '__ZN82_$LT$core..array..iter..IntoIter$LT$T$C$_$GT$$u20$as$u20$core..ops..drop..Drop$GT$4drop17h3fb25a8593f9d23aE', symObjAddr: 0x44B8, symBinAddr: 0x4B21C, symSize: 0x30 }
  - { offset: 0x13A7C1, size: 0x8, addend: 0x0, symName: '__ZN99_$LT$core..array..iter..IntoIter$LT$T$C$_$GT$$u20$as$u20$core..iter..traits..iterator..Iterator$GT$4next17h97887b62ed7733f8E', symObjAddr: 0x4A50, symBinAddr: 0x4B730, symSize: 0x2C }
  - { offset: 0x13A7F6, size: 0x8, addend: 0x0, symName: '__ZN99_$LT$core..array..iter..IntoIter$LT$T$C$_$GT$$u20$as$u20$core..iter..traits..iterator..Iterator$GT$4next17hfd148e4d44d0214eE', symObjAddr: 0x4AA8, symBinAddr: 0x4B75C, symSize: 0x2C }
  - { offset: 0x13B070, size: 0x8, addend: 0x0, symName: '__ZN50_$LT$T$u20$as$u20$core..convert..Into$LT$U$GT$$GT$4into17h358f63f7f0230d4dE', symObjAddr: 0x16C8, symBinAddr: 0x48D70, symSize: 0x24 }
  - { offset: 0x13B0B0, size: 0x8, addend: 0x0, symName: '__ZN50_$LT$T$u20$as$u20$core..convert..Into$LT$U$GT$$GT$4into17hc2c58560b59de8c2E', symObjAddr: 0x16EC, symBinAddr: 0x48D94, symSize: 0x24 }
  - { offset: 0x13B106, size: 0x8, addend: 0x0, symName: '__ZN110_$LT$core..iter..adapters..enumerate..Enumerate$LT$I$GT$$u20$as$u20$core..iter..traits..iterator..Iterator$GT$4next17h40a730b852cdbcb2E', symObjAddr: 0x268, symBinAddr: 0x47E18, symSize: 0xEC }
  - { offset: 0x13B1EC, size: 0x8, addend: 0x0, symName: '__ZN110_$LT$core..iter..adapters..enumerate..Enumerate$LT$I$GT$$u20$as$u20$core..iter..traits..iterator..Iterator$GT$4next17h5213ca3cd4cd84d5E', symObjAddr: 0x354, symBinAddr: 0x47F04, symSize: 0xE0 }
  - { offset: 0x13B2D2, size: 0x8, addend: 0x0, symName: '__ZN110_$LT$core..iter..adapters..enumerate..Enumerate$LT$I$GT$$u20$as$u20$core..iter..traits..iterator..Iterator$GT$4next17hc7b6732d42a05230E', symObjAddr: 0x434, symBinAddr: 0x47FE4, symSize: 0xEC }
  - { offset: 0x13B687, size: 0x8, addend: 0x0, symName: __ZN4core4iter6traits8iterator8Iterator9enumerate17hb2816afe39b76b4aE, symObjAddr: 0xFD0, symBinAddr: 0x48900, symSize: 0x18 }
  - { offset: 0x13B6B8, size: 0x8, addend: 0x0, symName: __ZN4core4iter6traits8iterator8Iterator9enumerate17hb2816afe39b76b4aE, symObjAddr: 0xFD0, symBinAddr: 0x48900, symSize: 0x18 }
  - { offset: 0x13B6D3, size: 0x8, addend: 0x0, symName: __ZN4core4iter6traits8iterator8Iterator9enumerate17hc08614f89478c2caE, symObjAddr: 0xFE8, symBinAddr: 0x48918, symSize: 0x18 }
  - { offset: 0x13B704, size: 0x8, addend: 0x0, symName: __ZN4core4iter6traits8iterator8Iterator9enumerate17hc08614f89478c2caE, symObjAddr: 0xFE8, symBinAddr: 0x48918, symSize: 0x18 }
  - { offset: 0x13B72B, size: 0x8, addend: 0x0, symName: '__ZN63_$LT$I$u20$as$u20$core..iter..traits..collect..IntoIterator$GT$9into_iter17h085ba61c85c97653E', symObjAddr: 0x3558, symBinAddr: 0x4AB4C, symSize: 0x30 }
  - { offset: 0x13B763, size: 0x8, addend: 0x0, symName: '__ZN63_$LT$I$u20$as$u20$core..iter..traits..collect..IntoIterator$GT$9into_iter17h2de3fb082a87c424E', symObjAddr: 0x3588, symBinAddr: 0x4AB7C, symSize: 0x18 }
  - { offset: 0x13B79A, size: 0x8, addend: 0x0, symName: '__ZN63_$LT$I$u20$as$u20$core..iter..traits..collect..IntoIterator$GT$9into_iter17h77f318e29b565504E', symObjAddr: 0x35A0, symBinAddr: 0x4AB94, symSize: 0x14 }
  - { offset: 0x13BD31, size: 0x8, addend: 0x0, symName: '__ZN4core3fmt3num52_$LT$impl$u20$core..fmt..Debug$u20$for$u20$isize$GT$3fmt17h2e15ba0220b38b76E', symObjAddr: 0xE88, symBinAddr: 0x487E0, symSize: 0x90 }
  - { offset: 0x13BDAB, size: 0x8, addend: 0x0, symName: '__ZN4core3fmt3num52_$LT$impl$u20$core..fmt..Debug$u20$for$u20$usize$GT$3fmt17h2514a3a351190fd8E', symObjAddr: 0xF18, symBinAddr: 0x48870, symSize: 0x90 }
  - { offset: 0x13BEF9, size: 0x8, addend: 0x0, symName: '__ZN4core5tuple66_$LT$impl$u20$core..default..Default$u20$for$u20$$LP$U$C$T$RP$$GT$7default17h641b572a4546c6bdE', symObjAddr: 0x1148, symBinAddr: 0x48A10, symSize: 0x8C }
  - { offset: 0x13BF94, size: 0x8, addend: 0x0, symName: __ZN4core9ub_checks23maybe_is_nonoverlapping7runtime17h414d58d23fc04ffdE, symObjAddr: 0x11D4, symBinAddr: 0x48A9C, symSize: 0xD8 }
  - { offset: 0x13CA11, size: 0x8, addend: 0x0, symName: __ZN8pyo3_ffi7objimpl12PyType_IS_GC17he95fa9981565c832E, symObjAddr: 0x45B0, symBinAddr: 0x4B290, symSize: 0x2C }
  - { offset: 0x13DCF9, size: 0x8, addend: 0x0, symName: '__ZN102_$LT$$RF$mut$u20$alloc..vec..Vec$LT$T$C$A$GT$$u20$as$u20$core..iter..traits..collect..IntoIterator$GT$9into_iter17h65d715d336453a8bE', symObjAddr: 0x0, symBinAddr: 0x47D78, symSize: 0x60 }
  - { offset: 0x13E10E, size: 0x8, addend: 0x0, symName: '__ZN107_$LT$alloc..vec..Vec$LT$T$C$A$GT$..retain_mut..PanicGuard$LT$T$C$A$GT$$u20$as$u20$core..ops..drop..Drop$GT$4drop17h28886eb33750c888E', symObjAddr: 0xA0, symBinAddr: 0xA359C, symSize: 0x180 }
  - { offset: 0x13E37A, size: 0x8, addend: 0x0, symName: '__ZN5alloc3vec16Vec$LT$T$C$A$GT$6retain28_$u7b$$u7b$closure$u7d$$u7d$17hac4b11da0c76a0c9E', symObjAddr: 0x28F4, symBinAddr: 0x49F9C, symSize: 0x30 }
  - { offset: 0x13E3DB, size: 0x8, addend: 0x0, symName: '__ZN5alloc3vec16Vec$LT$T$C$A$GT$7set_len18precondition_check17h084d6d7d02af2502E', symObjAddr: 0x2A74, symBinAddr: 0x4A11C, symSize: 0x60 }
  - { offset: 0x13E679, size: 0x8, addend: 0x0, symName: '__ZN111_$LT$alloc..vec..Vec$LT$T$GT$$u20$as$u20$alloc..vec..spec_from_iter_nested..SpecFromIterNested$LT$T$C$I$GT$$GT$9from_iter17h000a7219d8efa620E', symObjAddr: 0x520, symBinAddr: 0x480D0, symSize: 0x24C }
  - { offset: 0x13E8D8, size: 0x8, addend: 0x0, symName: '__ZN111_$LT$alloc..vec..Vec$LT$T$GT$$u20$as$u20$alloc..vec..spec_from_iter_nested..SpecFromIterNested$LT$T$C$I$GT$$GT$9from_iter17h6e5e38da1d7c5b0eE', symObjAddr: 0x76C, symBinAddr: 0x4831C, symSize: 0x244 }
  - { offset: 0x13EB36, size: 0x8, addend: 0x0, symName: '__ZN111_$LT$alloc..vec..Vec$LT$T$GT$$u20$as$u20$alloc..vec..spec_from_iter_nested..SpecFromIterNested$LT$T$C$I$GT$$GT$9from_iter17h7010f010b33e456aE', symObjAddr: 0x9B0, symBinAddr: 0x48560, symSize: 0x24C }
  - { offset: 0x13F844, size: 0x8, addend: 0x0, symName: '__ZN72_$LT$alloc..vec..Vec$LT$T$C$A$GT$$u20$as$u20$core..ops..deref..Deref$GT$5deref17h7bc419cd11571bfdE', symObjAddr: 0x435C, symBinAddr: 0x4B180, symSize: 0x20 }
  - { offset: 0x13F901, size: 0x8, addend: 0x0, symName: '__ZN72_$LT$alloc..vec..Vec$LT$T$C$A$GT$$u20$as$u20$core..ops..deref..Deref$GT$5deref17hccb8af4a2ae23526E', symObjAddr: 0x437C, symBinAddr: 0x4B1A0, symSize: 0x20 }
  - { offset: 0x13F9C4, size: 0x8, addend: 0x0, symName: '__ZN67_$LT$alloc..vec..Vec$LT$T$GT$$u20$as$u20$core..default..Default$GT$7default17h74b1df869984d9d2E', symObjAddr: 0x3964, symBinAddr: 0x4ABA8, symSize: 0x14 }
  - { offset: 0x13F9E6, size: 0x8, addend: 0x0, symName: '__ZN67_$LT$alloc..vec..Vec$LT$T$GT$$u20$as$u20$core..default..Default$GT$7default17h74b1df869984d9d2E', symObjAddr: 0x3964, symBinAddr: 0x4ABA8, symSize: 0x14 }
  - { offset: 0x13FA01, size: 0x8, addend: 0x0, symName: '__ZN67_$LT$alloc..vec..Vec$LT$T$GT$$u20$as$u20$core..default..Default$GT$7default17h945624b9de6812f5E', symObjAddr: 0x3978, symBinAddr: 0x4ABBC, symSize: 0x14 }
  - { offset: 0x13FA23, size: 0x8, addend: 0x0, symName: '__ZN67_$LT$alloc..vec..Vec$LT$T$GT$$u20$as$u20$core..default..Default$GT$7default17h945624b9de6812f5E', symObjAddr: 0x3978, symBinAddr: 0x4ABBC, symSize: 0x14 }
  - { offset: 0x13FA3E, size: 0x8, addend: 0x0, symName: '__ZN67_$LT$alloc..vec..Vec$LT$T$GT$$u20$as$u20$core..default..Default$GT$7default17hd48051491864aa65E', symObjAddr: 0x398C, symBinAddr: 0x4ABD0, symSize: 0x14 }
  - { offset: 0x13FA60, size: 0x8, addend: 0x0, symName: '__ZN67_$LT$alloc..vec..Vec$LT$T$GT$$u20$as$u20$core..default..Default$GT$7default17hd48051491864aa65E', symObjAddr: 0x398C, symBinAddr: 0x4ABD0, symSize: 0x14 }
  - { offset: 0x13FA81, size: 0x8, addend: 0x0, symName: '__ZN70_$LT$alloc..vec..Vec$LT$T$C$A$GT$$u20$as$u20$core..ops..drop..Drop$GT$4drop17h2274e60f272e63aeE', symObjAddr: 0x3A9C, symBinAddr: 0x4ACE0, symSize: 0x24 }
  - { offset: 0x13FB31, size: 0x8, addend: 0x0, symName: '__ZN70_$LT$alloc..vec..Vec$LT$T$C$A$GT$$u20$as$u20$core..ops..drop..Drop$GT$4drop17h2557ba8148a509a6E', symObjAddr: 0x3AC0, symBinAddr: 0x4AD04, symSize: 0x24 }
  - { offset: 0x13FBE1, size: 0x8, addend: 0x0, symName: '__ZN70_$LT$alloc..vec..Vec$LT$T$C$A$GT$$u20$as$u20$core..ops..drop..Drop$GT$4drop17h5a8187b5223f6408E', symObjAddr: 0x3AE4, symBinAddr: 0x4AD28, symSize: 0x38 }
  - { offset: 0x13FC91, size: 0x8, addend: 0x0, symName: '__ZN70_$LT$alloc..vec..Vec$LT$T$C$A$GT$$u20$as$u20$core..ops..drop..Drop$GT$4drop17h87551e314652fb2dE', symObjAddr: 0x3B1C, symBinAddr: 0x4AD60, symSize: 0x24 }
  - { offset: 0x13FD41, size: 0x8, addend: 0x0, symName: '__ZN70_$LT$alloc..vec..Vec$LT$T$C$A$GT$$u20$as$u20$core..ops..drop..Drop$GT$4drop17h93daabc0dcc2823eE', symObjAddr: 0x3B40, symBinAddr: 0x4AD84, symSize: 0x24 }
  - { offset: 0x13FDF1, size: 0x8, addend: 0x0, symName: '__ZN70_$LT$alloc..vec..Vec$LT$T$C$A$GT$$u20$as$u20$core..ops..drop..Drop$GT$4drop17h98ab19f44e7a9a2cE', symObjAddr: 0x3B64, symBinAddr: 0x4ADA8, symSize: 0x24 }
  - { offset: 0x13FEA1, size: 0x8, addend: 0x0, symName: '__ZN70_$LT$alloc..vec..Vec$LT$T$C$A$GT$$u20$as$u20$core..ops..drop..Drop$GT$4drop17ha56b31ce3e11d418E', symObjAddr: 0x3B88, symBinAddr: 0x4ADCC, symSize: 0x24 }
  - { offset: 0x13FF51, size: 0x8, addend: 0x0, symName: '__ZN70_$LT$alloc..vec..Vec$LT$T$C$A$GT$$u20$as$u20$core..ops..drop..Drop$GT$4drop17hb20f473a3fb63c36E', symObjAddr: 0x3BAC, symBinAddr: 0x4ADF0, symSize: 0x38 }
  - { offset: 0x140001, size: 0x8, addend: 0x0, symName: '__ZN70_$LT$alloc..vec..Vec$LT$T$C$A$GT$$u20$as$u20$core..ops..drop..Drop$GT$4drop17hc177ef89acdff6a6E', symObjAddr: 0x3BE4, symBinAddr: 0x4AE28, symSize: 0x24 }
  - { offset: 0x1400B1, size: 0x8, addend: 0x0, symName: '__ZN70_$LT$alloc..vec..Vec$LT$T$C$A$GT$$u20$as$u20$core..ops..drop..Drop$GT$4drop17hf1b97a2374251ea0E', symObjAddr: 0x3C08, symBinAddr: 0x4AE4C, symSize: 0x38 }
  - { offset: 0x140167, size: 0x8, addend: 0x0, symName: '__ZN90_$LT$alloc..vec..Vec$LT$T$C$A$GT$$u20$as$u20$core..iter..traits..collect..IntoIterator$GT$9into_iter17h1ac6f20f137bae55E', symObjAddr: 0x4714, symBinAddr: 0x4B3F4, symSize: 0xA8 }
  - { offset: 0x14035E, size: 0x8, addend: 0x0, symName: '__ZN90_$LT$alloc..vec..Vec$LT$T$C$A$GT$$u20$as$u20$core..iter..traits..collect..IntoIterator$GT$9into_iter17hbb70ca53a7c18696E', symObjAddr: 0x47BC, symBinAddr: 0x4B49C, symSize: 0xA8 }
  - { offset: 0x140555, size: 0x8, addend: 0x0, symName: '__ZN90_$LT$alloc..vec..Vec$LT$T$C$A$GT$$u20$as$u20$core..iter..traits..collect..IntoIterator$GT$9into_iter17hd481d2c043f82540E', symObjAddr: 0x4864, symBinAddr: 0x4B544, symSize: 0xA8 }
  - { offset: 0x140752, size: 0x8, addend: 0x0, symName: '__ZN95_$LT$alloc..vec..Vec$LT$T$GT$$u20$as$u20$core..iter..traits..collect..FromIterator$LT$T$GT$$GT$9from_iter17h372644ba7071db0bE', symObjAddr: 0x490C, symBinAddr: 0x4B5EC, symSize: 0x34 }
  - { offset: 0x140793, size: 0x8, addend: 0x0, symName: '__ZN95_$LT$alloc..vec..Vec$LT$T$GT$$u20$as$u20$core..iter..traits..collect..FromIterator$LT$T$GT$$GT$9from_iter17hb464c2248f346facE', symObjAddr: 0x4940, symBinAddr: 0x4B620, symSize: 0x34 }
  - { offset: 0x1407D4, size: 0x8, addend: 0x0, symName: '__ZN95_$LT$alloc..vec..Vec$LT$T$GT$$u20$as$u20$core..iter..traits..collect..FromIterator$LT$T$GT$$GT$9from_iter17hdfda75f8402b7e45E', symObjAddr: 0x4974, symBinAddr: 0x4B654, symSize: 0x34 }
  - { offset: 0x140820, size: 0x8, addend: 0x0, symName: '__ZN97_$LT$alloc..vec..Vec$LT$T$C$A$GT$$u20$as$u20$alloc..vec..spec_extend..SpecExtend$LT$T$C$I$GT$$GT$11spec_extend17h567d3db91c35633eE', symObjAddr: 0x49A8, symBinAddr: 0x4B688, symSize: 0x24 }
  - { offset: 0x140872, size: 0x8, addend: 0x0, symName: '__ZN97_$LT$alloc..vec..Vec$LT$T$C$A$GT$$u20$as$u20$alloc..vec..spec_extend..SpecExtend$LT$T$C$I$GT$$GT$11spec_extend17hebde5d246ae9e4a3E', symObjAddr: 0x49CC, symBinAddr: 0x4B6AC, symSize: 0x24 }
  - { offset: 0x1408C4, size: 0x8, addend: 0x0, symName: '__ZN97_$LT$alloc..vec..Vec$LT$T$C$A$GT$$u20$as$u20$alloc..vec..spec_extend..SpecExtend$LT$T$C$I$GT$$GT$11spec_extend17hf9e9e96b172bb274E', symObjAddr: 0x49F0, symBinAddr: 0x4B6D0, symSize: 0x24 }
  - { offset: 0x140922, size: 0x8, addend: 0x0, symName: '__ZN98_$LT$alloc..vec..Vec$LT$T$GT$$u20$as$u20$alloc..vec..spec_from_iter..SpecFromIter$LT$T$C$I$GT$$GT$9from_iter17h48bf590d80567d26E', symObjAddr: 0x4A14, symBinAddr: 0x4B6F4, symSize: 0x14 }
  - { offset: 0x140961, size: 0x8, addend: 0x0, symName: '__ZN98_$LT$alloc..vec..Vec$LT$T$GT$$u20$as$u20$alloc..vec..spec_from_iter..SpecFromIter$LT$T$C$I$GT$$GT$9from_iter17h6bdd1b2adecaf700E', symObjAddr: 0x4A28, symBinAddr: 0x4B708, symSize: 0x14 }
  - { offset: 0x1409A0, size: 0x8, addend: 0x0, symName: '__ZN98_$LT$alloc..vec..Vec$LT$T$GT$$u20$as$u20$alloc..vec..spec_from_iter..SpecFromIter$LT$T$C$I$GT$$GT$9from_iter17hbe108e82f284d2a4E', symObjAddr: 0x4A3C, symBinAddr: 0x4B71C, symSize: 0x14 }
  - { offset: 0x140B16, size: 0x8, addend: 0x0, symName: __ZN5alloc3fmt6format17h63261071474f39adE, symObjAddr: 0x1738, symBinAddr: 0x48DE0, symSize: 0xD8 }
  - { offset: 0x140BDA, size: 0x8, addend: 0x0, symName: '__ZN5alloc3fmt6format28_$u7b$$u7b$closure$u7d$$u7d$17h686a0814aace29acE', symObjAddr: 0x1810, symBinAddr: 0x48EB8, symSize: 0x30 }
  - { offset: 0x14100E, size: 0x8, addend: 0x0, symName: '__ZN5alloc5boxed12Box$LT$T$GT$8into_raw17h7d3fd9e7e1462c52E', symObjAddr: 0x3458, symBinAddr: 0x4AAEC, symSize: 0x18 }
  - { offset: 0x141045, size: 0x8, addend: 0x0, symName: '__ZN5alloc5boxed12Box$LT$T$GT$8into_raw17h918c92d026cd3465E', symObjAddr: 0x3470, symBinAddr: 0x4AB04, symSize: 0x18 }
  - { offset: 0x14107C, size: 0x8, addend: 0x0, symName: '__ZN5alloc5boxed12Box$LT$T$GT$8into_raw17hdf84d77b454de910E', symObjAddr: 0x3488, symBinAddr: 0x4AB1C, symSize: 0x18 }
  - { offset: 0x1410B9, size: 0x8, addend: 0x0, symName: '__ZN72_$LT$alloc..boxed..Box$LT$T$C$A$GT$$u20$as$u20$core..ops..drop..Drop$GT$4drop17h5184f3a0ac7c3d95E', symObjAddr: 0x3F90, symBinAddr: 0x4AE84, symSize: 0xC4 }
  - { offset: 0x1411F2, size: 0x8, addend: 0x0, symName: '__ZN72_$LT$alloc..boxed..Box$LT$T$C$A$GT$$u20$as$u20$core..ops..drop..Drop$GT$4drop17h56755868fe80a154E', symObjAddr: 0x4054, symBinAddr: 0x4AF48, symSize: 0xC4 }
  - { offset: 0x14132B, size: 0x8, addend: 0x0, symName: '__ZN72_$LT$alloc..boxed..Box$LT$T$C$A$GT$$u20$as$u20$core..ops..drop..Drop$GT$4drop17h87d5d30bfc18d43eE', symObjAddr: 0x41C8, symBinAddr: 0x4B00C, symSize: 0xB0 }
  - { offset: 0x141464, size: 0x8, addend: 0x0, symName: '__ZN72_$LT$alloc..boxed..Box$LT$T$C$A$GT$$u20$as$u20$core..ops..drop..Drop$GT$4drop17hbd279c3eb2cd4682E', symObjAddr: 0x4278, symBinAddr: 0x4B0BC, symSize: 0xC4 }
  - { offset: 0x1415ED, size: 0x8, addend: 0x0, symName: '__ZN80_$LT$alloc..boxed..Box$LT$T$C$A$GT$$u20$as$u20$core..convert..AsRef$LT$T$GT$$GT$6as_ref17h390906d20bcc092bE', symObjAddr: 0x43E0, symBinAddr: 0x4B1D4, symSize: 0x18 }
  - { offset: 0x141633, size: 0x8, addend: 0x0, symName: '__ZN86_$LT$alloc..boxed..Box$LT$F$C$A$GT$$u20$as$u20$core..ops..function..Fn$LT$Args$GT$$GT$4call17h182911a3932688adE', symObjAddr: 0x4538, symBinAddr: 0x4B24C, symSize: 0x44 }
  - { offset: 0x14168D, size: 0x8, addend: 0x0, symName: '__ZN90_$LT$alloc..boxed..Box$LT$F$C$A$GT$$u20$as$u20$core..ops..function..FnOnce$LT$Args$GT$$GT$9call_once17hee4a6b79cd916525E', symObjAddr: 0x45DC, symBinAddr: 0x4B2BC, symSize: 0x138 }
  - { offset: 0x1417FA, size: 0x8, addend: 0x0, symName: '__ZN5alloc6string104_$LT$impl$u20$core..convert..From$LT$alloc..string..String$GT$$u20$for$u20$alloc..vec..Vec$LT$u8$GT$$GT$4from17hc7096d6c6fa2f3d6E', symObjAddr: 0x3540, symBinAddr: 0x4AB34, symSize: 0x18 }
  - { offset: 0x142375, size: 0x8, addend: 0x0, symName: __ZN15portable_atomic9AtomicI6416compare_exchange17h3e7557c2d7c57cffE, symObjAddr: 0xBFC, symBinAddr: 0x487AC, symSize: 0x34 }
  - { offset: 0x142502, size: 0x8, addend: 0x0, symName: '__ZN4core4iter8adapters7step_by15StepBy$LT$I$GT$3new17h4e3395a9628f86c7E', symObjAddr: 0x1000, symBinAddr: 0x48930, symSize: 0xE0 }
  - { offset: 0x142583, size: 0x8, addend: 0x0, symName: __ZN4pyo35types10typeobject6PyType11as_type_ptr17h6847f117919f73f9E, symObjAddr: 0x1304, symBinAddr: 0x48BCC, symSize: 0x28 }
  - { offset: 0x1425B2, size: 0x8, addend: 0x0, symName: __ZN4pyo35types10typeobject6PyType13from_type_ptr17h46428f5b4f31f239E, symObjAddr: 0x1418, symBinAddr: 0x48BF4, symSize: 0x24 }
  - { offset: 0x1425ED, size: 0x8, addend: 0x0, symName: __ZN4pyo35types10typeobject6PyType4name17h2e883b2a0b8b8b39E, symObjAddr: 0x143C, symBinAddr: 0x48C18, symSize: 0xC8 }
  - { offset: 0x1427C2, size: 0x8, addend: 0x0, symName: '__ZN5alloc3vec12Vec$LT$T$GT$13with_capacity17h3b73ecd817f205d5E', symObjAddr: 0x1840, symBinAddr: 0x48EE8, symSize: 0x44 }
  - { offset: 0x142868, size: 0x8, addend: 0x0, symName: '__ZN5alloc3vec12Vec$LT$T$GT$3new17h29ae12fb0513bad5E', symObjAddr: 0x1884, symBinAddr: 0x48F2C, symSize: 0x14 }
  - { offset: 0x142885, size: 0x8, addend: 0x0, symName: '__ZN5alloc3vec12Vec$LT$T$GT$3new17h2d8cc032f7b66b1dE', symObjAddr: 0x1898, symBinAddr: 0x48F40, symSize: 0x14 }
  - { offset: 0x1428C0, size: 0x8, addend: 0x0, symName: '__ZN5alloc3vec12Vec$LT$T$GT$3new17h5b23bdaaac1aeb72E', symObjAddr: 0x18AC, symBinAddr: 0x48F54, symSize: 0x14 }
  - { offset: 0x1428DD, size: 0x8, addend: 0x0, symName: '__ZN5alloc3vec12Vec$LT$T$GT$3new17h5ffb6e41ae8707f0E', symObjAddr: 0x18C0, symBinAddr: 0x48F68, symSize: 0x14 }
  - { offset: 0x1428FA, size: 0x8, addend: 0x0, symName: '__ZN5alloc3vec12Vec$LT$T$GT$3new17h7b4d75644e8ac2d2E', symObjAddr: 0x18D4, symBinAddr: 0x48F7C, symSize: 0x14 }
  - { offset: 0x142917, size: 0x8, addend: 0x0, symName: '__ZN5alloc3vec12Vec$LT$T$GT$3new17h83f2815fe06c65f5E', symObjAddr: 0x18E8, symBinAddr: 0x48F90, symSize: 0x14 }
  - { offset: 0x142934, size: 0x8, addend: 0x0, symName: '__ZN5alloc3vec12Vec$LT$T$GT$3new17ha03770b5f9058189E', symObjAddr: 0x18FC, symBinAddr: 0x48FA4, symSize: 0x14 }
  - { offset: 0x14299C, size: 0x8, addend: 0x0, symName: '__ZN5alloc3vec16Vec$LT$T$C$A$GT$10as_mut_ptr17hf7970a79a7e25620E', symObjAddr: 0x1910, symBinAddr: 0x48FB8, symSize: 0x18 }
  - { offset: 0x142BFE, size: 0x8, addend: 0x0, symName: '__ZN5alloc3vec16Vec$LT$T$C$A$GT$10retain_mut17h421eaac88b764ac4E', symObjAddr: 0x1928, symBinAddr: 0x48FD0, symSize: 0x31C }
  - { offset: 0x143406, size: 0x8, addend: 0x0, symName: '__ZN5alloc3vec16Vec$LT$T$C$A$GT$16extend_desugared17h25640e299b0fbb77E', symObjAddr: 0x1C44, symBinAddr: 0x492EC, symSize: 0x1C8 }
  - { offset: 0x143809, size: 0x8, addend: 0x0, symName: '__ZN5alloc3vec16Vec$LT$T$C$A$GT$16extend_desugared17h5968bc31b18582f9E', symObjAddr: 0x1E0C, symBinAddr: 0x494B4, symSize: 0x1C4 }
  - { offset: 0x143BD9, size: 0x8, addend: 0x0, symName: '__ZN5alloc3vec16Vec$LT$T$C$A$GT$16extend_desugared17h80e9af665fb4d864E', symObjAddr: 0x1FD0, symBinAddr: 0x49678, symSize: 0x1C4 }
  - { offset: 0x14420A, size: 0x8, addend: 0x0, symName: '__ZN5alloc3vec16Vec$LT$T$C$A$GT$16into_boxed_slice17h46b1e04ea28556b6E', symObjAddr: 0x2194, symBinAddr: 0x4983C, symSize: 0x1EC }
  - { offset: 0x1449CE, size: 0x8, addend: 0x0, symName: '__ZN5alloc3vec16Vec$LT$T$C$A$GT$16into_boxed_slice17h72e2538037261d23E', symObjAddr: 0x2380, symBinAddr: 0x49A28, symSize: 0x1EC }
  - { offset: 0x145192, size: 0x8, addend: 0x0, symName: '__ZN5alloc3vec16Vec$LT$T$C$A$GT$16into_boxed_slice17hd9a2c06688c2f594E', symObjAddr: 0x256C, symBinAddr: 0x49C14, symSize: 0x1EC }
  - { offset: 0x145580, size: 0x8, addend: 0x0, symName: '__ZN5alloc3vec16Vec$LT$T$C$A$GT$3len17hb6094f2ed657b7dbE', symObjAddr: 0x2758, symBinAddr: 0x49E00, symSize: 0x18 }
  - { offset: 0x1455C2, size: 0x8, addend: 0x0, symName: '__ZN5alloc3vec16Vec$LT$T$C$A$GT$4push17h48aaba46fe80e8b4E', symObjAddr: 0x2770, symBinAddr: 0x49E18, symSize: 0x24 }
  - { offset: 0x145614, size: 0x8, addend: 0x0, symName: '__ZN5alloc3vec16Vec$LT$T$C$A$GT$4push17h782fd8c5e46ad802E', symObjAddr: 0x2794, symBinAddr: 0x49E3C, symSize: 0x2C }
  - { offset: 0x145658, size: 0x8, addend: 0x0, symName: '__ZN5alloc3vec16Vec$LT$T$C$A$GT$4push17h7feed4cce55f2ce9E', symObjAddr: 0x27C0, symBinAddr: 0x49E68, symSize: 0x28 }
  - { offset: 0x14569C, size: 0x8, addend: 0x0, symName: '__ZN5alloc3vec16Vec$LT$T$C$A$GT$4push17h925cd4fb75e4213dE', symObjAddr: 0x27E8, symBinAddr: 0x49E90, symSize: 0x24 }
  - { offset: 0x1456E1, size: 0x8, addend: 0x0, symName: '__ZN5alloc3vec16Vec$LT$T$C$A$GT$4push17ha15b68e263e5f367E', symObjAddr: 0x280C, symBinAddr: 0x49EB4, symSize: 0x30 }
  - { offset: 0x145725, size: 0x8, addend: 0x0, symName: '__ZN5alloc3vec16Vec$LT$T$C$A$GT$4push17hb9e902daae87c4c0E', symObjAddr: 0x283C, symBinAddr: 0x49EE4, symSize: 0x24 }
  - { offset: 0x14576A, size: 0x8, addend: 0x0, symName: '__ZN5alloc3vec16Vec$LT$T$C$A$GT$4push17hc21e91780ac2c602E', symObjAddr: 0x2860, symBinAddr: 0x49F08, symSize: 0x24 }
  - { offset: 0x1457AF, size: 0x8, addend: 0x0, symName: '__ZN5alloc3vec16Vec$LT$T$C$A$GT$4push17hebc636bbd6db33bfE', symObjAddr: 0x2884, symBinAddr: 0x49F2C, symSize: 0x24 }
  - { offset: 0x1457F4, size: 0x8, addend: 0x0, symName: '__ZN5alloc3vec16Vec$LT$T$C$A$GT$6retain17h35e6bf3844c4f65bE', symObjAddr: 0x28A8, symBinAddr: 0x49F50, symSize: 0x4C }
  - { offset: 0x145957, size: 0x8, addend: 0x0, symName: '__ZN5alloc3vec16Vec$LT$T$C$A$GT$7reserve17h135e032978ab082eE', symObjAddr: 0x2924, symBinAddr: 0x49FCC, symSize: 0xA8 }
  - { offset: 0x145BBB, size: 0x8, addend: 0x0, symName: '__ZN5alloc3vec16Vec$LT$T$C$A$GT$7reserve17h40229f371ee6dd62E', symObjAddr: 0x29CC, symBinAddr: 0x4A074, symSize: 0xA8 }
  - { offset: 0x145D2E, size: 0x8, addend: 0x0, symName: '__ZN5alloc3vec16Vec$LT$T$C$A$GT$8is_empty17h0e93e438f7a6e4d2E', symObjAddr: 0x2AD4, symBinAddr: 0x4A17C, symSize: 0x20 }
  - { offset: 0x145DA6, size: 0x8, addend: 0x0, symName: '__ZN5alloc3vec16Vec$LT$T$C$A$GT$8is_empty17h1b5734b30d42bc1eE', symObjAddr: 0x2AF4, symBinAddr: 0x4A19C, symSize: 0x20 }
  - { offset: 0x145E1E, size: 0x8, addend: 0x0, symName: '__ZN5alloc3vec16Vec$LT$T$C$A$GT$8is_empty17h63da71552da879a2E', symObjAddr: 0x2B14, symBinAddr: 0x4A1BC, symSize: 0x20 }
  - { offset: 0x145E96, size: 0x8, addend: 0x0, symName: '__ZN5alloc3vec16Vec$LT$T$C$A$GT$8is_empty17h97554dd75f153ae6E', symObjAddr: 0x2B34, symBinAddr: 0x4A1DC, symSize: 0x20 }
  - { offset: 0x145F0E, size: 0x8, addend: 0x0, symName: '__ZN5alloc3vec16Vec$LT$T$C$A$GT$8is_empty17hf1eb02f9eedf4adaE', symObjAddr: 0x2B54, symBinAddr: 0x4A1FC, symSize: 0x20 }
  - { offset: 0x146075, size: 0x8, addend: 0x0, symName: '__ZN5alloc3vec16Vec$LT$T$C$A$GT$8push_mut17h07be2c042d2a9855E', symObjAddr: 0x2B74, symBinAddr: 0x4A21C, symSize: 0xEC }
  - { offset: 0x1462E7, size: 0x8, addend: 0x0, symName: '__ZN5alloc3vec16Vec$LT$T$C$A$GT$8push_mut17h274668bc8e7d6b9aE', symObjAddr: 0x2C60, symBinAddr: 0x4A308, symSize: 0xDC }
  - { offset: 0x14654C, size: 0x8, addend: 0x0, symName: '__ZN5alloc3vec16Vec$LT$T$C$A$GT$8push_mut17h2dd4eb69631c4d29E', symObjAddr: 0x2D3C, symBinAddr: 0x4A3E4, symSize: 0xE0 }
  - { offset: 0x1467BC, size: 0x8, addend: 0x0, symName: '__ZN5alloc3vec16Vec$LT$T$C$A$GT$8push_mut17h4c8f91b05defd33eE', symObjAddr: 0x2E1C, symBinAddr: 0x4A4C4, symSize: 0xF8 }
  - { offset: 0x146A53, size: 0x8, addend: 0x0, symName: '__ZN5alloc3vec16Vec$LT$T$C$A$GT$8push_mut17h5826943debba4a74E', symObjAddr: 0x2F14, symBinAddr: 0x4A5BC, symSize: 0x100 }
  - { offset: 0x146CB7, size: 0x8, addend: 0x0, symName: '__ZN5alloc3vec16Vec$LT$T$C$A$GT$8push_mut17h6a5c1784b8cc094eE', symObjAddr: 0x3014, symBinAddr: 0x4A6BC, symSize: 0xCC }
  - { offset: 0x146F4D, size: 0x8, addend: 0x0, symName: '__ZN5alloc3vec16Vec$LT$T$C$A$GT$8push_mut17h6c17750f13556cf9E', symObjAddr: 0x30E0, symBinAddr: 0x4A788, symSize: 0xD0 }
  - { offset: 0x1471BC, size: 0x8, addend: 0x0, symName: '__ZN5alloc3vec16Vec$LT$T$C$A$GT$8push_mut17h942a1dc5cabe8bd5E', symObjAddr: 0x31B0, symBinAddr: 0x4A858, symSize: 0xF8 }
  - { offset: 0x14757A, size: 0x8, addend: 0x0, symName: '__ZN5alloc3vec16Vec$LT$T$C$A$GT$9split_off17h5bb6c07e9df7b469E', symObjAddr: 0x32A8, symBinAddr: 0x4A950, symSize: 0x19C }
  - { offset: 0x148921, size: 0x8, addend: 0x0, symName: __ZN11parking_lot4util11unreachable17h799e22b455c98787E, symObjAddr: 0x0, symBinAddr: 0x4B788, symSize: 0x24 }
  - { offset: 0x148D8E, size: 0x8, addend: 0x0, symName: '__ZN4core3ptr8non_null16NonNull$LT$T$GT$13new_unchecked18precondition_check17h2d909577122e6e33E', symObjAddr: 0xF9C, symBinAddr: 0x4BED8, symSize: 0x58 }
  - { offset: 0x1492BD, size: 0x8, addend: 0x0, symName: '__ZN4core3num23_$LT$impl$u20$isize$GT$13unchecked_neg18precondition_check17hf8736988c1b39a4bE', symObjAddr: 0xDAC, symBinAddr: 0x4BD98, symSize: 0x6C }
  - { offset: 0x149374, size: 0x8, addend: 0x0, symName: '__ZN4core3num23_$LT$impl$u20$usize$GT$13unchecked_add18precondition_check17hdd0876fe32c55daeE', symObjAddr: 0xE94, symBinAddr: 0x4BE04, symSize: 0x64 }
  - { offset: 0x149529, size: 0x8, addend: 0x0, symName: '__ZN31_$LT$dyn$u20$core..any..Any$GT$12downcast_ref17ha0a7894a04eb3d70E', symObjAddr: 0x24, symBinAddr: 0x4B7AC, symSize: 0xA4 }
  - { offset: 0x14961A, size: 0x8, addend: 0x0, symName: '__ZN31_$LT$dyn$u20$core..any..Any$GT$12downcast_ref17hf17a5c6c916b8a71E', symObjAddr: 0xC8, symBinAddr: 0x4B850, symSize: 0xA4 }
  - { offset: 0x149785, size: 0x8, addend: 0x0, symName: '__ZN54_$LT$dyn$u20$core..any..Any$u2b$core..marker..Send$GT$12downcast_ref17h7ed480d98a75538cE', symObjAddr: 0x5D28, symBinAddr: 0x4D4E4, symSize: 0x2C }
  - { offset: 0x1497BC, size: 0x8, addend: 0x0, symName: '__ZN54_$LT$dyn$u20$core..any..Any$u2b$core..marker..Send$GT$12downcast_ref17h934adf81128e5a90E', symObjAddr: 0x5D54, symBinAddr: 0x4D510, symSize: 0x2C }
  - { offset: 0x1498C9, size: 0x8, addend: 0x0, symName: '__ZN4core3fmt8builders11DebugStruct10field_with28_$u7b$$u7b$closure$u7d$$u7d$17h5ffcaad0bd19b85cE', symObjAddr: 0x518, symBinAddr: 0x4BA44, symSize: 0x354 }
  - { offset: 0x149EBC, size: 0x8, addend: 0x0, symName: '__ZN4core5slice29_$LT$impl$u20$$u5b$T$u5d$$GT$4iter17hd181cd87cfdf6a7aE', symObjAddr: 0x16EC, symBinAddr: 0x4C260, symSize: 0x28 }
  - { offset: 0x14C2E8, size: 0x8, addend: 0x0, symName: '__ZN4core3ops8function5impls79_$LT$impl$u20$core..ops..function..FnMut$LT$A$GT$$u20$for$u20$$RF$mut$u20$F$GT$8call_mut17hd1f0d6b302bfe8a7E', symObjAddr: 0xF2C, symBinAddr: 0x4BE68, symSize: 0x38 }
  - { offset: 0x14C337, size: 0x8, addend: 0x0, symName: '__ZN4core3ops8function5impls79_$LT$impl$u20$core..ops..function..FnMut$LT$A$GT$$u20$for$u20$$RF$mut$u20$F$GT$8call_mut17hdffabf357a5285b1E', symObjAddr: 0xF64, symBinAddr: 0x4BEA0, symSize: 0x38 }
  - { offset: 0x14C8D9, size: 0x8, addend: 0x0, symName: __ZN4core3str7pattern15ReverseSearcher16next_reject_back17h48c6d17f0554e36fE, symObjAddr: 0x1414, symBinAddr: 0x4C090, symSize: 0x90 }
  - { offset: 0x14C944, size: 0x8, addend: 0x0, symName: '__ZN52_$LT$char$u20$as$u20$core..str..pattern..Pattern$GT$13into_searcher17h4025748fa4757308E', symObjAddr: 0x5C14, symBinAddr: 0x4D3D0, symSize: 0x114 }
  - { offset: 0x14CA62, size: 0x8, addend: 0x0, symName: '__ZN88_$LT$core..str..pattern..CharSearcher$u20$as$u20$core..str..pattern..ReverseSearcher$GT$9next_back17hf361fefcd1d4d888E', symObjAddr: 0x6908, symBinAddr: 0x4D5CC, symSize: 0x250 }
  - { offset: 0x14CF8C, size: 0x8, addend: 0x0, symName: '__ZN4core4iter6traits8iterator8Iterator12try_for_each4call28_$u7b$$u7b$closure$u7d$$u7d$17h53c665a3c24cedd9E', symObjAddr: 0x1534, symBinAddr: 0x4C120, symSize: 0x48 }
  - { offset: 0x14CFFE, size: 0x8, addend: 0x0, symName: '__ZN4core4iter6traits8iterator8Iterator8find_map5check28_$u7b$$u7b$closure$u7d$$u7d$17h8d31b7d2f3ada155E', symObjAddr: 0x157C, symBinAddr: 0x4C168, symSize: 0x7C }
  - { offset: 0x14D081, size: 0x8, addend: 0x0, symName: '__ZN4core4iter6traits8iterator8Iterator8find_map5check28_$u7b$$u7b$closure$u7d$$u7d$17hb8ccffcc8da5b08aE', symObjAddr: 0x15F8, symBinAddr: 0x4C1E4, symSize: 0x7C }
  - { offset: 0x14DB06, size: 0x8, addend: 0x0, symName: __ZN11parking_lot4util11unreachable17h799e22b455c98787E, symObjAddr: 0x0, symBinAddr: 0x4B788, symSize: 0x24 }
  - { offset: 0x14E58E, size: 0x8, addend: 0x0, symName: '__ZN4pyo34sync8Interned3get28_$u7b$$u7b$closure$u7d$$u7d$17hc55774583100db79E', symObjAddr: 0x4934, symBinAddr: 0x4CFEC, symSize: 0x34 }
  - { offset: 0x14E5DA, size: 0x8, addend: 0x0, symName: '__ZN4pyo34sync20GILOnceCell$LT$T$GT$11get_or_init28_$u7b$$u7b$closure$u7d$$u7d$17h2d3eed16c283b537E', symObjAddr: 0x212C, symBinAddr: 0x4C428, symSize: 0x24 }
  - { offset: 0x14E619, size: 0x8, addend: 0x0, symName: '__ZN4pyo34sync20GILOnceCell$LT$T$GT$11get_or_init28_$u7b$$u7b$closure$u7d$$u7d$17h3feafc4475f74853E', symObjAddr: 0x2198, symBinAddr: 0x4C44C, symSize: 0x34 }
  - { offset: 0x14F04B, size: 0x8, addend: 0x0, symName: '__ZN4pyo35impl_16extract_argument19FunctionDescription34missing_required_keyword_arguments28_$u7b$$u7b$closure$u7d$$u7d$17hc110aa11f4438d43E', symObjAddr: 0x5388, symBinAddr: 0x4D020, symSize: 0x84 }
  - { offset: 0x14F0BB, size: 0x8, addend: 0x0, symName: '__ZN4pyo35impl_16extract_argument19FunctionDescription37missing_required_positional_arguments28_$u7b$$u7b$closure$u7d$$u7d$17h3b58b70ea7994fadE', symObjAddr: 0x5554, symBinAddr: 0x4D0A4, symSize: 0x78 }
  - { offset: 0x14F127, size: 0x8, addend: 0x0, symName: __ZN4pyo35impl_16extract_argument19push_parameter_list17ha00341a71cf926feE, symObjAddr: 0x56D8, symBinAddr: 0x4D228, symSize: 0x168 }
  - { offset: 0x14F1E3, size: 0x8, addend: 0x0, symName: '__ZN71_$LT$pyo3..impl_..panic..PanicTrap$u20$as$u20$core..ops..drop..Drop$GT$4drop17haf34a6b949c54cb2E', symObjAddr: 0x6110, symBinAddr: 0x4D53C, symSize: 0x20 }
  - { offset: 0x14F37A, size: 0x8, addend: 0x0, symName: __ZN4core3ffi5c_str4CStr29from_bytes_with_nul_unchecked17h9f0f7b97003e7481E, symObjAddr: 0x34C, symBinAddr: 0x4B8F4, symSize: 0x18 }
  - { offset: 0x14F3AA, size: 0x8, addend: 0x0, symName: __ZN4core3ffi5c_str4CStr6as_ptr17h78330665d14e3bf4E, symObjAddr: 0x364, symBinAddr: 0x4B90C, symSize: 0x18 }
  - { offset: 0x14F3FE, size: 0x8, addend: 0x0, symName: __ZN4core3ffi5c_str4CStr8to_bytes17hf23bf63e851755cdE, symObjAddr: 0x3F8, symBinAddr: 0x4B924, symSize: 0x74 }
  - { offset: 0x14F951, size: 0x8, addend: 0x0, symName: __ZN4core3fmt8builders11DebugStruct10field_with17hea38b2e753225b3aE, symObjAddr: 0x46C, symBinAddr: 0x4B998, symSize: 0xAC }
  - { offset: 0x14FADA, size: 0x8, addend: 0x0, symName: '__ZN4core3ptr8non_null16NonNull$LT$T$GT$3new17h45487cdbabe8ca8cE', symObjAddr: 0xFF4, symBinAddr: 0x4BF30, symSize: 0x58 }
  - { offset: 0x14FB51, size: 0x8, addend: 0x0, symName: '__ZN4core3ptr8non_null16NonNull$LT$T$GT$3new17h5cf7bc124445d7adE', symObjAddr: 0x104C, symBinAddr: 0x4BF88, symSize: 0x58 }
  - { offset: 0x14FBC8, size: 0x8, addend: 0x0, symName: '__ZN4core3ptr8non_null16NonNull$LT$T$GT$3new17h6148d20df6523790E', symObjAddr: 0x10A4, symBinAddr: 0x4BFE0, symSize: 0x58 }
  - { offset: 0x14FC32, size: 0x8, addend: 0x0, symName: '__ZN4core3ptr8non_null16NonNull$LT$T$GT$3new17hdd666f23bae1647dE', symObjAddr: 0x10FC, symBinAddr: 0x4C038, symSize: 0x58 }
  - { offset: 0x14FCDA, size: 0x8, addend: 0x0, symName: '__ZN4pyo34sync20GILOnceCell$LT$T$GT$11get_or_init17h22044076e93d372eE', symObjAddr: 0x1A14, symBinAddr: 0x4C288, symSize: 0xC8 }
  - { offset: 0x14FD82, size: 0x8, addend: 0x0, symName: '__ZN4pyo34sync20GILOnceCell$LT$T$GT$11get_or_init17h3985961822934f2fE', symObjAddr: 0x1ADC, symBinAddr: 0x4C350, symSize: 0xD8 }
  - { offset: 0x14FEE7, size: 0x8, addend: 0x0, symName: '__ZN4pyo34sync20GILOnceCell$LT$T$GT$15get_or_try_init17h4f4bcae47a397b78E', symObjAddr: 0x246C, symBinAddr: 0x4C480, symSize: 0xCC }
  - { offset: 0x150035, size: 0x8, addend: 0x0, symName: '__ZN4pyo34sync20GILOnceCell$LT$T$GT$15get_or_try_init17h57aa18ce26b8a829E', symObjAddr: 0x2538, symBinAddr: 0x4C54C, symSize: 0xCC }
  - { offset: 0x150135, size: 0x8, addend: 0x0, symName: '__ZN4pyo34sync20GILOnceCell$LT$T$GT$15get_or_try_init17h6e8850e14c7b6002E', symObjAddr: 0x2604, symBinAddr: 0x4C618, symSize: 0xE8 }
  - { offset: 0x1501BC, size: 0x8, addend: 0x0, symName: '__ZN4pyo34sync20GILOnceCell$LT$T$GT$3get17h0bf3c83e89d1dd67E', symObjAddr: 0x27BC, symBinAddr: 0x4C700, symSize: 0x70 }
